; ModuleID = 'test.cpp' 
source_filename = "test.cpp" 
target datalayout = "e-m:o-i64:64-i128:128-n32:64-S128" 
target triple = "arm64-apple-macosx12.3.0" 

%"class.std::__1::basic_ostream" = type { i32 (...)**, %"class.std::__1::basic_ios.base" } 
%"class.std::__1::basic_ios.base" = type <{ %"class.std::__1::ios_base", %"class.std::__1::basic_ostream"*, i32 }> 
%"class.std::__1::ios_base" = type { i32 (...)**, i32, i64, i64, i32, i32, i8*, i8*, void (i32, %"class.std::__1::ios_base"*, i32)**, i32*, i64, i64, i64*, i64, i64, i8**, i64, i64 } 
%"class.std::__1::locale::id" = type <{ %"struct.std::__1::once_flag", i32, [4 x i8] }> 
%"struct.std::__1::once_flag" = type { i64 } 
%"class.std::__1::basic_string" = type { %"class.std::__1::__compressed_pair" } 
%"class.std::__1::__compressed_pair" = type { %"struct.std::__1::__compressed_pair_elem" } 
%"struct.std::__1::__compressed_pair_elem" = type { %"struct.std::__1::basic_string<char>::__rep" } 
%"struct.std::__1::basic_string<char>::__rep" = type { %union.anon } 
%union.anon = type { %"struct.std::__1::basic_string<char>::__long" } 
%"struct.std::__1::basic_string<char>::__long" = type { i8*, i64, i64 } 
%"struct.std::__1::__default_init_tag" = type { i8 } 
%"class.std::__1::__basic_string_common" = type { i8 } 
%"struct.std::__1::__compressed_pair_elem.0" = type { i8 } 
%"class.std::__1::allocator" = type { i8 } 
%"struct.std::__1::__non_trivial_if" = type { i8 } 
%"struct.std::__1::basic_string<char>::__short" = type { [23 x i8], %struct.anon } 
%struct.anon = type { i8 } 
%"class.std::__1::basic_ostream<char>::sentry" = type { i8, %"class.std::__1::basic_ostream"* } 
%"class.std::__1::ostreambuf_iterator" = type { %"class.std::__1::basic_streambuf"* } 
%"class.std::__1::basic_streambuf" = type { i32 (...)**, %"class.std::__1::locale", i8*, i8*, i8*, i8*, i8*, i8* } 
%"class.std::__1::locale" = type { %"class.std::__1::locale::__imp"* } 
%"class.std::__1::locale::__imp" = type opaque 
%"class.std::__1::basic_ios" = type <{ %"class.std::__1::ios_base", %"class.std::__1::basic_ostream"*, i32, [4 x i8] }> 
%"struct.std::__1::nullptr_t" = type { i8* } 
%"struct.std::__1::iterator" = type { i8 } 
%"class.std::__1::ctype" = type <{ %"class.std::__1::locale::facet", i32*, i8, [7 x i8] }> 
%"class.std::__1::locale::facet" = type { %"class.std::__1::__shared_count" } 
%"class.std::__1::__shared_count" = type { i32 (...)**, i64 } 

@.str = private unnamed_addr constant [6 x i8] c"11111\00", align 1 
@.str.1 = private unnamed_addr constant [6 x i8] c"32222\00", align 1 
@_ZNSt3__14coutE = external global %"class.std::__1::basic_ostream", align 8 
@.str.2 = private unnamed_addr constant [2 x i8] c"\0A\00", align 1 
@.str.3 = private unnamed_addr constant [6 x i8] c"aaaba\00", align 1 
@_ZNSt3__15ctypeIcE2idE = external global %"class.std::__1::locale::id", align 8 

; Function Attrs: noinline norecurse optnone ssp uwtable 
define i32 @main() #0 personality i8* bitcast (i32 (...)* @__gxx_personality_v0 to i8*) !dbg !2458 { 
entry: 
%loadfile   = load %struct.__sFILE*, %struct.__sFILE** @file, align 8 
  %retval = alloca i32, align 4 
  %tempstr = alloca %"class.std::__1::basic_string", align 8 
  %exn.slot = alloca i8*, align 8 
  %ehselector.slot = alloca i32, align 4 
  %num1 = alloca i32, align 4 
  %num333 = alloca i32, align 4 
  store i32 0, i32* %retval, align 4 
%var_1_value = load i32, i32* %retval, align 4 
%temp_var_1_1 = call i32 (%struct.__sFILE*, i8*, ...) @fprintf(%struct.__sFILE* %loadfile, i8* getelementptr inbounds ([7 x i8], [7 x i8]* @.str.op_store, i32 0, i32 0)) 
%temp_var_1_2 = call i32 (%struct.__sFILE*, i8*, ...) @fprintf(%struct.__sFILE* %loadfile, i8* getelementptr inbounds ([8 x i8], [8 x i8]* @__const_culry.retval, i64 0, i64 0)) 
%temp_var_1_3 = call i32 (%struct.__sFILE*, i8*, ...) @fprintf(%struct.__sFILE* %loadfile, i8* getelementptr inbounds ([5 x i8], [5 x i8]* @.str.i32, i64 0, i64 0)) 
%temp_var_1_4 = call i32 (%struct.__sFILE*, i8*, ...) @fprintf(%struct.__sFILE* %loadfile, i8* getelementptr inbounds ([4 x i8], [4 x i8]* @.str.print_i32, i32 0, i32 0), i32 %var_1_value) 
%temp_var_1_5 = call i32 (%struct.__sFILE*, i8*, ...) @fprintf(%struct.__sFILE* %loadfile, i8* getelementptr inbounds ([4 x i8], [4 x i8]* @.str.print_ptr, i32 0, i32 0), i32* %retval) 
%temp_var_1_6 = call i32 (%struct.__sFILE*, i8*, ...) @fprintf(%struct.__sFILE* %loadfile, i8* getelementptr inbounds ([4 x i8], [4 x i8]* @.str.print_int, i64 0, i64 0), i32 0) 
%temp_var_1_7 = call i32 (%struct.__sFILE*, i8*, ...) @fprintf(%struct.__sFILE* %loadfile, i8* getelementptr inbounds ([4 x i8], [4 x i8]* @.str.print_int_space, i64 0, i64 0), i32 0) 
  call void @llvm.dbg.declare(metadata %"class.std::__1::basic_string"* %tempstr, metadata !2459, metadata !DIExpression()), !dbg !2460 
  %call = call %"class.std::__1::basic_string"* @_ZNSt3__112basic_stringIcNS_11char_traitsIcEENS_9allocatorIcEEEC1INS_9nullptr_tEEEPKc(%"class.std::__1::basic_string"* %tempstr, i8* getelementptr inbounds ([6 x i8], [6 x i8]* @.str, i64 0, i64 0), i8* getelementptr inbounds ([9 x i8], [9 x i8]* @__const_culry.tempstr,i64 0, i64 0), i32 8, i32 20), !dbg !2461 
  %call1 = invoke nonnull align 8 dereferenceable(24) %"class.std::__1::basic_string"* @_ZNSt3__112basic_stringIcNS_11char_traitsIcEENS_9allocatorIcEEEaSEPKc(%"class.std::__1::basic_string"* %tempstr, i8* getelementptr inbounds ([6 x i8], [6 x i8]* @.str.1, i64 0, i64 0), i8* getelementptr inbounds ([9 x i8], [9 x i8]* @__const_culry.tempstr,i64 0, i64 0), i32 9, i32 11) 
          to label %invoke.cont unwind label %lpad, !dbg !2462 

invoke.cont:                                      ; preds = %entry 
  %call2 = call nonnull align 1 dereferenceable(1) i8* @_ZNSt3__112basic_stringIcNS_11char_traitsIcEENS_9allocatorIcEEEixEm(%"class.std::__1::basic_string"* %tempstr, i64 2) #8, !dbg !2463 
  store i8 65, i8* %call2, align 1, !dbg !2464 
%var_2_value = load i8, i8* %call2, align 4 
%temp_var_2_1 = call i32 (%struct.__sFILE*, i8*, ...) @fprintf(%struct.__sFILE* %loadfile, i8* getelementptr inbounds ([7 x i8], [7 x i8]* @.str.op_store, i32 0, i32 0)) 
%temp_var_2_2 = call i32 (%struct.__sFILE*, i8*, ...) @fprintf(%struct.__sFILE* %loadfile, i8* getelementptr inbounds ([9 x i8], [9 x i8]* @__const_culry.tempstr, i64 0, i64 0)) 
%temp_var_2_3 = call i32 (%struct.__sFILE*, i8*, ...) @fprintf(%struct.__sFILE* %loadfile, i8* getelementptr inbounds ([8 x i8], [8 x i8]* @.str.string, i64 0, i64 0)) 
%temp_var_2_4 = call i32 (%struct.__sFILE*, i8*, ...) @fprintf(%struct.__sFILE* %loadfile, i8* getelementptr inbounds ([4 x i8], [4 x i8]* @.str.print_int, i64 0, i64 0), i32 2) 
%temp_var_2_5 = call i32 (%struct.__sFILE*, i8*, ...) @fprintf(%struct.__sFILE* %loadfile, i8* getelementptr inbounds ([4 x i8], [4 x i8]* @.str.print_i8, i32 0, i32 0), i8 %var_2_value) 
%temp_var_2_6 = call i32 (%struct.__sFILE*, i8*, ...) @fprintf(%struct.__sFILE* %loadfile, i8* getelementptr inbounds ([4 x i8], [4 x i8]* @.str.print_ptr, i32 0, i32 0), %"class.std::__1::basic_string"* %tempstr) 
%temp_var_2_7 = call i32 (%struct.__sFILE*, i8*, ...) @fprintf(%struct.__sFILE* %loadfile, i8* getelementptr inbounds ([4 x i8], [4 x i8]* @.str.print_int, i64 0, i64 0), i32 11) 
%temp_var_2_8 = call i32 (%struct.__sFILE*, i8*, ...) @fprintf(%struct.__sFILE* %loadfile, i8* getelementptr inbounds ([4 x i8], [4 x i8]* @.str.print_int_space, i64 0, i64 0), i32 14) 
  %call4 = invoke nonnull align 8 dereferenceable(8) %"class.std::__1::basic_ostream"* @_ZNSt3__1lsIcNS_11char_traitsIcEENS_9allocatorIcEEEERNS_13basic_ostreamIT_T0_EES9_RKNS_12basic_stringIS6_S7_T1_EE(%"class.std::__1::basic_ostream"* nonnull align 8 dereferenceable(8) @_ZNSt3__14coutE, %"class.std::__1::basic_string"* nonnull align 8 dereferenceable(24) %tempstr) 
          to label %invoke.cont3 unwind label %lpad, !dbg !2465 

invoke.cont3:                                     ; preds = %invoke.cont 
  %call6 = invoke nonnull align 8 dereferenceable(8) %"class.std::__1::basic_ostream"* @_ZNSt3__1lsINS_11char_traitsIcEEEERNS_13basic_ostreamIcT_EES6_PKc(%"class.std::__1::basic_ostream"* nonnull align 8 dereferenceable(8) %call4, i8* getelementptr inbounds ([2 x i8], [2 x i8]* @.str.2, i64 0, i64 0)) 
          to label %invoke.cont5 unwind label %lpad, !dbg !2466 

invoke.cont5:                                     ; preds = %invoke.cont3 
  %call7 = call nonnull align 1 dereferenceable(1) i8* @_ZNSt3__112basic_stringIcNS_11char_traitsIcEENS_9allocatorIcEEEixEm(%"class.std::__1::basic_string"* %tempstr, i64 2) #8, !dbg !2467 
  %0 = load i8, i8* %call7, align 1, !dbg !2467 
%var_3_value = load i8, i8* %call7, align 4 
%temp_var_3_1 = call i32 (%struct.__sFILE*, i8*, ...) @fprintf(%struct.__sFILE* %loadfile, i8* getelementptr inbounds ([6 x i8], [6 x i8]* @.str.op_load, i32 0, i32 0)) 
%temp_var_3_2 = call i32 (%struct.__sFILE*, i8*, ...) @fprintf(%struct.__sFILE* %loadfile, i8* getelementptr inbounds ([9 x i8], [9 x i8]* @__const_culry.tempstr, i64 0, i64 0)) 
%temp_var_3_3 = call i32 (%struct.__sFILE*, i8*, ...) @fprintf(%struct.__sFILE* %loadfile, i8* getelementptr inbounds ([8 x i8], [8 x i8]* @.str.string, i64 0, i64 0)) 
%temp_var_3_4 = call i32 (%struct.__sFILE*, i8*, ...) @fprintf(%struct.__sFILE* %loadfile, i8* getelementptr inbounds ([4 x i8], [4 x i8]* @.str.print_int, i64 0, i64 0), i32 2) 
%temp_var_3_5 = call i32 (%struct.__sFILE*, i8*, ...) @fprintf(%struct.__sFILE* %loadfile, i8* getelementptr inbounds ([4 x i8], [4 x i8]* @.str.print_i8, i32 0, i32 0), i8 %var_3_value) 
%temp_var_3_6 = call i32 (%struct.__sFILE*, i8*, ...) @fprintf(%struct.__sFILE* %loadfile, i8* getelementptr inbounds ([4 x i8], [4 x i8]* @.str.print_ptr, i32 0, i32 0), %"class.std::__1::basic_string"* %tempstr) 
%temp_var_3_7 = call i32 (%struct.__sFILE*, i8*, ...) @fprintf(%struct.__sFILE* %loadfile, i8* getelementptr inbounds ([4 x i8], [4 x i8]* @.str.print_int, i64 0, i64 0), i32 15) 
%temp_var_3_8 = call i32 (%struct.__sFILE*, i8*, ...) @fprintf(%struct.__sFILE* %loadfile, i8* getelementptr inbounds ([4 x i8], [4 x i8]* @.str.print_int_space, i64 0, i64 0), i32 6) 
  %conv = sext i8 %0 to i32, !dbg !2467 
  %cmp = icmp eq i32 %conv, 66, !dbg !2469 
  br i1 %cmp, label %if.then, label %if.else, !dbg !2470 

if.then:                                          ; preds = %invoke.cont5 
  %call8 = call nonnull align 1 dereferenceable(1) i8* @_ZNSt3__112basic_stringIcNS_11char_traitsIcEENS_9allocatorIcEEEixEm(%"class.std::__1::basic_string"* %tempstr, i64 3) #8, !dbg !2471 
  store i8 66, i8* %call8, align 1, !dbg !2472 
%var_4_value = load i8, i8* %call8, align 4 
%temp_var_4_1 = call i32 (%struct.__sFILE*, i8*, ...) @fprintf(%struct.__sFILE* %loadfile, i8* getelementptr inbounds ([7 x i8], [7 x i8]* @.str.op_store, i32 0, i32 0)) 
%temp_var_4_2 = call i32 (%struct.__sFILE*, i8*, ...) @fprintf(%struct.__sFILE* %loadfile, i8* getelementptr inbounds ([9 x i8], [9 x i8]* @__const_culry.tempstr, i64 0, i64 0)) 
%temp_var_4_3 = call i32 (%struct.__sFILE*, i8*, ...) @fprintf(%struct.__sFILE* %loadfile, i8* getelementptr inbounds ([8 x i8], [8 x i8]* @.str.string, i64 0, i64 0)) 
%temp_var_4_4 = call i32 (%struct.__sFILE*, i8*, ...) @fprintf(%struct.__sFILE* %loadfile, i8* getelementptr inbounds ([4 x i8], [4 x i8]* @.str.print_int, i64 0, i64 0), i32 3) 
%temp_var_4_5 = call i32 (%struct.__sFILE*, i8*, ...) @fprintf(%struct.__sFILE* %loadfile, i8* getelementptr inbounds ([4 x i8], [4 x i8]* @.str.print_i8, i32 0, i32 0), i8 %var_4_value) 
%temp_var_4_6 = call i32 (%struct.__sFILE*, i8*, ...) @fprintf(%struct.__sFILE* %loadfile, i8* getelementptr inbounds ([4 x i8], [4 x i8]* @.str.print_ptr, i32 0, i32 0), %"class.std::__1::basic_string"* %tempstr) 
%temp_var_4_7 = call i32 (%struct.__sFILE*, i8*, ...) @fprintf(%struct.__sFILE* %loadfile, i8* getelementptr inbounds ([4 x i8], [4 x i8]* @.str.print_int, i64 0, i64 0), i32 16) 
%temp_var_4_8 = call i32 (%struct.__sFILE*, i8*, ...) @fprintf(%struct.__sFILE* %loadfile, i8* getelementptr inbounds ([4 x i8], [4 x i8]* @.str.print_int_space, i64 0, i64 0), i32 16) 
  br label %if.end, !dbg !2471 

lpad:                                             ; preds = %invoke.cont3, %invoke.cont, %entry 
  %1 = landingpad { i8*, i32 } 
          cleanup, !dbg !2473 
  %2 = extractvalue { i8*, i32 } %1, 0, !dbg !2473 
  store i8* %2, i8** %exn.slot, align 8, !dbg !2473 
  %3 = extractvalue { i8*, i32 } %1, 1, !dbg !2473 
  store i32 %3, i32* %ehselector.slot, align 4, !dbg !2473 
  %call20 = invoke %"class.std::__1::basic_string"* @_ZNSt3__112basic_stringIcNS_11char_traitsIcEENS_9allocatorIcEEED1Ev(%"class.std::__1::basic_string"* %tempstr) 
          to label %invoke.cont19 unwind label %terminate.lpad, !dbg !2473 

if.else:                                          ; preds = %invoke.cont5 
  %call9 = call nonnull align 1 dereferenceable(1) i8* @_ZNSt3__112basic_stringIcNS_11char_traitsIcEENS_9allocatorIcEEEixEm(%"class.std::__1::basic_string"* %tempstr, i64 5) #8, !dbg !2474 
  store i8 71, i8* %call9, align 1, !dbg !2475 
%var_5_value = load i8, i8* %call9, align 4 
%temp_var_5_1 = call i32 (%struct.__sFILE*, i8*, ...) @fprintf(%struct.__sFILE* %loadfile, i8* getelementptr inbounds ([7 x i8], [7 x i8]* @.str.op_store, i32 0, i32 0)) 
%temp_var_5_2 = call i32 (%struct.__sFILE*, i8*, ...) @fprintf(%struct.__sFILE* %loadfile, i8* getelementptr inbounds ([9 x i8], [9 x i8]* @__const_culry.tempstr, i64 0, i64 0)) 
%temp_var_5_3 = call i32 (%struct.__sFILE*, i8*, ...) @fprintf(%struct.__sFILE* %loadfile, i8* getelementptr inbounds ([8 x i8], [8 x i8]* @.str.string, i64 0, i64 0)) 
%temp_var_5_4 = call i32 (%struct.__sFILE*, i8*, ...) @fprintf(%struct.__sFILE* %loadfile, i8* getelementptr inbounds ([4 x i8], [4 x i8]* @.str.print_int, i64 0, i64 0), i32 5) 
%temp_var_5_5 = call i32 (%struct.__sFILE*, i8*, ...) @fprintf(%struct.__sFILE* %loadfile, i8* getelementptr inbounds ([4 x i8], [4 x i8]* @.str.print_i8, i32 0, i32 0), i8 %var_5_value) 
%temp_var_5_6 = call i32 (%struct.__sFILE*, i8*, ...) @fprintf(%struct.__sFILE* %loadfile, i8* getelementptr inbounds ([4 x i8], [4 x i8]* @.str.print_ptr, i32 0, i32 0), %"class.std::__1::basic_string"* %tempstr) 
%temp_var_5_7 = call i32 (%struct.__sFILE*, i8*, ...) @fprintf(%struct.__sFILE* %loadfile, i8* getelementptr inbounds ([4 x i8], [4 x i8]* @.str.print_int, i64 0, i64 0), i32 18) 
%temp_var_5_8 = call i32 (%struct.__sFILE*, i8*, ...) @fprintf(%struct.__sFILE* %loadfile, i8* getelementptr inbounds ([4 x i8], [4 x i8]* @.str.print_int_space, i64 0, i64 0), i32 16) 
  br label %if.end 

if.end:                                           ; preds = %if.else, %if.then 
  call void @llvm.dbg.declare(metadata i32* %num1, metadata !2476, metadata !DIExpression()), !dbg !2477 
  store i32 44444, i32* %num1, align 4, !dbg !2477 
%var_6_value = load i32, i32* %num1, align 4 
%temp_var_6_1 = call i32 (%struct.__sFILE*, i8*, ...) @fprintf(%struct.__sFILE* %loadfile, i8* getelementptr inbounds ([7 x i8], [7 x i8]* @.str.op_store, i32 0, i32 0)) 
%temp_var_6_2 = call i32 (%struct.__sFILE*, i8*, ...) @fprintf(%struct.__sFILE* %loadfile, i8* getelementptr inbounds ([6 x i8], [6 x i8]* @__const_culry.num1, i64 0, i64 0)) 
%temp_var_6_3 = call i32 (%struct.__sFILE*, i8*, ...) @fprintf(%struct.__sFILE* %loadfile, i8* getelementptr inbounds ([5 x i8], [5 x i8]* @.str.i32, i64 0, i64 0)) 
%temp_var_6_4 = call i32 (%struct.__sFILE*, i8*, ...) @fprintf(%struct.__sFILE* %loadfile, i8* getelementptr inbounds ([4 x i8], [4 x i8]* @.str.print_i32, i32 0, i32 0), i32 %var_6_value) 
%temp_var_6_5 = call i32 (%struct.__sFILE*, i8*, ...) @fprintf(%struct.__sFILE* %loadfile, i8* getelementptr inbounds ([4 x i8], [4 x i8]* @.str.print_ptr, i32 0, i32 0), i32* %num1) 
%temp_var_6_6 = call i32 (%struct.__sFILE*, i8*, ...) @fprintf(%struct.__sFILE* %loadfile, i8* getelementptr inbounds ([4 x i8], [4 x i8]* @.str.print_int, i64 0, i64 0), i32 20) 
%temp_var_6_7 = call i32 (%struct.__sFILE*, i8*, ...) @fprintf(%struct.__sFILE* %loadfile, i8* getelementptr inbounds ([4 x i8], [4 x i8]* @.str.print_int_space, i64 0, i64 0), i32 5) 
  %call10 = call zeroext i1 @_ZNSt3__1eqIcNS_11char_traitsIcEENS_9allocatorIcEEEEbRKNS_12basic_stringIT_T0_T1_EEPKS6_(%"class.std::__1::basic_string"* nonnull align 8 dereferenceable(24) %tempstr, i8* getelementptr inbounds ([6 x i8], [6 x i8]* @.str, i64 0, i64 0), i8* getelementptr inbounds ([9 x i8], [9 x i8]* @__const_culry.tempstr,i64 0, i64 0), i32 21, i32 14) #8, !dbg !2478 
  br i1 %call10, label %if.then11, label %if.end13, !dbg !2480 

if.then11:                                        ; preds = %if.end 
  call void @llvm.dbg.declare(metadata i32* %num333, metadata !2481, metadata !DIExpression()), !dbg !2483 
  store i32 555555, i32* %num333, align 4, !dbg !2483 
%var_7_value = load i32, i32* %num333, align 4 
%temp_var_7_1 = call i32 (%struct.__sFILE*, i8*, ...) @fprintf(%struct.__sFILE* %loadfile, i8* getelementptr inbounds ([7 x i8], [7 x i8]* @.str.op_store, i32 0, i32 0)) 
%temp_var_7_2 = call i32 (%struct.__sFILE*, i8*, ...) @fprintf(%struct.__sFILE* %loadfile, i8* getelementptr inbounds ([8 x i8], [8 x i8]* @__const_culry.num333, i64 0, i64 0)) 
%temp_var_7_3 = call i32 (%struct.__sFILE*, i8*, ...) @fprintf(%struct.__sFILE* %loadfile, i8* getelementptr inbounds ([5 x i8], [5 x i8]* @.str.i32, i64 0, i64 0)) 
%temp_var_7_4 = call i32 (%struct.__sFILE*, i8*, ...) @fprintf(%struct.__sFILE* %loadfile, i8* getelementptr inbounds ([4 x i8], [4 x i8]* @.str.print_i32, i32 0, i32 0), i32 %var_7_value) 
%temp_var_7_5 = call i32 (%struct.__sFILE*, i8*, ...) @fprintf(%struct.__sFILE* %loadfile, i8* getelementptr inbounds ([4 x i8], [4 x i8]* @.str.print_ptr, i32 0, i32 0), i32* %num333) 
%temp_var_7_6 = call i32 (%struct.__sFILE*, i8*, ...) @fprintf(%struct.__sFILE* %loadfile, i8* getelementptr inbounds ([4 x i8], [4 x i8]* @.str.print_int, i64 0, i64 0), i32 23) 
%temp_var_7_7 = call i32 (%struct.__sFILE*, i8*, ...) @fprintf(%struct.__sFILE* %loadfile, i8* getelementptr inbounds ([4 x i8], [4 x i8]* @.str.print_int_space, i64 0, i64 0), i32 9) 
  %call12 = call nonnull align 1 dereferenceable(1) i8* @_ZNSt3__112basic_stringIcNS_11char_traitsIcEENS_9allocatorIcEEEixEm(%"class.std::__1::basic_string"* %tempstr, i64 555) #8, !dbg !2484 
  store i8 100, i8* %call12, align 1, !dbg !2485 
%var_8_value = load i8, i8* %call12, align 4 
%temp_var_8_1 = call i32 (%struct.__sFILE*, i8*, ...) @fprintf(%struct.__sFILE* %loadfile, i8* getelementptr inbounds ([7 x i8], [7 x i8]* @.str.op_store, i32 0, i32 0)) 
%temp_var_8_2 = call i32 (%struct.__sFILE*, i8*, ...) @fprintf(%struct.__sFILE* %loadfile, i8* getelementptr inbounds ([9 x i8], [9 x i8]* @__const_culry.tempstr, i64 0, i64 0)) 
%temp_var_8_3 = call i32 (%struct.__sFILE*, i8*, ...) @fprintf(%struct.__sFILE* %loadfile, i8* getelementptr inbounds ([8 x i8], [8 x i8]* @.str.string, i64 0, i64 0)) 
%temp_var_8_4 = call i32 (%struct.__sFILE*, i8*, ...) @fprintf(%struct.__sFILE* %loadfile, i8* getelementptr inbounds ([4 x i8], [4 x i8]* @.str.print_int, i64 0, i64 0), i32 555) 
%temp_var_8_5 = call i32 (%struct.__sFILE*, i8*, ...) @fprintf(%struct.__sFILE* %loadfile, i8* getelementptr inbounds ([4 x i8], [4 x i8]* @.str.print_i8, i32 0, i32 0), i8 %var_8_value) 
%temp_var_8_6 = call i32 (%struct.__sFILE*, i8*, ...) @fprintf(%struct.__sFILE* %loadfile, i8* getelementptr inbounds ([4 x i8], [4 x i8]* @.str.print_ptr, i32 0, i32 0), %"class.std::__1::basic_string"* %tempstr) 
%temp_var_8_7 = call i32 (%struct.__sFILE*, i8*, ...) @fprintf(%struct.__sFILE* %loadfile, i8* getelementptr inbounds ([4 x i8], [4 x i8]* @.str.print_int, i64 0, i64 0), i32 24) 
%temp_var_8_8 = call i32 (%struct.__sFILE*, i8*, ...) @fprintf(%struct.__sFILE* %loadfile, i8* getelementptr inbounds ([4 x i8], [4 x i8]* @.str.print_int_space, i64 0, i64 0), i32 18) 
  br label %if.end13, !dbg !2486 

if.end13:                                         ; preds = %if.then11, %if.end 
  %call14 = call nonnull align 1 dereferenceable(1) i8* @_ZNSt3__112basic_stringIcNS_11char_traitsIcEENS_9allocatorIcEEEixEm(%"class.std::__1::basic_string"* %tempstr, i64 7) #8, !dbg !2487 
  store i8 81, i8* %call14, align 1, !dbg !2488 
%var_9_value = load i8, i8* %call14, align 4 
%temp_var_9_1 = call i32 (%struct.__sFILE*, i8*, ...) @fprintf(%struct.__sFILE* %loadfile, i8* getelementptr inbounds ([7 x i8], [7 x i8]* @.str.op_store, i32 0, i32 0)) 
%temp_var_9_2 = call i32 (%struct.__sFILE*, i8*, ...) @fprintf(%struct.__sFILE* %loadfile, i8* getelementptr inbounds ([9 x i8], [9 x i8]* @__const_culry.tempstr, i64 0, i64 0)) 
%temp_var_9_3 = call i32 (%struct.__sFILE*, i8*, ...) @fprintf(%struct.__sFILE* %loadfile, i8* getelementptr inbounds ([8 x i8], [8 x i8]* @.str.string, i64 0, i64 0)) 
%temp_var_9_4 = call i32 (%struct.__sFILE*, i8*, ...) @fprintf(%struct.__sFILE* %loadfile, i8* getelementptr inbounds ([4 x i8], [4 x i8]* @.str.print_int, i64 0, i64 0), i32 7) 
%temp_var_9_5 = call i32 (%struct.__sFILE*, i8*, ...) @fprintf(%struct.__sFILE* %loadfile, i8* getelementptr inbounds ([4 x i8], [4 x i8]* @.str.print_i8, i32 0, i32 0), i8 %var_9_value) 
%temp_var_9_6 = call i32 (%struct.__sFILE*, i8*, ...) @fprintf(%struct.__sFILE* %loadfile, i8* getelementptr inbounds ([4 x i8], [4 x i8]* @.str.print_ptr, i32 0, i32 0), %"class.std::__1::basic_string"* %tempstr) 
%temp_var_9_7 = call i32 (%struct.__sFILE*, i8*, ...) @fprintf(%struct.__sFILE* %loadfile, i8* getelementptr inbounds ([4 x i8], [4 x i8]* @.str.print_int, i64 0, i64 0), i32 27) 
%temp_var_9_8 = call i32 (%struct.__sFILE*, i8*, ...) @fprintf(%struct.__sFILE* %loadfile, i8* getelementptr inbounds ([4 x i8], [4 x i8]* @.str.print_int_space, i64 0, i64 0), i32 12) 
  %call15 = call zeroext i1 @_ZNSt3__1eqIcNS_11char_traitsIcEENS_9allocatorIcEEEEbRKNS_12basic_stringIT_T0_T1_EEPKS6_(%"class.std::__1::basic_string"* nonnull align 8 dereferenceable(24) %tempstr, i8* getelementptr inbounds ([6 x i8], [6 x i8]* @.str.3, i64 0, i64 0), i8* getelementptr inbounds ([9 x i8], [9 x i8]* @__const_culry.tempstr,i64 0, i64 0), i32 28, i32 14) #8, !dbg !2489 
  br i1 %call15, label %if.then16, label %if.end17, !dbg !2491 

if.then16:                                        ; preds = %if.end13 
  br label %if.end17, !dbg !2492 

if.end17:                                         ; preds = %if.then16, %if.end13 
  %call18 = call %"class.std::__1::basic_string"* @_ZNSt3__112basic_stringIcNS_11char_traitsIcEENS_9allocatorIcEEED1Ev(%"class.std::__1::basic_string"* %tempstr), !dbg !2473 
  %4 = load i32, i32* %retval, align 4, !dbg !2473 
%var_10_value = load i32, i32* %retval, align 4 
%temp_var_10_1 = call i32 (%struct.__sFILE*, i8*, ...) @fprintf(%struct.__sFILE* %loadfile, i8* getelementptr inbounds ([6 x i8], [6 x i8]* @.str.op_load, i32 0, i32 0)) 
%temp_var_10_2 = call i32 (%struct.__sFILE*, i8*, ...) @fprintf(%struct.__sFILE* %loadfile, i8* getelementptr inbounds ([8 x i8], [8 x i8]* @__const_culry.retval, i64 0, i64 0)) 
%temp_var_10_3 = call i32 (%struct.__sFILE*, i8*, ...) @fprintf(%struct.__sFILE* %loadfile, i8* getelementptr inbounds ([5 x i8], [5 x i8]* @.str.i32, i64 0, i64 0)) 
%temp_var_10_4 = call i32 (%struct.__sFILE*, i8*, ...) @fprintf(%struct.__sFILE* %loadfile, i8* getelementptr inbounds ([4 x i8], [4 x i8]* @.str.print_i32, i32 0, i32 0), i32 %var_10_value) 
%temp_var_10_5 = call i32 (%struct.__sFILE*, i8*, ...) @fprintf(%struct.__sFILE* %loadfile, i8* getelementptr inbounds ([4 x i8], [4 x i8]* @.str.print_ptr, i32 0, i32 0), i32* %retval) 
%temp_var_10_6 = call i32 (%struct.__sFILE*, i8*, ...) @fprintf(%struct.__sFILE* %loadfile, i8* getelementptr inbounds ([4 x i8], [4 x i8]* @.str.print_int, i64 0, i64 0), i32 32) 
%temp_var_10_7 = call i32 (%struct.__sFILE*, i8*, ...) @fprintf(%struct.__sFILE* %loadfile, i8* getelementptr inbounds ([4 x i8], [4 x i8]* @.str.print_int_space, i64 0, i64 0), i32 1) 
  ret i32 %4, !dbg !2473 

invoke.cont19:                                    ; preds = %lpad 
  br label %eh.resume, !dbg !2473 

eh.resume:                                        ; preds = %invoke.cont19 
  %exn = load i8*, i8** %exn.slot, align 8, !dbg !2473 
  %sel = load i32, i32* %ehselector.slot, align 4, !dbg !2473 
  %lpad.val = insertvalue { i8*, i32 } undef, i8* %exn, 0, !dbg !2473 
  %lpad.val21 = insertvalue { i8*, i32 } %lpad.val, i32 %sel, 1, !dbg !2473 
  resume { i8*, i32 } %lpad.val21, !dbg !2473 

terminate.lpad:                                   ; preds = %lpad 
  %5 = landingpad { i8*, i32 } 
          catch i8* null, !dbg !2473 
  %6 = extractvalue { i8*, i32 } %5, 0, !dbg !2473 
  call void @__clang_call_terminate(i8* %6) #9, !dbg !2473 
  unreachable, !dbg !2473 
} 

; Function Attrs: nofree nosync nounwind readnone speculatable willreturn 
declare void @llvm.dbg.declare(metadata, metadata, metadata) #1 

; Function Attrs: noinline optnone ssp uwtable 
define internal %"class.std::__1::basic_string"* @_ZNSt3__112basic_stringIcNS_11char_traitsIcEENS_9allocatorIcEEEC1INS_9nullptr_tEEEPKc(%"class.std::__1::basic_string"* returned %this, i8* %__s, i8* %__str_name, i32 %__line, i32 %__colnum) unnamed_addr #2 align 2 !dbg !2494 { 
entry: 
%loadfile   = load %struct.__sFILE*, %struct.__sFILE** @file, align 8 
  %this.addr = alloca %"class.std::__1::basic_string"*, align 8 
  %__s.addr = alloca i8*, align 8 
  store %"class.std::__1::basic_string"* %this, %"class.std::__1::basic_string"** %this.addr, align 8 
  call void @llvm.dbg.declare(metadata %"class.std::__1::basic_string"** %this.addr, metadata !2500, metadata !DIExpression()), !dbg !2502 
  store i8* %__s, i8** %__s.addr, align 8 
  call void @llvm.dbg.declare(metadata i8** %__s.addr, metadata !2503, metadata !DIExpression()), !dbg !2504 
  %this1 = load %"class.std::__1::basic_string"*, %"class.std::__1::basic_string"** %this.addr, align 8 
  %0 = load i8*, i8** %__s.addr, align 8, !dbg !2505 
  %call = call %"class.std::__1::basic_string"* @_ZNSt3__112basic_stringIcNS_11char_traitsIcEENS_9allocatorIcEEEC2INS_9nullptr_tEEEPKc(%"class.std::__1::basic_string"* %this1, i8* %0), !dbg !2505 
%var_store = call i32 (%struct.__sFILE*, i8*, ...) @fprintf(%struct.__sFILE* %loadfile, i8* getelementptr inbounds ([7 x i8], [7 x i8]* @.str.op_store, i32 0, i32 0)) 
%var_name = call i32 (%struct.__sFILE*, i8*, ...) @fprintf(%struct.__sFILE* %loadfile, i8* getelementptr inbounds ([3 x i8], [3 x i8]* @.str.print_string_name, i64 0, i64 0), i8* %__str_name) 
%var_type = call i32 (%struct.__sFILE*, i8*, ...) @fprintf(%struct.__sFILE* %loadfile, i8* getelementptr inbounds ([8 x i8], [8 x i8]* @.str.string, i64 0, i64 0)) 
%var_print_stringStart = call i32 (%struct.__sFILE*, i8*, ...) @fprintf(%struct.__sFILE* %loadfile, i8* getelementptr inbounds ([13 x i8], [13 x i8]* @.str.userKeyWord_isStringStart, i32 0, i32 0)) 
%var_string_length = call i64 @_ZNKSt3__112basic_stringIcNS_11char_traitsIcEENS_9allocatorIcEEE6lengthEv_culry(%"class.std::__1::basic_string"* %this) 
%var_value = call i32 (%struct.__sFILE*, i8*, ...) @fprintf(%struct.__sFILE* %loadfile, i8* getelementptr inbounds ([4 x i8], [4 x i8]* @.str.print_string, i64 0, i64 0), i8* %__s) 
%var_print_stringEnd = call i32 (%struct.__sFILE*, i8*, ...) @fprintf(%struct.__sFILE* %loadfile, i8* getelementptr inbounds ([11 x i8], [11 x i8]* @.str.userKeyWord_isStringEnd, i32 0, i32 0)) 
%var_ptr = call i32 (%struct.__sFILE*, i8*, ...) @fprintf(%struct.__sFILE* %loadfile, i8* getelementptr inbounds ([4 x i8], [4 x i8]* @.str.print_ptr, i32 0, i32 0), %"class.std::__1::basic_string"* %this) 
%var_line = call i32 (%struct.__sFILE*, i8*, ...) @fprintf(%struct.__sFILE* %loadfile, i8* getelementptr inbounds ([4 x i8], [4 x i8]* @.str.print_int, i64 0, i64 0), i32 %__line) 
%var_colnum = call i32 (%struct.__sFILE*, i8*, ...) @fprintf(%struct.__sFILE* %loadfile, i8* getelementptr inbounds ([4 x i8], [4 x i8]* @.str.print_int_space, i64 0, i64 0), i32 %__colnum) 
  ret %"class.std::__1::basic_string"* %this1, !dbg !2506 
} 

; Function Attrs: noinline optnone ssp uwtable 
define internal nonnull align 8 dereferenceable(24) %"class.std::__1::basic_string"* @_ZNSt3__112basic_stringIcNS_11char_traitsIcEENS_9allocatorIcEEEaSEPKc(%"class.std::__1::basic_string"* %this, i8* %__s, i8* %__str_name, i32 %__line, i32 %__colnum) #2 align 2 !dbg !2507 { 
entry: 
%loadfile   = load %struct.__sFILE*, %struct.__sFILE** @file, align 8 
  %this.addr = alloca %"class.std::__1::basic_string"*, align 8 
  %__s.addr = alloca i8*, align 8 
  store %"class.std::__1::basic_string"* %this, %"class.std::__1::basic_string"** %this.addr, align 8 
  call void @llvm.dbg.declare(metadata %"class.std::__1::basic_string"** %this.addr, metadata !2508, metadata !DIExpression()), !dbg !2509 
  store i8* %__s, i8** %__s.addr, align 8 
  call void @llvm.dbg.declare(metadata i8** %__s.addr, metadata !2510, metadata !DIExpression()), !dbg !2511 
  %this1 = load %"class.std::__1::basic_string"*, %"class.std::__1::basic_string"** %this.addr, align 8 
  %0 = load i8*, i8** %__s.addr, align 8, !dbg !2512 
  %call = call nonnull align 8 dereferenceable(24) %"class.std::__1::basic_string"* @_ZNSt3__112basic_stringIcNS_11char_traitsIcEENS_9allocatorIcEEE6assignEPKc(%"class.std::__1::basic_string"* %this1, i8* %0), !dbg !2513 
%var_store = call i32 (%struct.__sFILE*, i8*, ...) @fprintf(%struct.__sFILE* %loadfile, i8* getelementptr inbounds ([7 x i8], [7 x i8]* @.str.op_store, i32 0, i32 0)) 
%var_name = call i32 (%struct.__sFILE*, i8*, ...) @fprintf(%struct.__sFILE* %loadfile, i8* getelementptr inbounds ([3 x i8], [3 x i8]* @.str.print_string_name, i64 0, i64 0), i8* %__str_name) 
%var_type = call i32 (%struct.__sFILE*, i8*, ...) @fprintf(%struct.__sFILE* %loadfile, i8* getelementptr inbounds ([8 x i8], [8 x i8]* @.str.string, i64 0, i64 0)) 
%var_print_stringStart = call i32 (%struct.__sFILE*, i8*, ...) @fprintf(%struct.__sFILE* %loadfile, i8* getelementptr inbounds ([13 x i8], [13 x i8]* @.str.userKeyWord_isStringStart, i32 0, i32 0)) 
%var_string_length = call i64 @_ZNKSt3__112basic_stringIcNS_11char_traitsIcEENS_9allocatorIcEEE6lengthEv_culry(%"class.std::__1::basic_string"* %this) 
%var_value = call i32 (%struct.__sFILE*, i8*, ...) @fprintf(%struct.__sFILE* %loadfile, i8* getelementptr inbounds ([4 x i8], [4 x i8]* @.str.print_string, i64 0, i64 0), i8* %__s) 
%var_print_stringEnd = call i32 (%struct.__sFILE*, i8*, ...) @fprintf(%struct.__sFILE* %loadfile, i8* getelementptr inbounds ([11 x i8], [11 x i8]* @.str.userKeyWord_isStringEnd, i32 0, i32 0)) 
%var_ptr = call i32 (%struct.__sFILE*, i8*, ...) @fprintf(%struct.__sFILE* %loadfile, i8* getelementptr inbounds ([4 x i8], [4 x i8]* @.str.print_ptr, i32 0, i32 0), %"class.std::__1::basic_string"* %this) 
%var_line = call i32 (%struct.__sFILE*, i8*, ...) @fprintf(%struct.__sFILE* %loadfile, i8* getelementptr inbounds ([4 x i8], [4 x i8]* @.str.print_int, i64 0, i64 0), i32 %__line) 
%var_colnum = call i32 (%struct.__sFILE*, i8*, ...) @fprintf(%struct.__sFILE* %loadfile, i8* getelementptr inbounds ([4 x i8], [4 x i8]* @.str.print_int_space, i64 0, i64 0), i32 %__colnum) 
  ret %"class.std::__1::basic_string"* %call, !dbg !2514 
} 

declare i32 @__gxx_personality_v0(...) 

; Function Attrs: noinline nounwind optnone ssp uwtable 
define internal nonnull align 1 dereferenceable(1) i8* @_ZNSt3__112basic_stringIcNS_11char_traitsIcEENS_9allocatorIcEEEixEm(%"class.std::__1::basic_string"* %this, i64 %__pos) #3 align 2 !dbg !2515 { 
entry: 
%loadfile   = load %struct.__sFILE*, %struct.__sFILE** @file, align 8 
  %this.addr = alloca %"class.std::__1::basic_string"*, align 8 
  %__pos.addr = alloca i64, align 8 
  store %"class.std::__1::basic_string"* %this, %"class.std::__1::basic_string"** %this.addr, align 8 
  call void @llvm.dbg.declare(metadata %"class.std::__1::basic_string"** %this.addr, metadata !2516, metadata !DIExpression()), !dbg !2517 
  store i64 %__pos, i64* %__pos.addr, align 8 
  call void @llvm.dbg.declare(metadata i64* %__pos.addr, metadata !2518, metadata !DIExpression()), !dbg !2519 
  %this1 = load %"class.std::__1::basic_string"*, %"class.std::__1::basic_string"** %this.addr, align 8 
  %call = call i8* @_ZNSt3__112basic_stringIcNS_11char_traitsIcEENS_9allocatorIcEEE13__get_pointerEv(%"class.std::__1::basic_string"* %this1) #8, !dbg !2520 
  %0 = load i64, i64* %__pos.addr, align 8, !dbg !2521 
  %add.ptr = getelementptr inbounds i8, i8* %call, i64 %0, !dbg !2522 
  ret i8* %add.ptr, !dbg !2523 
} 

; Function Attrs: noinline optnone ssp uwtable 
define linkonce_odr nonnull align 8 dereferenceable(8) %"class.std::__1::basic_ostream"* @_ZNSt3__1lsINS_11char_traitsIcEEEERNS_13basic_ostreamIcT_EES6_PKc(%"class.std::__1::basic_ostream"* nonnull align 8 dereferenceable(8) %__os, i8* %__str) #2 !dbg !2524 { 
entry: 
%loadfile   = load %struct.__sFILE*, %struct.__sFILE** @file, align 8 
  %__os.addr = alloca %"class.std::__1::basic_ostream"*, align 8 
  %__str.addr = alloca i8*, align 8 
  store %"class.std::__1::basic_ostream"* %__os, %"class.std::__1::basic_ostream"** %__os.addr, align 8 
  call void @llvm.dbg.declare(metadata %"class.std::__1::basic_ostream"** %__os.addr, metadata !2528, metadata !DIExpression()), !dbg !2529 
  store i8* %__str, i8** %__str.addr, align 8 
  call void @llvm.dbg.declare(metadata i8** %__str.addr, metadata !2530, metadata !DIExpression()), !dbg !2531 
  %0 = load %"class.std::__1::basic_ostream"*, %"class.std::__1::basic_ostream"** %__os.addr, align 8, !dbg !2532 
  %1 = load i8*, i8** %__str.addr, align 8, !dbg !2533 
  %2 = load i8*, i8** %__str.addr, align 8, !dbg !2534 
  %call = call i64 @_ZNSt3__111char_traitsIcE6lengthEPKc(i8* %2) #8, !dbg !2535 
  %call1 = call nonnull align 8 dereferenceable(8) %"class.std::__1::basic_ostream"* @_ZNSt3__124__put_character_sequenceIcNS_11char_traitsIcEEEERNS_13basic_ostreamIT_T0_EES7_PKS4_m(%"class.std::__1::basic_ostream"* nonnull align 8 dereferenceable(8) %0, i8* %1, i64 %call), !dbg !2536 
  ret %"class.std::__1::basic_ostream"* %call1, !dbg !2537 
} 

; Function Attrs: noinline optnone ssp uwtable 
define linkonce_odr nonnull align 8 dereferenceable(8) %"class.std::__1::basic_ostream"* @_ZNSt3__1lsIcNS_11char_traitsIcEENS_9allocatorIcEEEERNS_13basic_ostreamIT_T0_EES9_RKNS_12basic_stringIS6_S7_T1_EE(%"class.std::__1::basic_ostream"* nonnull align 8 dereferenceable(8) %__os, %"class.std::__1::basic_string"* nonnull align 8 dereferenceable(24) %__str) #2 !dbg !2538 { 
entry: 
%loadfile   = load %struct.__sFILE*, %struct.__sFILE** @file, align 8 
  %__os.addr = alloca %"class.std::__1::basic_ostream"*, align 8 
  %__str.addr = alloca %"class.std::__1::basic_string"*, align 8 
  store %"class.std::__1::basic_ostream"* %__os, %"class.std::__1::basic_ostream"** %__os.addr, align 8 
  call void @llvm.dbg.declare(metadata %"class.std::__1::basic_ostream"** %__os.addr, metadata !2541, metadata !DIExpression()), !dbg !2542 
  store %"class.std::__1::basic_string"* %__str, %"class.std::__1::basic_string"** %__str.addr, align 8 
  call void @llvm.dbg.declare(metadata %"class.std::__1::basic_string"** %__str.addr, metadata !2543, metadata !DIExpression()), !dbg !2544 
  %0 = load %"class.std::__1::basic_ostream"*, %"class.std::__1::basic_ostream"** %__os.addr, align 8, !dbg !2545 
  %1 = load %"class.std::__1::basic_string"*, %"class.std::__1::basic_string"** %__str.addr, align 8, !dbg !2546 
  %call = call i8* @_ZNKSt3__112basic_stringIcNS_11char_traitsIcEENS_9allocatorIcEEE4dataEv(%"class.std::__1::basic_string"* %1) #8, !dbg !2547 
  %2 = load %"class.std::__1::basic_string"*, %"class.std::__1::basic_string"** %__str.addr, align 8, !dbg !2548 
  %call1 = call i64 @_ZNKSt3__112basic_stringIcNS_11char_traitsIcEENS_9allocatorIcEEE4sizeEv(%"class.std::__1::basic_string"* %2) #8, !dbg !2549 
  %call2 = call nonnull align 8 dereferenceable(8) %"class.std::__1::basic_ostream"* @_ZNSt3__124__put_character_sequenceIcNS_11char_traitsIcEEEERNS_13basic_ostreamIT_T0_EES7_PKS4_m(%"class.std::__1::basic_ostream"* nonnull align 8 dereferenceable(8) %0, i8* %call, i64 %call1), !dbg !2550 
  ret %"class.std::__1::basic_ostream"* %call2, !dbg !2551 
} 

; Function Attrs: noinline nounwind optnone ssp uwtable 
define internal zeroext i1 @_ZNSt3__1eqIcNS_11char_traitsIcEENS_9allocatorIcEEEEbRKNS_12basic_stringIT_T0_T1_EEPKS6_(%"class.std::__1::basic_string"* nonnull align 8 dereferenceable(24) %__lhs, i8* %__rhs, i8* %__str_name, i32 %__line, i32 %__colnum) #3 personality i8* bitcast (i32 (...)* @__gxx_personality_v0 to i8*) !dbg !2552 { 
entry: 
%loadfile   = load %struct.__sFILE*, %struct.__sFILE** @file, align 8 
  %retval = alloca i1, align 1 
  %__lhs.addr = alloca %"class.std::__1::basic_string"*, align 8 
  %__rhs.addr = alloca i8*, align 8 
  %__rhs_len = alloca i64, align 8 
  %exn.slot = alloca i8*, align 8 
  %ehselector.slot = alloca i32, align 4 
  store %"class.std::__1::basic_string"* %__lhs, %"class.std::__1::basic_string"** %__lhs.addr, align 8 
  call void @llvm.dbg.declare(metadata %"class.std::__1::basic_string"** %__lhs.addr, metadata !2555, metadata !DIExpression()), !dbg !2556 
  store i8* %__rhs, i8** %__rhs.addr, align 8 
  call void @llvm.dbg.declare(metadata i8** %__rhs.addr, metadata !2557, metadata !DIExpression()), !dbg !2558 
  call void @llvm.dbg.declare(metadata i64* %__rhs_len, metadata !2559, metadata !DIExpression()), !dbg !2560 
  %0 = load i8*, i8** %__rhs.addr, align 8, !dbg !2561 
  %call = call i64 @_ZNSt3__111char_traitsIcE6lengthEPKc(i8* %0) #8, !dbg !2562 
  store i64 %call, i64* %__rhs_len, align 8, !dbg !2560 
  %1 = load i64, i64* %__rhs_len, align 8, !dbg !2563 
  %2 = load %"class.std::__1::basic_string"*, %"class.std::__1::basic_string"** %__lhs.addr, align 8, !dbg !2565 
  %call1 = call i64 @_ZNKSt3__112basic_stringIcNS_11char_traitsIcEENS_9allocatorIcEEE4sizeEv(%"class.std::__1::basic_string"* %2) #8, !dbg !2566 
  %cmp = icmp ne i64 %1, %call1, !dbg !2567 
  br i1 %cmp, label %if.then, label %if.end, !dbg !2568 

if.then:                                          ; preds = %entry 
  store i1 false, i1* %retval, align 1, !dbg !2569 
  br label %return, !dbg !2569 

if.end:                                           ; preds = %entry 
  %3 = load %"class.std::__1::basic_string"*, %"class.std::__1::basic_string"** %__lhs.addr, align 8, !dbg !2570 
  %4 = load i8*, i8** %__rhs.addr, align 8, !dbg !2571 
  %5 = load i64, i64* %__rhs_len, align 8, !dbg !2572 
  %call2 = invoke i32 @_ZNKSt3__112basic_stringIcNS_11char_traitsIcEENS_9allocatorIcEEE7compareEmmPKcm(%"class.std::__1::basic_string"* %3, i64 0, i64 -1, i8* %4, i64 %5) 
          to label %invoke.cont unwind label %lpad, !dbg !2573 

invoke.cont:                                      ; preds = %if.end 
  %cmp3 = icmp eq i32 %call2, 0, !dbg !2574 
  store i1 %cmp3, i1* %retval, align 1, !dbg !2575 
  br label %return, !dbg !2575 

lpad:                                             ; preds = %if.end 
  %6 = landingpad { i8*, i32 } 
          filter [0 x i8*] zeroinitializer, !dbg !2576 
  %7 = extractvalue { i8*, i32 } %6, 0, !dbg !2576 
  store i8* %7, i8** %exn.slot, align 8, !dbg !2576 
  %8 = extractvalue { i8*, i32 } %6, 1, !dbg !2576 
  store i32 %8, i32* %ehselector.slot, align 4, !dbg !2576 
  br label %filter.dispatch, !dbg !2576 

filter.dispatch:                                  ; preds = %lpad 
  %exn = load i8*, i8** %exn.slot, align 8, !dbg !2576 
  call void @__cxa_call_unexpected(i8* %exn) #10, !dbg !2576 
  unreachable, !dbg !2576 

return:                                           ; preds = %invoke.cont, %if.then 
  %9 = load i1, i1* %retval, align 1, !dbg !2576 
%var_store = call i32 (%struct.__sFILE*, i8*, ...) @fprintf(%struct.__sFILE* %loadfile, i8* getelementptr inbounds ([6 x i8], [6 x i8]* @.str.op_load, i32 0, i32 0)) 
%var_name = call i32 (%struct.__sFILE*, i8*, ...) @fprintf(%struct.__sFILE* %loadfile, i8* getelementptr inbounds ([3 x i8], [3 x i8]* @.str.print_string_name, i64 0, i64 0), i8* %__str_name) 
%var_type = call i32 (%struct.__sFILE*, i8*, ...) @fprintf(%struct.__sFILE* %loadfile, i8* getelementptr inbounds ([8 x i8], [8 x i8]* @.str.string, i64 0, i64 0)) 
%var_print_stringStart = call i32 (%struct.__sFILE*, i8*, ...) @fprintf(%struct.__sFILE* %loadfile, i8* getelementptr inbounds ([13 x i8], [13 x i8]* @.str.userKeyWord_isStringStart, i32 0, i32 0)) 
%var_string_length = call i64 @_ZNKSt3__112basic_stringIcNS_11char_traitsIcEENS_9allocatorIcEEE6lengthEv_culry(%"class.std::__1::basic_string"* %__lhs) 
%var_value = call i32 (%struct.__sFILE*, i8*, ...) @fprintf(%struct.__sFILE* %loadfile, i8* getelementptr inbounds ([4 x i8], [4 x i8]* @.str.print_string, i64 0, i64 0), %"class.std::__1::basic_string"* %__lhs) 
%var_print_stringEnd = call i32 (%struct.__sFILE*, i8*, ...) @fprintf(%struct.__sFILE* %loadfile, i8* getelementptr inbounds ([11 x i8], [11 x i8]* @.str.userKeyWord_isStringEnd, i32 0, i32 0)) 
%var_ptr = call i32 (%struct.__sFILE*, i8*, ...) @fprintf(%struct.__sFILE* %loadfile, i8* getelementptr inbounds ([4 x i8], [4 x i8]* @.str.print_ptr, i32 0, i32 0), %"class.std::__1::basic_string"* %__lhs) 
%var_line = call i32 (%struct.__sFILE*, i8*, ...) @fprintf(%struct.__sFILE* %loadfile, i8* getelementptr inbounds ([4 x i8], [4 x i8]* @.str.print_int, i64 0, i64 0), i32 %__line) 
%var_colnum = call i32 (%struct.__sFILE*, i8*, ...) @fprintf(%struct.__sFILE* %loadfile, i8* getelementptr inbounds ([4 x i8], [4 x i8]* @.str.print_int_space, i64 0, i64 0), i32 %__colnum) 
  ret i1 %9, !dbg !2576 
} 

declare %"class.std::__1::basic_string"* @_ZNSt3__112basic_stringIcNS_11char_traitsIcEENS_9allocatorIcEEED1Ev(%"class.std::__1::basic_string"* returned) unnamed_addr #4 

; Function Attrs: noinline noreturn nounwind 
define linkonce_odr hidden void @__clang_call_terminate(i8* %0) #5 { 
  %2 = call i8* @__cxa_begin_catch(i8* %0) #8 
  call void @_ZSt9terminatev() #9 
  unreachable 
} 

declare i8* @__cxa_begin_catch(i8*) 

declare void @_ZSt9terminatev() 

; Function Attrs: noinline optnone ssp uwtable 
define internal %"class.std::__1::basic_string"* @_ZNSt3__112basic_stringIcNS_11char_traitsIcEENS_9allocatorIcEEEC2INS_9nullptr_tEEEPKc(%"class.std::__1::basic_string"* returned %this, i8* %__s) unnamed_addr #2 align 2 !dbg !2577 { 
entry: 
%loadfile   = load %struct.__sFILE*, %struct.__sFILE** @file, align 8 
  %this.addr = alloca %"class.std::__1::basic_string"*, align 8 
  %__s.addr = alloca i8*, align 8 
  %ref.tmp = alloca %"struct.std::__1::__default_init_tag", align 1 
  %ref.tmp2 = alloca %"struct.std::__1::__default_init_tag", align 1 
  store %"class.std::__1::basic_string"* %this, %"class.std::__1::basic_string"** %this.addr, align 8 
  call void @llvm.dbg.declare(metadata %"class.std::__1::basic_string"** %this.addr, metadata !2578, metadata !DIExpression()), !dbg !2579 
  store i8* %__s, i8** %__s.addr, align 8 
  call void @llvm.dbg.declare(metadata i8** %__s.addr, metadata !2580, metadata !DIExpression()), !dbg !2581 
  %this1 = load %"class.std::__1::basic_string"*, %"class.std::__1::basic_string"** %this.addr, align 8 
  %0 = bitcast %"class.std::__1::basic_string"* %this1 to %"class.std::__1::__basic_string_common"*, !dbg !2582 
  %__r_ = getelementptr inbounds %"class.std::__1::basic_string", %"class.std::__1::basic_string"* %this1, i32 0, i32 0, !dbg !2583 
  %call = call %"class.std::__1::__compressed_pair"* @_ZNSt3__117__compressed_pairINS_12basic_stringIcNS_11char_traitsIcEENS_9allocatorIcEEE5__repES5_EC1INS_18__default_init_tagESA_EEOT_OT0_(%"class.std::__1::__compressed_pair"* %__r_, %"struct.std::__1::__default_init_tag"* nonnull align 1 dereferenceable(1) %ref.tmp, %"struct.std::__1::__default_init_tag"* nonnull align 1 dereferenceable(1) %ref.tmp2), !dbg !2583 
  %1 = load i8*, i8** %__s.addr, align 8, !dbg !2584 
  %2 = load i8*, i8** %__s.addr, align 8, !dbg !2586 
  %call3 = call i64 @_ZNSt3__111char_traitsIcE6lengthEPKc(i8* %2) #8, !dbg !2587 
  call void @_ZNSt3__112basic_stringIcNS_11char_traitsIcEENS_9allocatorIcEEE6__initEPKcm(%"class.std::__1::basic_string"* %this1, i8* %1, i64 %call3), !dbg !2588 
  ret %"class.std::__1::basic_string"* %this1, !dbg !2589 
} 

; Function Attrs: noinline optnone ssp uwtable 
define internal %"class.std::__1::__compressed_pair"* @_ZNSt3__117__compressed_pairINS_12basic_stringIcNS_11char_traitsIcEENS_9allocatorIcEEE5__repES5_EC1INS_18__default_init_tagESA_EEOT_OT0_(%"class.std::__1::__compressed_pair"* returned %this, %"struct.std::__1::__default_init_tag"* nonnull align 1 dereferenceable(1) %__t1, %"struct.std::__1::__default_init_tag"* nonnull align 1 dereferenceable(1) %__t2) unnamed_addr #2 align 2 !dbg !2590 { 
entry: 
%loadfile   = load %struct.__sFILE*, %struct.__sFILE** @file, align 8 
  %this.addr = alloca %"class.std::__1::__compressed_pair"*, align 8 
  %__t1.addr = alloca %"struct.std::__1::__default_init_tag"*, align 8 
  %__t2.addr = alloca %"struct.std::__1::__default_init_tag"*, align 8 
  store %"class.std::__1::__compressed_pair"* %this, %"class.std::__1::__compressed_pair"** %this.addr, align 8 
  call void @llvm.dbg.declare(metadata %"class.std::__1::__compressed_pair"** %this.addr, metadata !2598, metadata !DIExpression()), !dbg !2599 
  store %"struct.std::__1::__default_init_tag"* %__t1, %"struct.std::__1::__default_init_tag"** %__t1.addr, align 8 
  call void @llvm.dbg.declare(metadata %"struct.std::__1::__default_init_tag"** %__t1.addr, metadata !2600, metadata !DIExpression()), !dbg !2601 
  store %"struct.std::__1::__default_init_tag"* %__t2, %"struct.std::__1::__default_init_tag"** %__t2.addr, align 8 
  call void @llvm.dbg.declare(metadata %"struct.std::__1::__default_init_tag"** %__t2.addr, metadata !2602, metadata !DIExpression()), !dbg !2603 
  %this1 = load %"class.std::__1::__compressed_pair"*, %"class.std::__1::__compressed_pair"** %this.addr, align 8 
  %0 = load %"struct.std::__1::__default_init_tag"*, %"struct.std::__1::__default_init_tag"** %__t1.addr, align 8, !dbg !2604 
  %1 = load %"struct.std::__1::__default_init_tag"*, %"struct.std::__1::__default_init_tag"** %__t2.addr, align 8, !dbg !2604 
  %call = call %"class.std::__1::__compressed_pair"* @_ZNSt3__117__compressed_pairINS_12basic_stringIcNS_11char_traitsIcEENS_9allocatorIcEEE5__repES5_EC2INS_18__default_init_tagESA_EEOT_OT0_(%"class.std::__1::__compressed_pair"* %this1, %"struct.std::__1::__default_init_tag"* nonnull align 1 dereferenceable(1) %0, %"struct.std::__1::__default_init_tag"* nonnull align 1 dereferenceable(1) %1), !dbg !2604 
  ret %"class.std::__1::__compressed_pair"* %this1, !dbg !2605 
} 

declare void @_ZNSt3__112basic_stringIcNS_11char_traitsIcEENS_9allocatorIcEEE6__initEPKcm(%"class.std::__1::basic_string"*, i8*, i64) #4 

; Function Attrs: noinline nounwind optnone ssp uwtable 
define linkonce_odr i64 @_ZNSt3__111char_traitsIcE6lengthEPKc(i8* %__s) #3 align 2 !dbg !2606 { 
entry: 
%loadfile   = load %struct.__sFILE*, %struct.__sFILE** @file, align 8 
  %__s.addr = alloca i8*, align 8 
  store i8* %__s, i8** %__s.addr, align 8 
  call void @llvm.dbg.declare(metadata i8** %__s.addr, metadata !2607, metadata !DIExpression()), !dbg !2608 
  %0 = load i8*, i8** %__s.addr, align 8, !dbg !2609 
  %call = call i64 @strlen(i8* %0) #8, !dbg !2610 
  ret i64 %call, !dbg !2611 
} 

; Function Attrs: noinline optnone ssp uwtable 
define internal %"class.std::__1::__compressed_pair"* @_ZNSt3__117__compressed_pairINS_12basic_stringIcNS_11char_traitsIcEENS_9allocatorIcEEE5__repES5_EC2INS_18__default_init_tagESA_EEOT_OT0_(%"class.std::__1::__compressed_pair"* returned %this, %"struct.std::__1::__default_init_tag"* nonnull align 1 dereferenceable(1) %__t1, %"struct.std::__1::__default_init_tag"* nonnull align 1 dereferenceable(1) %__t2) unnamed_addr #2 align 2 !dbg !2612 { 
entry: 
%loadfile   = load %struct.__sFILE*, %struct.__sFILE** @file, align 8 
  %this.addr = alloca %"class.std::__1::__compressed_pair"*, align 8 
  %__t1.addr = alloca %"struct.std::__1::__default_init_tag"*, align 8 
  %__t2.addr = alloca %"struct.std::__1::__default_init_tag"*, align 8 
  %agg.tmp = alloca %"struct.std::__1::__default_init_tag", align 1 
  %agg.tmp3 = alloca %"struct.std::__1::__default_init_tag", align 1 
  store %"class.std::__1::__compressed_pair"* %this, %"class.std::__1::__compressed_pair"** %this.addr, align 8 
  call void @llvm.dbg.declare(metadata %"class.std::__1::__compressed_pair"** %this.addr, metadata !2613, metadata !DIExpression()), !dbg !2614 
  store %"struct.std::__1::__default_init_tag"* %__t1, %"struct.std::__1::__default_init_tag"** %__t1.addr, align 8 
  call void @llvm.dbg.declare(metadata %"struct.std::__1::__default_init_tag"** %__t1.addr, metadata !2615, metadata !DIExpression()), !dbg !2616 
  store %"struct.std::__1::__default_init_tag"* %__t2, %"struct.std::__1::__default_init_tag"** %__t2.addr, align 8 
  call void @llvm.dbg.declare(metadata %"struct.std::__1::__default_init_tag"** %__t2.addr, metadata !2617, metadata !DIExpression()), !dbg !2618 
  %this1 = load %"class.std::__1::__compressed_pair"*, %"class.std::__1::__compressed_pair"** %this.addr, align 8 
  %0 = bitcast %"class.std::__1::__compressed_pair"* %this1 to %"struct.std::__1::__compressed_pair_elem"*, !dbg !2619 
  %1 = load %"struct.std::__1::__default_init_tag"*, %"struct.std::__1::__default_init_tag"** %__t1.addr, align 8, !dbg !2620 
  %call = call nonnull align 1 dereferenceable(1) %"struct.std::__1::__default_init_tag"* @_ZNSt3__1L7forwardINS_18__default_init_tagEEEOT_RNS_16remove_referenceIS2_E4typeE(%"struct.std::__1::__default_init_tag"* nonnull align 1 dereferenceable(1) %1) #8, !dbg !2621 
  %call2 = call %"struct.std::__1::__compressed_pair_elem"* @_ZNSt3__122__compressed_pair_elemINS_12basic_stringIcNS_11char_traitsIcEENS_9allocatorIcEEE5__repELi0ELb0EEC2ENS_18__default_init_tagE(%"struct.std::__1::__compressed_pair_elem"* %0), !dbg !2622 
  %2 = bitcast %"class.std::__1::__compressed_pair"* %this1 to %"struct.std::__1::__compressed_pair_elem.0"*, !dbg !2619 
  %3 = load %"struct.std::__1::__default_init_tag"*, %"struct.std::__1::__default_init_tag"** %__t2.addr, align 8, !dbg !2623 
  %call4 = call nonnull align 1 dereferenceable(1) %"struct.std::__1::__default_init_tag"* @_ZNSt3__1L7forwardINS_18__default_init_tagEEEOT_RNS_16remove_referenceIS2_E4typeE(%"struct.std::__1::__default_init_tag"* nonnull align 1 dereferenceable(1) %3) #8, !dbg !2624 
  %call5 = call %"struct.std::__1::__compressed_pair_elem.0"* @_ZNSt3__122__compressed_pair_elemINS_9allocatorIcEELi1ELb1EEC2ENS_18__default_init_tagE(%"struct.std::__1::__compressed_pair_elem.0"* %2), !dbg !2625 
  ret %"class.std::__1::__compressed_pair"* %this1, !dbg !2626 
} 

; Function Attrs: noinline nounwind optnone ssp uwtable 
define internal nonnull align 1 dereferenceable(1) %"struct.std::__1::__default_init_tag"* @_ZNSt3__1L7forwardINS_18__default_init_tagEEEOT_RNS_16remove_referenceIS2_E4typeE(%"struct.std::__1::__default_init_tag"* nonnull align 1 dereferenceable(1) %__t) #3 !dbg !2627 { 
entry: 
%loadfile   = load %struct.__sFILE*, %struct.__sFILE** @file, align 8 
  %__t.addr = alloca %"struct.std::__1::__default_init_tag"*, align 8 
  store %"struct.std::__1::__default_init_tag"* %__t, %"struct.std::__1::__default_init_tag"** %__t.addr, align 8 
  call void @llvm.dbg.declare(metadata %"struct.std::__1::__default_init_tag"** %__t.addr, metadata !2636, metadata !DIExpression()), !dbg !2637 
  %0 = load %"struct.std::__1::__default_init_tag"*, %"struct.std::__1::__default_init_tag"** %__t.addr, align 8, !dbg !2638 
  ret %"struct.std::__1::__default_init_tag"* %0, !dbg !2639 
} 

; Function Attrs: noinline nounwind optnone ssp uwtable 
define internal %"struct.std::__1::__compressed_pair_elem"* @_ZNSt3__122__compressed_pair_elemINS_12basic_stringIcNS_11char_traitsIcEENS_9allocatorIcEEE5__repELi0ELb0EEC2ENS_18__default_init_tagE(%"struct.std::__1::__compressed_pair_elem"* returned %this) unnamed_addr #3 align 2 !dbg !2640 { 
entry: 
%loadfile   = load %struct.__sFILE*, %struct.__sFILE** @file, align 8 
  %0 = alloca %"struct.std::__1::__default_init_tag", align 1 
  %this.addr = alloca %"struct.std::__1::__compressed_pair_elem"*, align 8 
  store %"struct.std::__1::__compressed_pair_elem"* %this, %"struct.std::__1::__compressed_pair_elem"** %this.addr, align 8 
  call void @llvm.dbg.declare(metadata %"struct.std::__1::__compressed_pair_elem"** %this.addr, metadata !2641, metadata !DIExpression()), !dbg !2643 
  call void @llvm.dbg.declare(metadata %"struct.std::__1::__default_init_tag"* %0, metadata !2644, metadata !DIExpression()), !dbg !2645 
  %this1 = load %"struct.std::__1::__compressed_pair_elem"*, %"struct.std::__1::__compressed_pair_elem"** %this.addr, align 8 
  %__value_ = getelementptr inbounds %"struct.std::__1::__compressed_pair_elem", %"struct.std::__1::__compressed_pair_elem"* %this1, i32 0, i32 0, !dbg !2646 
  ret %"struct.std::__1::__compressed_pair_elem"* %this1, !dbg !2647 
} 

; Function Attrs: noinline nounwind optnone ssp uwtable 
define internal %"struct.std::__1::__compressed_pair_elem.0"* @_ZNSt3__122__compressed_pair_elemINS_9allocatorIcEELi1ELb1EEC2ENS_18__default_init_tagE(%"struct.std::__1::__compressed_pair_elem.0"* returned %this) unnamed_addr #3 align 2 !dbg !2648 { 
entry: 
%loadfile   = load %struct.__sFILE*, %struct.__sFILE** @file, align 8 
  %0 = alloca %"struct.std::__1::__default_init_tag", align 1 
  %this.addr = alloca %"struct.std::__1::__compressed_pair_elem.0"*, align 8 
  store %"struct.std::__1::__compressed_pair_elem.0"* %this, %"struct.std::__1::__compressed_pair_elem.0"** %this.addr, align 8 
  call void @llvm.dbg.declare(metadata %"struct.std::__1::__compressed_pair_elem.0"** %this.addr, metadata !2649, metadata !DIExpression()), !dbg !2651 
  call void @llvm.dbg.declare(metadata %"struct.std::__1::__default_init_tag"* %0, metadata !2652, metadata !DIExpression()), !dbg !2653 
  %this1 = load %"struct.std::__1::__compressed_pair_elem.0"*, %"struct.std::__1::__compressed_pair_elem.0"** %this.addr, align 8 
  %1 = bitcast %"struct.std::__1::__compressed_pair_elem.0"* %this1 to %"class.std::__1::allocator"*, !dbg !2654 
  %call = call %"class.std::__1::allocator"* @_ZNSt3__19allocatorIcEC2Ev(%"class.std::__1::allocator"* %1) #8, !dbg !2655 
  ret %"struct.std::__1::__compressed_pair_elem.0"* %this1, !dbg !2656 
} 

; Function Attrs: noinline nounwind optnone ssp uwtable 
define internal %"class.std::__1::allocator"* @_ZNSt3__19allocatorIcEC2Ev(%"class.std::__1::allocator"* returned %this) unnamed_addr #3 align 2 !dbg !2657 { 
entry: 
%loadfile   = load %struct.__sFILE*, %struct.__sFILE** @file, align 8 
  %this.addr = alloca %"class.std::__1::allocator"*, align 8 
  store %"class.std::__1::allocator"* %this, %"class.std::__1::allocator"** %this.addr, align 8 
  call void @llvm.dbg.declare(metadata %"class.std::__1::allocator"** %this.addr, metadata !2658, metadata !DIExpression()), !dbg !2660 
  %this1 = load %"class.std::__1::allocator"*, %"class.std::__1::allocator"** %this.addr, align 8 
  %0 = bitcast %"class.std::__1::allocator"* %this1 to %"struct.std::__1::__non_trivial_if"*, !dbg !2661 
  %call = call %"struct.std::__1::__non_trivial_if"* @_ZNSt3__116__non_trivial_ifILb1ENS_9allocatorIcEEEC2Ev(%"struct.std::__1::__non_trivial_if"* %0) #8, !dbg !2662 
  ret %"class.std::__1::allocator"* %this1, !dbg !2661 
} 

; Function Attrs: noinline nounwind optnone ssp uwtable 
define internal %"struct.std::__1::__non_trivial_if"* @_ZNSt3__116__non_trivial_ifILb1ENS_9allocatorIcEEEC2Ev(%"struct.std::__1::__non_trivial_if"* returned %this) unnamed_addr #3 align 2 !dbg !2663 { 
entry: 
%loadfile   = load %struct.__sFILE*, %struct.__sFILE** @file, align 8 
  %this.addr = alloca %"struct.std::__1::__non_trivial_if"*, align 8 
  store %"struct.std::__1::__non_trivial_if"* %this, %"struct.std::__1::__non_trivial_if"** %this.addr, align 8 
  call void @llvm.dbg.declare(metadata %"struct.std::__1::__non_trivial_if"** %this.addr, metadata !2664, metadata !DIExpression()), !dbg !2666 
  %this1 = load %"struct.std::__1::__non_trivial_if"*, %"struct.std::__1::__non_trivial_if"** %this.addr, align 8 
  ret %"struct.std::__1::__non_trivial_if"* %this1, !dbg !2667 
} 

; Function Attrs: nounwind 
declare i64 @strlen(i8*) #6 

declare nonnull align 8 dereferenceable(24) %"class.std::__1::basic_string"* @_ZNSt3__112basic_stringIcNS_11char_traitsIcEENS_9allocatorIcEEE6assignEPKc(%"class.std::__1::basic_string"*, i8*) #4 

; Function Attrs: noinline nounwind optnone ssp uwtable 
define internal i8* @_ZNSt3__112basic_stringIcNS_11char_traitsIcEENS_9allocatorIcEEE13__get_pointerEv(%"class.std::__1::basic_string"* %this) #3 align 2 !dbg !2668 { 
entry: 
%loadfile   = load %struct.__sFILE*, %struct.__sFILE** @file, align 8 
  %this.addr = alloca %"class.std::__1::basic_string"*, align 8 
  store %"class.std::__1::basic_string"* %this, %"class.std::__1::basic_string"** %this.addr, align 8 
  call void @llvm.dbg.declare(metadata %"class.std::__1::basic_string"** %this.addr, metadata !2669, metadata !DIExpression()), !dbg !2670 
  %this1 = load %"class.std::__1::basic_string"*, %"class.std::__1::basic_string"** %this.addr, align 8 
  %call = call zeroext i1 @_ZNKSt3__112basic_stringIcNS_11char_traitsIcEENS_9allocatorIcEEE9__is_longEv(%"class.std::__1::basic_string"* %this1) #8, !dbg !2671 
  br i1 %call, label %cond.true, label %cond.false, !dbg !2671 

cond.true:                                        ; preds = %entry 
  %call2 = call i8* @_ZNSt3__112basic_stringIcNS_11char_traitsIcEENS_9allocatorIcEEE18__get_long_pointerEv(%"class.std::__1::basic_string"* %this1) #8, !dbg !2672 
  br label %cond.end, !dbg !2671 

cond.false:                                       ; preds = %entry 
  %call3 = call i8* @_ZNSt3__112basic_stringIcNS_11char_traitsIcEENS_9allocatorIcEEE19__get_short_pointerEv(%"class.std::__1::basic_string"* %this1) #8, !dbg !2673 
  br label %cond.end, !dbg !2671 

cond.end:                                         ; preds = %cond.false, %cond.true 
  %cond = phi i8* [ %call2, %cond.true ], [ %call3, %cond.false ], !dbg !2671 
  ret i8* %cond, !dbg !2674 
} 

; Function Attrs: noinline nounwind optnone ssp uwtable 
define internal zeroext i1 @_ZNKSt3__112basic_stringIcNS_11char_traitsIcEENS_9allocatorIcEEE9__is_longEv(%"class.std::__1::basic_string"* %this) #3 align 2 !dbg !2675 { 
entry: 
%loadfile   = load %struct.__sFILE*, %struct.__sFILE** @file, align 8 
  %this.addr = alloca %"class.std::__1::basic_string"*, align 8 
  store %"class.std::__1::basic_string"* %this, %"class.std::__1::basic_string"** %this.addr, align 8 
  call void @llvm.dbg.declare(metadata %"class.std::__1::basic_string"** %this.addr, metadata !2676, metadata !DIExpression()), !dbg !2678 
  %this1 = load %"class.std::__1::basic_string"*, %"class.std::__1::basic_string"** %this.addr, align 8 
  %__r_ = getelementptr inbounds %"class.std::__1::basic_string", %"class.std::__1::basic_string"* %this1, i32 0, i32 0, !dbg !2679 
  %call = call nonnull align 8 dereferenceable(24) %"struct.std::__1::basic_string<char>::__rep"* @_ZNKSt3__117__compressed_pairINS_12basic_stringIcNS_11char_traitsIcEENS_9allocatorIcEEE5__repES5_E5firstEv(%"class.std::__1::__compressed_pair"* %__r_) #8, !dbg !2680 
  %0 = getelementptr inbounds %"struct.std::__1::basic_string<char>::__rep", %"struct.std::__1::basic_string<char>::__rep"* %call, i32 0, i32 0, !dbg !2681 
  %__s = bitcast %union.anon* %0 to %"struct.std::__1::basic_string<char>::__short"*, !dbg !2681 
  %1 = getelementptr inbounds %"struct.std::__1::basic_string<char>::__short", %"struct.std::__1::basic_string<char>::__short"* %__s, i32 0, i32 1, !dbg !2682 
  %__size_ = getelementptr inbounds %struct.anon, %struct.anon* %1, i32 0, i32 0, !dbg !2682 
  %2 = load i8, i8* %__size_, align 1, !dbg !2682 
  %conv = zext i8 %2 to i64, !dbg !2679 
  %and = and i64 %conv, 128, !dbg !2683 
  %tobool = icmp ne i64 %and, 0, !dbg !2679 
  ret i1 %tobool, !dbg !2684 
} 

; Function Attrs: noinline nounwind optnone ssp uwtable 
define internal i8* @_ZNSt3__112basic_stringIcNS_11char_traitsIcEENS_9allocatorIcEEE18__get_long_pointerEv(%"class.std::__1::basic_string"* %this) #3 align 2 !dbg !2685 { 
entry: 
%loadfile   = load %struct.__sFILE*, %struct.__sFILE** @file, align 8 
  %this.addr = alloca %"class.std::__1::basic_string"*, align 8 
  store %"class.std::__1::basic_string"* %this, %"class.std::__1::basic_string"** %this.addr, align 8 
  call void @llvm.dbg.declare(metadata %"class.std::__1::basic_string"** %this.addr, metadata !2686, metadata !DIExpression()), !dbg !2687 
  %this1 = load %"class.std::__1::basic_string"*, %"class.std::__1::basic_string"** %this.addr, align 8 
  %__r_ = getelementptr inbounds %"class.std::__1::basic_string", %"class.std::__1::basic_string"* %this1, i32 0, i32 0, !dbg !2688 
  %call = call nonnull align 8 dereferenceable(24) %"struct.std::__1::basic_string<char>::__rep"* @_ZNSt3__117__compressed_pairINS_12basic_stringIcNS_11char_traitsIcEENS_9allocatorIcEEE5__repES5_E5firstEv(%"class.std::__1::__compressed_pair"* %__r_) #8, !dbg !2689 
  %0 = getelementptr inbounds %"struct.std::__1::basic_string<char>::__rep", %"struct.std::__1::basic_string<char>::__rep"* %call, i32 0, i32 0, !dbg !2690 
  %__l = bitcast %union.anon* %0 to %"struct.std::__1::basic_string<char>::__long"*, !dbg !2690 
  %__data_ = getelementptr inbounds %"struct.std::__1::basic_string<char>::__long", %"struct.std::__1::basic_string<char>::__long"* %__l, i32 0, i32 0, !dbg !2691 
  %1 = load i8*, i8** %__data_, align 8, !dbg !2691 
  ret i8* %1, !dbg !2692 
} 

; Function Attrs: noinline nounwind optnone ssp uwtable 
define internal i8* @_ZNSt3__112basic_stringIcNS_11char_traitsIcEENS_9allocatorIcEEE19__get_short_pointerEv(%"class.std::__1::basic_string"* %this) #3 align 2 !dbg !2693 { 
entry: 
%loadfile   = load %struct.__sFILE*, %struct.__sFILE** @file, align 8 
  %this.addr = alloca %"class.std::__1::basic_string"*, align 8 
  store %"class.std::__1::basic_string"* %this, %"class.std::__1::basic_string"** %this.addr, align 8 
  call void @llvm.dbg.declare(metadata %"class.std::__1::basic_string"** %this.addr, metadata !2694, metadata !DIExpression()), !dbg !2695 
  %this1 = load %"class.std::__1::basic_string"*, %"class.std::__1::basic_string"** %this.addr, align 8 
  %__r_ = getelementptr inbounds %"class.std::__1::basic_string", %"class.std::__1::basic_string"* %this1, i32 0, i32 0, !dbg !2696 
  %call = call nonnull align 8 dereferenceable(24) %"struct.std::__1::basic_string<char>::__rep"* @_ZNSt3__117__compressed_pairINS_12basic_stringIcNS_11char_traitsIcEENS_9allocatorIcEEE5__repES5_E5firstEv(%"class.std::__1::__compressed_pair"* %__r_) #8, !dbg !2697 
  %0 = getelementptr inbounds %"struct.std::__1::basic_string<char>::__rep", %"struct.std::__1::basic_string<char>::__rep"* %call, i32 0, i32 0, !dbg !2698 
  %__s = bitcast %union.anon* %0 to %"struct.std::__1::basic_string<char>::__short"*, !dbg !2698 
  %__data_ = getelementptr inbounds %"struct.std::__1::basic_string<char>::__short", %"struct.std::__1::basic_string<char>::__short"* %__s, i32 0, i32 0, !dbg !2699 
  %arrayidx = getelementptr inbounds [23 x i8], [23 x i8]* %__data_, i64 0, i64 0, !dbg !2696 
  %call2 = call i8* @_ZNSt3__114pointer_traitsIPcE10pointer_toERc(i8* nonnull align 1 dereferenceable(1) %arrayidx) #8, !dbg !2700 
  ret i8* %call2, !dbg !2701 
} 

; Function Attrs: noinline nounwind optnone ssp uwtable 
define internal nonnull align 8 dereferenceable(24) %"struct.std::__1::basic_string<char>::__rep"* @_ZNKSt3__117__compressed_pairINS_12basic_stringIcNS_11char_traitsIcEENS_9allocatorIcEEE5__repES5_E5firstEv(%"class.std::__1::__compressed_pair"* %this) #3 align 2 !dbg !2702 { 
entry: 
%loadfile   = load %struct.__sFILE*, %struct.__sFILE** @file, align 8 
  %this.addr = alloca %"class.std::__1::__compressed_pair"*, align 8 
  store %"class.std::__1::__compressed_pair"* %this, %"class.std::__1::__compressed_pair"** %this.addr, align 8 
  call void @llvm.dbg.declare(metadata %"class.std::__1::__compressed_pair"** %this.addr, metadata !2703, metadata !DIExpression()), !dbg !2705 
  %this1 = load %"class.std::__1::__compressed_pair"*, %"class.std::__1::__compressed_pair"** %this.addr, align 8 
  %0 = bitcast %"class.std::__1::__compressed_pair"* %this1 to %"struct.std::__1::__compressed_pair_elem"*, !dbg !2706 
  %call = call nonnull align 8 dereferenceable(24) %"struct.std::__1::basic_string<char>::__rep"* @_ZNKSt3__122__compressed_pair_elemINS_12basic_stringIcNS_11char_traitsIcEENS_9allocatorIcEEE5__repELi0ELb0EE5__getEv(%"struct.std::__1::__compressed_pair_elem"* %0) #8, !dbg !2707 
  ret %"struct.std::__1::basic_string<char>::__rep"* %call, !dbg !2708 
} 

; Function Attrs: noinline nounwind optnone ssp uwtable 
define internal nonnull align 8 dereferenceable(24) %"struct.std::__1::basic_string<char>::__rep"* @_ZNKSt3__122__compressed_pair_elemINS_12basic_stringIcNS_11char_traitsIcEENS_9allocatorIcEEE5__repELi0ELb0EE5__getEv(%"struct.std::__1::__compressed_pair_elem"* %this) #3 align 2 !dbg !2709 { 
entry: 
%loadfile   = load %struct.__sFILE*, %struct.__sFILE** @file, align 8 
  %this.addr = alloca %"struct.std::__1::__compressed_pair_elem"*, align 8 
  store %"struct.std::__1::__compressed_pair_elem"* %this, %"struct.std::__1::__compressed_pair_elem"** %this.addr, align 8 
  call void @llvm.dbg.declare(metadata %"struct.std::__1::__compressed_pair_elem"** %this.addr, metadata !2710, metadata !DIExpression()), !dbg !2712 
  %this1 = load %"struct.std::__1::__compressed_pair_elem"*, %"struct.std::__1::__compressed_pair_elem"** %this.addr, align 8 
  %__value_ = getelementptr inbounds %"struct.std::__1::__compressed_pair_elem", %"struct.std::__1::__compressed_pair_elem"* %this1, i32 0, i32 0, !dbg !2713 
  ret %"struct.std::__1::basic_string<char>::__rep"* %__value_, !dbg !2714 
} 

; Function Attrs: noinline nounwind optnone ssp uwtable 
define internal nonnull align 8 dereferenceable(24) %"struct.std::__1::basic_string<char>::__rep"* @_ZNSt3__117__compressed_pairINS_12basic_stringIcNS_11char_traitsIcEENS_9allocatorIcEEE5__repES5_E5firstEv(%"class.std::__1::__compressed_pair"* %this) #3 align 2 !dbg !2715 { 
entry: 
%loadfile   = load %struct.__sFILE*, %struct.__sFILE** @file, align 8 
  %this.addr = alloca %"class.std::__1::__compressed_pair"*, align 8 
  store %"class.std::__1::__compressed_pair"* %this, %"class.std::__1::__compressed_pair"** %this.addr, align 8 
  call void @llvm.dbg.declare(metadata %"class.std::__1::__compressed_pair"** %this.addr, metadata !2716, metadata !DIExpression()), !dbg !2717 
  %this1 = load %"class.std::__1::__compressed_pair"*, %"class.std::__1::__compressed_pair"** %this.addr, align 8 
  %0 = bitcast %"class.std::__1::__compressed_pair"* %this1 to %"struct.std::__1::__compressed_pair_elem"*, !dbg !2718 
  %call = call nonnull align 8 dereferenceable(24) %"struct.std::__1::basic_string<char>::__rep"* @_ZNSt3__122__compressed_pair_elemINS_12basic_stringIcNS_11char_traitsIcEENS_9allocatorIcEEE5__repELi0ELb0EE5__getEv(%"struct.std::__1::__compressed_pair_elem"* %0) #8, !dbg !2719 
  ret %"struct.std::__1::basic_string<char>::__rep"* %call, !dbg !2720 
} 

; Function Attrs: noinline nounwind optnone ssp uwtable 
define internal nonnull align 8 dereferenceable(24) %"struct.std::__1::basic_string<char>::__rep"* @_ZNSt3__122__compressed_pair_elemINS_12basic_stringIcNS_11char_traitsIcEENS_9allocatorIcEEE5__repELi0ELb0EE5__getEv(%"struct.std::__1::__compressed_pair_elem"* %this) #3 align 2 !dbg !2721 { 
entry: 
%loadfile   = load %struct.__sFILE*, %struct.__sFILE** @file, align 8 
  %this.addr = alloca %"struct.std::__1::__compressed_pair_elem"*, align 8 
  store %"struct.std::__1::__compressed_pair_elem"* %this, %"struct.std::__1::__compressed_pair_elem"** %this.addr, align 8 
  call void @llvm.dbg.declare(metadata %"struct.std::__1::__compressed_pair_elem"** %this.addr, metadata !2722, metadata !DIExpression()), !dbg !2723 
  %this1 = load %"struct.std::__1::__compressed_pair_elem"*, %"struct.std::__1::__compressed_pair_elem"** %this.addr, align 8 
  %__value_ = getelementptr inbounds %"struct.std::__1::__compressed_pair_elem", %"struct.std::__1::__compressed_pair_elem"* %this1, i32 0, i32 0, !dbg !2724 
  ret %"struct.std::__1::basic_string<char>::__rep"* %__value_, !dbg !2725 
} 

; Function Attrs: noinline nounwind optnone ssp uwtable 
define internal i8* @_ZNSt3__114pointer_traitsIPcE10pointer_toERc(i8* nonnull align 1 dereferenceable(1) %__r) #3 align 2 !dbg !2726 { 
entry: 
%loadfile   = load %struct.__sFILE*, %struct.__sFILE** @file, align 8 
  %__r.addr = alloca i8*, align 8 
  store i8* %__r, i8** %__r.addr, align 8 
  call void @llvm.dbg.declare(metadata i8** %__r.addr, metadata !2743, metadata !DIExpression()), !dbg !2744 
  %0 = load i8*, i8** %__r.addr, align 8, !dbg !2745 
  %call = call i8* @_ZNSt3__1L9addressofIcEEPT_RS1_(i8* nonnull align 1 dereferenceable(1) %0) #8, !dbg !2746 
  ret i8* %call, !dbg !2747 
} 

; Function Attrs: noinline nounwind optnone ssp uwtable 
define internal i8* @_ZNSt3__1L9addressofIcEEPT_RS1_(i8* nonnull align 1 dereferenceable(1) %__x) #3 !dbg !2748 { 
entry: 
%loadfile   = load %struct.__sFILE*, %struct.__sFILE** @file, align 8 
  %__x.addr = alloca i8*, align 8 
  store i8* %__x, i8** %__x.addr, align 8 
  call void @llvm.dbg.declare(metadata i8** %__x.addr, metadata !2752, metadata !DIExpression()), !dbg !2753 
  %0 = load i8*, i8** %__x.addr, align 8, !dbg !2754 
  ret i8* %0, !dbg !2755 
} 

; Function Attrs: noinline optnone ssp uwtable 
define linkonce_odr nonnull align 8 dereferenceable(8) %"class.std::__1::basic_ostream"* @_ZNSt3__124__put_character_sequenceIcNS_11char_traitsIcEEEERNS_13basic_ostreamIT_T0_EES7_PKS4_m(%"class.std::__1::basic_ostream"* nonnull align 8 dereferenceable(8) %__os, i8* %__str, i64 %__len) #2 personality i8* bitcast (i32 (...)* @__gxx_personality_v0 to i8*) !dbg !1154 { 
entry: 
%loadfile   = load %struct.__sFILE*, %struct.__sFILE** @file, align 8 
  %__os.addr = alloca %"class.std::__1::basic_ostream"*, align 8 
  %__str.addr = alloca i8*, align 8 
  %__len.addr = alloca i64, align 8 
  %__s = alloca %"class.std::__1::basic_ostream<char>::sentry", align 8 
  %exn.slot = alloca i8*, align 8 
  %ehselector.slot = alloca i32, align 4 
  %ref.tmp = alloca %"class.std::__1::ostreambuf_iterator", align 8 
  %agg.tmp = alloca %"class.std::__1::ostreambuf_iterator", align 8 
  store %"class.std::__1::basic_ostream"* %__os, %"class.std::__1::basic_ostream"** %__os.addr, align 8 
  call void @llvm.dbg.declare(metadata %"class.std::__1::basic_ostream"** %__os.addr, metadata !2756, metadata !DIExpression()), !dbg !2757 
  store i8* %__str, i8** %__str.addr, align 8 
  call void @llvm.dbg.declare(metadata i8** %__str.addr, metadata !2758, metadata !DIExpression()), !dbg !2759 
  store i64 %__len, i64* %__len.addr, align 8 
  call void @llvm.dbg.declare(metadata i64* %__len.addr, metadata !2760, metadata !DIExpression()), !dbg !2761 
  call void @llvm.dbg.declare(metadata %"class.std::__1::basic_ostream<char>::sentry"* %__s, metadata !2762, metadata !DIExpression()), !dbg !2788 
  %0 = load %"class.std::__1::basic_ostream"*, %"class.std::__1::basic_ostream"** %__os.addr, align 8, !dbg !2789 
  %call = invoke %"class.std::__1::basic_ostream<char>::sentry"* @_ZNSt3__113basic_ostreamIcNS_11char_traitsIcEEE6sentryC1ERS3_(%"class.std::__1::basic_ostream<char>::sentry"* %__s, %"class.std::__1::basic_ostream"* nonnull align 8 dereferenceable(8) %0) 
          to label %invoke.cont unwind label %lpad, !dbg !2788 

invoke.cont:                                      ; preds = %entry 
  %call3 = invoke zeroext i1 @_ZNKSt3__113basic_ostreamIcNS_11char_traitsIcEEE6sentrycvbEv(%"class.std::__1::basic_ostream<char>::sentry"* %__s) 
          to label %invoke.cont2 unwind label %lpad1, !dbg !2790 

invoke.cont2:                                     ; preds = %invoke.cont 
  br i1 %call3, label %if.then, label %if.end29, !dbg !2792 

if.then:                                          ; preds = %invoke.cont2 
  %1 = load %"class.std::__1::basic_ostream"*, %"class.std::__1::basic_ostream"** %__os.addr, align 8, !dbg !2793 
  %call4 = call %"class.std::__1::ostreambuf_iterator"* @_ZNSt3__119ostreambuf_iteratorIcNS_11char_traitsIcEEEC1ERNS_13basic_ostreamIcS2_EE(%"class.std::__1::ostreambuf_iterator"* %agg.tmp, %"class.std::__1::basic_ostream"* nonnull align 8 dereferenceable(8) %1) #8, !dbg !2796 
  %2 = load i8*, i8** %__str.addr, align 8, !dbg !2797 
  %3 = load %"class.std::__1::basic_ostream"*, %"class.std::__1::basic_ostream"** %__os.addr, align 8, !dbg !2798 
  %4 = bitcast %"class.std::__1::basic_ostream"* %3 to i8**, !dbg !2798 
  %vtable = load i8*, i8** %4, align 8, !dbg !2798 
  %vbase.offset.ptr = getelementptr i8, i8* %vtable, i64 -24, !dbg !2798 
  %5 = bitcast i8* %vbase.offset.ptr to i64*, !dbg !2798 
  %vbase.offset = load i64, i64* %5, align 8, !dbg !2798 
  %6 = bitcast %"class.std::__1::basic_ostream"* %3 to i8*, !dbg !2798 
  %add.ptr = getelementptr inbounds i8, i8* %6, i64 %vbase.offset, !dbg !2798 
  %7 = bitcast i8* %add.ptr to %"class.std::__1::ios_base"*, !dbg !2798 
  %call6 = invoke i32 @_ZNKSt3__18ios_base5flagsEv(%"class.std::__1::ios_base"* %7) 
          to label %invoke.cont5 unwind label %lpad1, !dbg !2799 

invoke.cont5:                                     ; preds = %if.then 
  %and = and i32 %call6, 176, !dbg !2800 
  %cmp = icmp eq i32 %and, 32, !dbg !2801 
  br i1 %cmp, label %cond.true, label %cond.false, !dbg !2802 

cond.true:                                        ; preds = %invoke.cont5 
  %8 = load i8*, i8** %__str.addr, align 8, !dbg !2803 
  %9 = load i64, i64* %__len.addr, align 8, !dbg !2804 
  %add.ptr7 = getelementptr inbounds i8, i8* %8, i64 %9, !dbg !2805 
  br label %cond.end, !dbg !2802 

cond.false:                                       ; preds = %invoke.cont5 
  %10 = load i8*, i8** %__str.addr, align 8, !dbg !2806 
  br label %cond.end, !dbg !2802 

cond.end:                                         ; preds = %cond.false, %cond.true 
  %cond = phi i8* [ %add.ptr7, %cond.true ], [ %10, %cond.false ], !dbg !2802 
  %11 = load i8*, i8** %__str.addr, align 8, !dbg !2807 
  %12 = load i64, i64* %__len.addr, align 8, !dbg !2808 
  %add.ptr8 = getelementptr inbounds i8, i8* %11, i64 %12, !dbg !2809 
  %13 = load %"class.std::__1::basic_ostream"*, %"class.std::__1::basic_ostream"** %__os.addr, align 8, !dbg !2810 
  %14 = bitcast %"class.std::__1::basic_ostream"* %13 to i8**, !dbg !2810 
  %vtable9 = load i8*, i8** %14, align 8, !dbg !2810 
  %vbase.offset.ptr10 = getelementptr i8, i8* %vtable9, i64 -24, !dbg !2810 
  %15 = bitcast i8* %vbase.offset.ptr10 to i64*, !dbg !2810 
  %vbase.offset11 = load i64, i64* %15, align 8, !dbg !2810 
  %16 = bitcast %"class.std::__1::basic_ostream"* %13 to i8*, !dbg !2810 
  %add.ptr12 = getelementptr inbounds i8, i8* %16, i64 %vbase.offset11, !dbg !2810 
  %17 = bitcast i8* %add.ptr12 to %"class.std::__1::ios_base"*, !dbg !2810 
  %18 = load %"class.std::__1::basic_ostream"*, %"class.std::__1::basic_ostream"** %__os.addr, align 8, !dbg !2811 
  %19 = bitcast %"class.std::__1::basic_ostream"* %18 to i8**, !dbg !2811 
  %vtable13 = load i8*, i8** %19, align 8, !dbg !2811 
  %vbase.offset.ptr14 = getelementptr i8, i8* %vtable13, i64 -24, !dbg !2811 
  %20 = bitcast i8* %vbase.offset.ptr14 to i64*, !dbg !2811 
  %vbase.offset15 = load i64, i64* %20, align 8, !dbg !2811 
  %21 = bitcast %"class.std::__1::basic_ostream"* %18 to i8*, !dbg !2811 
  %add.ptr16 = getelementptr inbounds i8, i8* %21, i64 %vbase.offset15, !dbg !2811 
  %22 = bitcast i8* %add.ptr16 to %"class.std::__1::basic_ios"*, !dbg !2811 
  %call18 = invoke signext i8 @_ZNKSt3__19basic_iosIcNS_11char_traitsIcEEE4fillEv(%"class.std::__1::basic_ios"* %22) 
          to label %invoke.cont17 unwind label %lpad1, !dbg !2812 

invoke.cont17:                                    ; preds = %cond.end 
  %coerce.dive = getelementptr inbounds %"class.std::__1::ostreambuf_iterator", %"class.std::__1::ostreambuf_iterator"* %agg.tmp, i32 0, i32 0, !dbg !2813 
  %23 = load %"class.std::__1::basic_streambuf"*, %"class.std::__1::basic_streambuf"** %coerce.dive, align 8, !dbg !2813 
  %coerce.val.pi = ptrtoint %"class.std::__1::basic_streambuf"* %23 to i64, !dbg !2813 
  %call20 = invoke i64 @_ZNSt3__116__pad_and_outputIcNS_11char_traitsIcEEEENS_19ostreambuf_iteratorIT_T0_EES6_PKS4_S8_S8_RNS_8ios_baseES4_(i64 %coerce.val.pi, i8* %2, i8* %cond, i8* %add.ptr8, %"class.std::__1::ios_base"* nonnull align 8 dereferenceable(136) %17, i8 signext %call18) 
          to label %invoke.cont19 unwind label %lpad1, !dbg !2813 

invoke.cont19:                                    ; preds = %invoke.cont17 
  %coerce.dive21 = getelementptr inbounds %"class.std::__1::ostreambuf_iterator", %"class.std::__1::ostreambuf_iterator"* %ref.tmp, i32 0, i32 0, !dbg !2813 
  %coerce.val.ip = inttoptr i64 %call20 to %"class.std::__1::basic_streambuf"*, !dbg !2813 
  store %"class.std::__1::basic_streambuf"* %coerce.val.ip, %"class.std::__1::basic_streambuf"** %coerce.dive21, align 8, !dbg !2813 
  %call22 = call zeroext i1 @_ZNKSt3__119ostreambuf_iteratorIcNS_11char_traitsIcEEE6failedEv(%"class.std::__1::ostreambuf_iterator"* %ref.tmp) #8, !dbg !2814 
  br i1 %call22, label %if.then23, label %if.end, !dbg !2815 

if.then23:                                        ; preds = %invoke.cont19 
  %24 = load %"class.std::__1::basic_ostream"*, %"class.std::__1::basic_ostream"** %__os.addr, align 8, !dbg !2816 
  %25 = bitcast %"class.std::__1::basic_ostream"* %24 to i8**, !dbg !2816 
  %vtable24 = load i8*, i8** %25, align 8, !dbg !2816 
  %vbase.offset.ptr25 = getelementptr i8, i8* %vtable24, i64 -24, !dbg !2816 
  %26 = bitcast i8* %vbase.offset.ptr25 to i64*, !dbg !2816 
  %vbase.offset26 = load i64, i64* %26, align 8, !dbg !2816 
  %27 = bitcast %"class.std::__1::basic_ostream"* %24 to i8*, !dbg !2816 
  %add.ptr27 = getelementptr inbounds i8, i8* %27, i64 %vbase.offset26, !dbg !2816 
  %28 = bitcast i8* %add.ptr27 to %"class.std::__1::basic_ios"*, !dbg !2816 
  invoke void @_ZNSt3__19basic_iosIcNS_11char_traitsIcEEE8setstateEj(%"class.std::__1::basic_ios"* %28, i32 5) 
          to label %invoke.cont28 unwind label %lpad1, !dbg !2817 

invoke.cont28:                                    ; preds = %if.then23 
  br label %if.end, !dbg !2816 

lpad:                                             ; preds = %if.end29, %entry 
  %29 = landingpad { i8*, i32 } 
          catch i8* null, !dbg !2818 
  %30 = extractvalue { i8*, i32 } %29, 0, !dbg !2818 
  store i8* %30, i8** %exn.slot, align 8, !dbg !2818 
  %31 = extractvalue { i8*, i32 } %29, 1, !dbg !2818 
  store i32 %31, i32* %ehselector.slot, align 4, !dbg !2818 
  br label %catch, !dbg !2818 

lpad1:                                            ; preds = %if.then23, %invoke.cont17, %cond.end, %if.then, %invoke.cont 
  %32 = landingpad { i8*, i32 } 
          catch i8* null, !dbg !2819 
  %33 = extractvalue { i8*, i32 } %32, 0, !dbg !2819 
  store i8* %33, i8** %exn.slot, align 8, !dbg !2819 
  %34 = extractvalue { i8*, i32 } %32, 1, !dbg !2819 
  store i32 %34, i32* %ehselector.slot, align 4, !dbg !2819 
  %call33 = invoke %"class.std::__1::basic_ostream<char>::sentry"* @_ZNSt3__113basic_ostreamIcNS_11char_traitsIcEEE6sentryD1Ev(%"class.std::__1::basic_ostream<char>::sentry"* %__s) 
          to label %invoke.cont32 unwind label %terminate.lpad, !dbg !2820 

if.end:                                           ; preds = %invoke.cont28, %invoke.cont19 
  br label %if.end29, !dbg !2821 

if.end29:                                         ; preds = %if.end, %invoke.cont2 
  %call31 = invoke %"class.std::__1::basic_ostream<char>::sentry"* @_ZNSt3__113basic_ostreamIcNS_11char_traitsIcEEE6sentryD1Ev(%"class.std::__1::basic_ostream<char>::sentry"* %__s) 
          to label %invoke.cont30 unwind label %lpad, !dbg !2820 

invoke.cont30:                                    ; preds = %if.end29 
  br label %try.cont, !dbg !2822 

invoke.cont32:                                    ; preds = %lpad1 
  br label %catch, !dbg !2820 

catch:                                            ; preds = %invoke.cont32, %lpad 
  %exn = load i8*, i8** %exn.slot, align 8, !dbg !2822 
  %35 = call i8* @__cxa_begin_catch(i8* %exn) #8, !dbg !2822 
  %36 = load %"class.std::__1::basic_ostream"*, %"class.std::__1::basic_ostream"** %__os.addr, align 8, !dbg !2823 
  %37 = bitcast %"class.std::__1::basic_ostream"* %36 to i8**, !dbg !2823 
  %vtable34 = load i8*, i8** %37, align 8, !dbg !2823 
  %vbase.offset.ptr35 = getelementptr i8, i8* %vtable34, i64 -24, !dbg !2823 
  %38 = bitcast i8* %vbase.offset.ptr35 to i64*, !dbg !2823 
  %vbase.offset36 = load i64, i64* %38, align 8, !dbg !2823 
  %39 = bitcast %"class.std::__1::basic_ostream"* %36 to i8*, !dbg !2823 
  %add.ptr37 = getelementptr inbounds i8, i8* %39, i64 %vbase.offset36, !dbg !2823 
  %40 = bitcast i8* %add.ptr37 to %"class.std::__1::ios_base"*, !dbg !2823 
  invoke void @_ZNSt3__18ios_base33__set_badbit_and_consider_rethrowEv(%"class.std::__1::ios_base"* %40) 
          to label %invoke.cont39 unwind label %lpad38, !dbg !2825 

invoke.cont39:                                    ; preds = %catch 
  call void @__cxa_end_catch(), !dbg !2826 
  br label %try.cont, !dbg !2826 

try.cont:                                         ; preds = %invoke.cont39, %invoke.cont30 
  %41 = load %"class.std::__1::basic_ostream"*, %"class.std::__1::basic_ostream"** %__os.addr, align 8, !dbg !2827 
  ret %"class.std::__1::basic_ostream"* %41, !dbg !2828 

lpad38:                                           ; preds = %catch 
  %42 = landingpad { i8*, i32 } 
          cleanup, !dbg !2829 
  %43 = extractvalue { i8*, i32 } %42, 0, !dbg !2829 
  store i8* %43, i8** %exn.slot, align 8, !dbg !2829 
  %44 = extractvalue { i8*, i32 } %42, 1, !dbg !2829 
  store i32 %44, i32* %ehselector.slot, align 4, !dbg !2829 
  invoke void @__cxa_end_catch() 
          to label %invoke.cont40 unwind label %terminate.lpad, !dbg !2826 

invoke.cont40:                                    ; preds = %lpad38 
  br label %eh.resume, !dbg !2826 

eh.resume:                                        ; preds = %invoke.cont40 
  %exn41 = load i8*, i8** %exn.slot, align 8, !dbg !2826 
  %sel = load i32, i32* %ehselector.slot, align 4, !dbg !2826 
  %lpad.val = insertvalue { i8*, i32 } undef, i8* %exn41, 0, !dbg !2826 
  %lpad.val42 = insertvalue { i8*, i32 } %lpad.val, i32 %sel, 1, !dbg !2826 
  resume { i8*, i32 } %lpad.val42, !dbg !2826 

terminate.lpad:                                   ; preds = %lpad38, %lpad1 
  %45 = landingpad { i8*, i32 } 
          catch i8* null, !dbg !2820 
  %46 = extractvalue { i8*, i32 } %45, 0, !dbg !2820 
  call void @__clang_call_terminate(i8* %46) #9, !dbg !2820 
  unreachable, !dbg !2820 
} 

; Function Attrs: noinline nounwind optnone ssp uwtable 
define internal i8* @_ZNKSt3__112basic_stringIcNS_11char_traitsIcEENS_9allocatorIcEEE4dataEv(%"class.std::__1::basic_string"* %this) #3 align 2 !dbg !2830 { 
entry: 
%loadfile   = load %struct.__sFILE*, %struct.__sFILE** @file, align 8 
  %this.addr = alloca %"class.std::__1::basic_string"*, align 8 
  store %"class.std::__1::basic_string"* %this, %"class.std::__1::basic_string"** %this.addr, align 8 
  call void @llvm.dbg.declare(metadata %"class.std::__1::basic_string"** %this.addr, metadata !2831, metadata !DIExpression()), !dbg !2832 
  %this1 = load %"class.std::__1::basic_string"*, %"class.std::__1::basic_string"** %this.addr, align 8 
  %call = call i8* @_ZNKSt3__112basic_stringIcNS_11char_traitsIcEENS_9allocatorIcEEE13__get_pointerEv(%"class.std::__1::basic_string"* %this1) #8, !dbg !2833 
  %call2 = call i8* @_ZNSt3__1L12__to_addressIKcEEPT_S3_(i8* %call) #8, !dbg !2834 
  ret i8* %call2, !dbg !2835 
} 

; Function Attrs: noinline nounwind optnone ssp uwtable 
define internal i64 @_ZNKSt3__112basic_stringIcNS_11char_traitsIcEENS_9allocatorIcEEE4sizeEv(%"class.std::__1::basic_string"* %this) #3 align 2 !dbg !2836 { 
entry: 
%loadfile   = load %struct.__sFILE*, %struct.__sFILE** @file, align 8 
  %this.addr = alloca %"class.std::__1::basic_string"*, align 8 
  store %"class.std::__1::basic_string"* %this, %"class.std::__1::basic_string"** %this.addr, align 8 
  call void @llvm.dbg.declare(metadata %"class.std::__1::basic_string"** %this.addr, metadata !2837, metadata !DIExpression()), !dbg !2838 
  %this1 = load %"class.std::__1::basic_string"*, %"class.std::__1::basic_string"** %this.addr, align 8 
  %call = call zeroext i1 @_ZNKSt3__112basic_stringIcNS_11char_traitsIcEENS_9allocatorIcEEE9__is_longEv(%"class.std::__1::basic_string"* %this1) #8, !dbg !2839 
  br i1 %call, label %cond.true, label %cond.false, !dbg !2839 

cond.true:                                        ; preds = %entry 
  %call2 = call i64 @_ZNKSt3__112basic_stringIcNS_11char_traitsIcEENS_9allocatorIcEEE15__get_long_sizeEv(%"class.std::__1::basic_string"* %this1) #8, !dbg !2840 
  br label %cond.end, !dbg !2839 

cond.false:                                       ; preds = %entry 
  %call3 = call i64 @_ZNKSt3__112basic_stringIcNS_11char_traitsIcEENS_9allocatorIcEEE16__get_short_sizeEv(%"class.std::__1::basic_string"* %this1) #8, !dbg !2841 
  br label %cond.end, !dbg !2839 

cond.end:                                         ; preds = %cond.false, %cond.true 
  %cond = phi i64 [ %call2, %cond.true ], [ %call3, %cond.false ], !dbg !2839 
  ret i64 %cond, !dbg !2842 
} 

declare %"class.std::__1::basic_ostream<char>::sentry"* @_ZNSt3__113basic_ostreamIcNS_11char_traitsIcEEE6sentryC1ERS3_(%"class.std::__1::basic_ostream<char>::sentry"* returned, %"class.std::__1::basic_ostream"* nonnull align 8 dereferenceable(8)) unnamed_addr #4 

; Function Attrs: noinline nounwind optnone ssp uwtable 
define internal zeroext i1 @_ZNKSt3__113basic_ostreamIcNS_11char_traitsIcEEE6sentrycvbEv(%"class.std::__1::basic_ostream<char>::sentry"* %this) #3 align 2 !dbg !2843 { 
entry: 
%loadfile   = load %struct.__sFILE*, %struct.__sFILE** @file, align 8 
  %this.addr = alloca %"class.std::__1::basic_ostream<char>::sentry"*, align 8 
  store %"class.std::__1::basic_ostream<char>::sentry"* %this, %"class.std::__1::basic_ostream<char>::sentry"** %this.addr, align 8 
  call void @llvm.dbg.declare(metadata %"class.std::__1::basic_ostream<char>::sentry"** %this.addr, metadata !2844, metadata !DIExpression()), !dbg !2846 
  %this1 = load %"class.std::__1::basic_ostream<char>::sentry"*, %"class.std::__1::basic_ostream<char>::sentry"** %this.addr, align 8 
  %__ok_ = getelementptr inbounds %"class.std::__1::basic_ostream<char>::sentry", %"class.std::__1::basic_ostream<char>::sentry"* %this1, i32 0, i32 0, !dbg !2847 
  %0 = load i8, i8* %__ok_, align 8, !dbg !2847 
  %tobool = trunc i8 %0 to i1, !dbg !2847 
  ret i1 %tobool, !dbg !2848 
} 

; Function Attrs: noinline optnone ssp uwtable 
define linkonce_odr hidden i64 @_ZNSt3__116__pad_and_outputIcNS_11char_traitsIcEEEENS_19ostreambuf_iteratorIT_T0_EES6_PKS4_S8_S8_RNS_8ios_baseES4_(i64 %__s.coerce, i8* %__ob, i8* %__op, i8* %__oe, %"class.std::__1::ios_base"* nonnull align 8 dereferenceable(136) %__iob, i8 signext %__fl) #2 personality i8* bitcast (i32 (...)* @__gxx_personality_v0 to i8*) !dbg !2849 { 
entry: 
%loadfile   = load %struct.__sFILE*, %struct.__sFILE** @file, align 8 
  %retval = alloca %"class.std::__1::ostreambuf_iterator", align 8 
  %__s = alloca %"class.std::__1::ostreambuf_iterator", align 8 
  %__ob.addr = alloca i8*, align 8 
  %__op.addr = alloca i8*, align 8 
  %__oe.addr = alloca i8*, align 8 
  %__iob.addr = alloca %"class.std::__1::ios_base"*, align 8 
  %__fl.addr = alloca i8, align 1 
  %ref.tmp = alloca %"struct.std::__1::nullptr_t", align 8 
  %__sz = alloca i64, align 8 
  %__ns = alloca i64, align 8 
  %__np = alloca i64, align 8 
  %ref.tmp17 = alloca %"struct.std::__1::nullptr_t", align 8 
  %__sp = alloca %"class.std::__1::basic_string", align 8 
  %exn.slot = alloca i8*, align 8 
  %ehselector.slot = alloca i32, align 4 
  %ref.tmp33 = alloca %"struct.std::__1::nullptr_t", align 8 
  %cleanup.dest.slot = alloca i32, align 4 
  %ref.tmp55 = alloca %"struct.std::__1::nullptr_t", align 8 
  %coerce.dive = getelementptr inbounds %"class.std::__1::ostreambuf_iterator", %"class.std::__1::ostreambuf_iterator"* %__s, i32 0, i32 0 
  %coerce.val.ip = inttoptr i64 %__s.coerce to %"class.std::__1::basic_streambuf"* 
  store %"class.std::__1::basic_streambuf"* %coerce.val.ip, %"class.std::__1::basic_streambuf"** %coerce.dive, align 8 
  call void @llvm.dbg.declare(metadata %"class.std::__1::ostreambuf_iterator"* %__s, metadata !2853, metadata !DIExpression()), !dbg !2854 
  store i8* %__ob, i8** %__ob.addr, align 8 
  call void @llvm.dbg.declare(metadata i8** %__ob.addr, metadata !2855, metadata !DIExpression()), !dbg !2856 
  store i8* %__op, i8** %__op.addr, align 8 
  call void @llvm.dbg.declare(metadata i8** %__op.addr, metadata !2857, metadata !DIExpression()), !dbg !2858 
  store i8* %__oe, i8** %__oe.addr, align 8 
  call void @llvm.dbg.declare(metadata i8** %__oe.addr, metadata !2859, metadata !DIExpression()), !dbg !2860 
  store %"class.std::__1::ios_base"* %__iob, %"class.std::__1::ios_base"** %__iob.addr, align 8 
  call void @llvm.dbg.declare(metadata %"class.std::__1::ios_base"** %__iob.addr, metadata !2861, metadata !DIExpression()), !dbg !2862 
  store i8 %__fl, i8* %__fl.addr, align 1 
  call void @llvm.dbg.declare(metadata i8* %__fl.addr, metadata !2863, metadata !DIExpression()), !dbg !2864 
  %__sbuf_ = getelementptr inbounds %"class.std::__1::ostreambuf_iterator", %"class.std::__1::ostreambuf_iterator"* %__s, i32 0, i32 0, !dbg !2865 
  %0 = load %"class.std::__1::basic_streambuf"*, %"class.std::__1::basic_streambuf"** %__sbuf_, align 8, !dbg !2865 
  %call = call i64 @_ZNSt3__1L15__get_nullptr_tEv(), !dbg !2867 
  %coerce.dive1 = getelementptr inbounds %"struct.std::__1::nullptr_t", %"struct.std::__1::nullptr_t"* %ref.tmp, i32 0, i32 0, !dbg !2867 
  %coerce.val.ip2 = inttoptr i64 %call to i8*, !dbg !2867 
  store i8* %coerce.val.ip2, i8** %coerce.dive1, align 8, !dbg !2867 
  %call3 = call %"class.std::__1::basic_streambuf"* @_ZNKSt3__19nullptr_tcvPT_INS_15basic_streambufIcNS_11char_traitsIcEEEEEEv(%"struct.std::__1::nullptr_t"* %ref.tmp), !dbg !2867 
  %cmp = icmp eq %"class.std::__1::basic_streambuf"* %0, %call3, !dbg !2868 
  br i1 %cmp, label %if.then, label %if.end, !dbg !2869 

if.then:                                          ; preds = %entry 
  %1 = bitcast %"class.std::__1::ostreambuf_iterator"* %retval to i8*, !dbg !2870 
  %2 = bitcast %"class.std::__1::ostreambuf_iterator"* %__s to i8*, !dbg !2870 
  call void @llvm.memcpy.p0i8.p0i8.i64(i8* align 8 %1, i8* align 8 %2, i64 8, i1 false), !dbg !2870 
  br label %return, !dbg !2871 

if.end:                                           ; preds = %entry 
  call void @llvm.dbg.declare(metadata i64* %__sz, metadata !2872, metadata !DIExpression()), !dbg !2873 
  %3 = load i8*, i8** %__oe.addr, align 8, !dbg !2874 
  %4 = load i8*, i8** %__ob.addr, align 8, !dbg !2875 
  %sub.ptr.lhs.cast = ptrtoint i8* %3 to i64, !dbg !2876 
  %sub.ptr.rhs.cast = ptrtoint i8* %4 to i64, !dbg !2876 
  %sub.ptr.sub = sub i64 %sub.ptr.lhs.cast, %sub.ptr.rhs.cast, !dbg !2876 
  store i64 %sub.ptr.sub, i64* %__sz, align 8, !dbg !2873 
  call void @llvm.dbg.declare(metadata i64* %__ns, metadata !2877, metadata !DIExpression()), !dbg !2878 
  %5 = load %"class.std::__1::ios_base"*, %"class.std::__1::ios_base"** %__iob.addr, align 8, !dbg !2879 
  %call4 = call i64 @_ZNKSt3__18ios_base5widthEv(%"class.std::__1::ios_base"* %5), !dbg !2880 
  store i64 %call4, i64* %__ns, align 8, !dbg !2878 
  %6 = load i64, i64* %__ns, align 8, !dbg !2881 
  %7 = load i64, i64* %__sz, align 8, !dbg !2883 
  %cmp5 = icmp sgt i64 %6, %7, !dbg !2884 
  br i1 %cmp5, label %if.then6, label %if.else, !dbg !2885 

if.then6:                                         ; preds = %if.end 
  %8 = load i64, i64* %__sz, align 8, !dbg !2886 
  %9 = load i64, i64* %__ns, align 8, !dbg !2887 
  %sub = sub nsw i64 %9, %8, !dbg !2887 
  store i64 %sub, i64* %__ns, align 8, !dbg !2887 
  br label %if.end7, !dbg !2888 

if.else:                                          ; preds = %if.end 
  store i64 0, i64* %__ns, align 8, !dbg !2889 
  br label %if.end7 

if.end7:                                          ; preds = %if.else, %if.then6 
  call void @llvm.dbg.declare(metadata i64* %__np, metadata !2890, metadata !DIExpression()), !dbg !2891 
  %10 = load i8*, i8** %__op.addr, align 8, !dbg !2892 
  %11 = load i8*, i8** %__ob.addr, align 8, !dbg !2893 
  %sub.ptr.lhs.cast8 = ptrtoint i8* %10 to i64, !dbg !2894 
  %sub.ptr.rhs.cast9 = ptrtoint i8* %11 to i64, !dbg !2894 
  %sub.ptr.sub10 = sub i64 %sub.ptr.lhs.cast8, %sub.ptr.rhs.cast9, !dbg !2894 
  store i64 %sub.ptr.sub10, i64* %__np, align 8, !dbg !2891 
  %12 = load i64, i64* %__np, align 8, !dbg !2895 
  %cmp11 = icmp sgt i64 %12, 0, !dbg !2897 
  br i1 %cmp11, label %if.then12, label %if.end24, !dbg !2898 

if.then12:                                        ; preds = %if.end7 
  %__sbuf_13 = getelementptr inbounds %"class.std::__1::ostreambuf_iterator", %"class.std::__1::ostreambuf_iterator"* %__s, i32 0, i32 0, !dbg !2899 
  %13 = load %"class.std::__1::basic_streambuf"*, %"class.std::__1::basic_streambuf"** %__sbuf_13, align 8, !dbg !2899 
  %14 = load i8*, i8** %__ob.addr, align 8, !dbg !2902 
  %15 = load i64, i64* %__np, align 8, !dbg !2903 
  %call14 = call i64 @_ZNSt3__115basic_streambufIcNS_11char_traitsIcEEE5sputnEPKcl(%"class.std::__1::basic_streambuf"* %13, i8* %14, i64 %15), !dbg !2904 
  %16 = load i64, i64* %__np, align 8, !dbg !2905 
  %cmp15 = icmp ne i64 %call14, %16, !dbg !2906 
  br i1 %cmp15, label %if.then16, label %if.end23, !dbg !2907 

if.then16:                                        ; preds = %if.then12 
  %call18 = call i64 @_ZNSt3__1L15__get_nullptr_tEv(), !dbg !2908 
  %coerce.dive19 = getelementptr inbounds %"struct.std::__1::nullptr_t", %"struct.std::__1::nullptr_t"* %ref.tmp17, i32 0, i32 0, !dbg !2908 
  %coerce.val.ip20 = inttoptr i64 %call18 to i8*, !dbg !2908 
  store i8* %coerce.val.ip20, i8** %coerce.dive19, align 8, !dbg !2908 
  %call21 = call %"class.std::__1::basic_streambuf"* @_ZNKSt3__19nullptr_tcvPT_INS_15basic_streambufIcNS_11char_traitsIcEEEEEEv(%"struct.std::__1::nullptr_t"* %ref.tmp17), !dbg !2908 
  %__sbuf_22 = getelementptr inbounds %"class.std::__1::ostreambuf_iterator", %"class.std::__1::ostreambuf_iterator"* %__s, i32 0, i32 0, !dbg !2910 
  store %"class.std::__1::basic_streambuf"* %call21, %"class.std::__1::basic_streambuf"** %__sbuf_22, align 8, !dbg !2911 
  %17 = bitcast %"class.std::__1::ostreambuf_iterator"* %retval to i8*, !dbg !2912 
  %18 = bitcast %"class.std::__1::ostreambuf_iterator"* %__s to i8*, !dbg !2912 
  call void @llvm.memcpy.p0i8.p0i8.i64(i8* align 8 %17, i8* align 8 %18, i64 8, i1 false), !dbg !2912 
  br label %return, !dbg !2913 

if.end23:                                         ; preds = %if.then12 
  br label %if.end24, !dbg !2914 

if.end24:                                         ; preds = %if.end23, %if.end7 
  %19 = load i64, i64* %__ns, align 8, !dbg !2915 
  %cmp25 = icmp sgt i64 %19, 0, !dbg !2917 
  br i1 %cmp25, label %if.then26, label %if.end45, !dbg !2918 

if.then26:                                        ; preds = %if.end24 
  call void @llvm.dbg.declare(metadata %"class.std::__1::basic_string"* %__sp, metadata !2919, metadata !DIExpression()), !dbg !2921 
  %20 = load i64, i64* %__ns, align 8, !dbg !2922 
  %21 = load i8, i8* %__fl.addr, align 1, !dbg !2923 
  %call27 = call %"class.std::__1::basic_string"* @_ZNSt3__112basic_stringIcNS_11char_traitsIcEENS_9allocatorIcEEEC1Emc(%"class.std::__1::basic_string"* %__sp, i64 %20, i8 signext %21), !dbg !2921 
  %__sbuf_28 = getelementptr inbounds %"class.std::__1::ostreambuf_iterator", %"class.std::__1::ostreambuf_iterator"* %__s, i32 0, i32 0, !dbg !2924 
  %22 = load %"class.std::__1::basic_streambuf"*, %"class.std::__1::basic_streambuf"** %__sbuf_28, align 8, !dbg !2924 
  %call29 = call i8* @_ZNKSt3__112basic_stringIcNS_11char_traitsIcEENS_9allocatorIcEEE4dataEv(%"class.std::__1::basic_string"* %__sp) #8, !dbg !2926 
  %23 = load i64, i64* %__ns, align 8, !dbg !2927 
  %call30 = invoke i64 @_ZNSt3__115basic_streambufIcNS_11char_traitsIcEEE5sputnEPKcl(%"class.std::__1::basic_streambuf"* %22, i8* %call29, i64 %23) 
          to label %invoke.cont unwind label %lpad, !dbg !2928 

invoke.cont:                                      ; preds = %if.then26 
  %24 = load i64, i64* %__ns, align 8, !dbg !2929 
  %cmp31 = icmp ne i64 %call30, %24, !dbg !2930 
  br i1 %cmp31, label %if.then32, label %if.end41, !dbg !2931 

if.then32:                                        ; preds = %invoke.cont 
  %call35 = invoke i64 @_ZNSt3__1L15__get_nullptr_tEv() 
          to label %invoke.cont34 unwind label %lpad, !dbg !2932 

invoke.cont34:                                    ; preds = %if.then32 
  %coerce.dive36 = getelementptr inbounds %"struct.std::__1::nullptr_t", %"struct.std::__1::nullptr_t"* %ref.tmp33, i32 0, i32 0, !dbg !2932 
  %coerce.val.ip37 = inttoptr i64 %call35 to i8*, !dbg !2932 
  store i8* %coerce.val.ip37, i8** %coerce.dive36, align 8, !dbg !2932 
  %call39 = invoke %"class.std::__1::basic_streambuf"* @_ZNKSt3__19nullptr_tcvPT_INS_15basic_streambufIcNS_11char_traitsIcEEEEEEv(%"struct.std::__1::nullptr_t"* %ref.tmp33) 
          to label %invoke.cont38 unwind label %lpad, !dbg !2932 

invoke.cont38:                                    ; preds = %invoke.cont34 
  %__sbuf_40 = getelementptr inbounds %"class.std::__1::ostreambuf_iterator", %"class.std::__1::ostreambuf_iterator"* %__s, i32 0, i32 0, !dbg !2934 
  store %"class.std::__1::basic_streambuf"* %call39, %"class.std::__1::basic_streambuf"** %__sbuf_40, align 8, !dbg !2935 
  %25 = bitcast %"class.std::__1::ostreambuf_iterator"* %retval to i8*, !dbg !2936 
  %26 = bitcast %"class.std::__1::ostreambuf_iterator"* %__s to i8*, !dbg !2936 
  call void @llvm.memcpy.p0i8.p0i8.i64(i8* align 8 %25, i8* align 8 %26, i64 8, i1 false), !dbg !2936 
  store i32 1, i32* %cleanup.dest.slot, align 4 
  br label %cleanup, !dbg !2937 

lpad:                                             ; preds = %invoke.cont34, %if.then32, %if.then26 
  %27 = landingpad { i8*, i32 } 
          cleanup, !dbg !2938 
  %28 = extractvalue { i8*, i32 } %27, 0, !dbg !2938 
  store i8* %28, i8** %exn.slot, align 8, !dbg !2938 
  %29 = extractvalue { i8*, i32 } %27, 1, !dbg !2938 
  store i32 %29, i32* %ehselector.slot, align 4, !dbg !2938 
  %call44 = invoke %"class.std::__1::basic_string"* @_ZNSt3__112basic_stringIcNS_11char_traitsIcEENS_9allocatorIcEEED1Ev(%"class.std::__1::basic_string"* %__sp) 
          to label %invoke.cont43 unwind label %terminate.lpad, !dbg !2939 

if.end41:                                         ; preds = %invoke.cont 
  store i32 0, i32* %cleanup.dest.slot, align 4, !dbg !2939 
  br label %cleanup, !dbg !2939 

cleanup:                                          ; preds = %if.end41, %invoke.cont38 
  %call42 = call %"class.std::__1::basic_string"* @_ZNSt3__112basic_stringIcNS_11char_traitsIcEENS_9allocatorIcEEED1Ev(%"class.std::__1::basic_string"* %__sp), !dbg !2939 
  %cleanup.dest = load i32, i32* %cleanup.dest.slot, align 4 
  switch i32 %cleanup.dest, label %unreachable [ 
    i32 0, label %cleanup.cont 
    i32 1, label %return 
  ] 

cleanup.cont:                                     ; preds = %cleanup 
  br label %if.end45, !dbg !2940 

invoke.cont43:                                    ; preds = %lpad 
  br label %eh.resume, !dbg !2939 

if.end45:                                         ; preds = %cleanup.cont, %if.end24 
  %30 = load i8*, i8** %__oe.addr, align 8, !dbg !2941 
  %31 = load i8*, i8** %__op.addr, align 8, !dbg !2942 
  %sub.ptr.lhs.cast46 = ptrtoint i8* %30 to i64, !dbg !2943 
  %sub.ptr.rhs.cast47 = ptrtoint i8* %31 to i64, !dbg !2943 
  %sub.ptr.sub48 = sub i64 %sub.ptr.lhs.cast46, %sub.ptr.rhs.cast47, !dbg !2943 
  store i64 %sub.ptr.sub48, i64* %__np, align 8, !dbg !2944 
  %32 = load i64, i64* %__np, align 8, !dbg !2945 
  %cmp49 = icmp sgt i64 %32, 0, !dbg !2947 
  br i1 %cmp49, label %if.then50, label %if.end62, !dbg !2948 

if.then50:                                        ; preds = %if.end45 
  %__sbuf_51 = getelementptr inbounds %"class.std::__1::ostreambuf_iterator", %"class.std::__1::ostreambuf_iterator"* %__s, i32 0, i32 0, !dbg !2949 
  %33 = load %"class.std::__1::basic_streambuf"*, %"class.std::__1::basic_streambuf"** %__sbuf_51, align 8, !dbg !2949 
  %34 = load i8*, i8** %__op.addr, align 8, !dbg !2952 
  %35 = load i64, i64* %__np, align 8, !dbg !2953 
  %call52 = call i64 @_ZNSt3__115basic_streambufIcNS_11char_traitsIcEEE5sputnEPKcl(%"class.std::__1::basic_streambuf"* %33, i8* %34, i64 %35), !dbg !2954 
  %36 = load i64, i64* %__np, align 8, !dbg !2955 
  %cmp53 = icmp ne i64 %call52, %36, !dbg !2956 
  br i1 %cmp53, label %if.then54, label %if.end61, !dbg !2957 

if.then54:                                        ; preds = %if.then50 
  %call56 = call i64 @_ZNSt3__1L15__get_nullptr_tEv(), !dbg !2958 
  %coerce.dive57 = getelementptr inbounds %"struct.std::__1::nullptr_t", %"struct.std::__1::nullptr_t"* %ref.tmp55, i32 0, i32 0, !dbg !2958 
  %coerce.val.ip58 = inttoptr i64 %call56 to i8*, !dbg !2958 
  store i8* %coerce.val.ip58, i8** %coerce.dive57, align 8, !dbg !2958 
  %call59 = call %"class.std::__1::basic_streambuf"* @_ZNKSt3__19nullptr_tcvPT_INS_15basic_streambufIcNS_11char_traitsIcEEEEEEv(%"struct.std::__1::nullptr_t"* %ref.tmp55), !dbg !2958 
  %__sbuf_60 = getelementptr inbounds %"class.std::__1::ostreambuf_iterator", %"class.std::__1::ostreambuf_iterator"* %__s, i32 0, i32 0, !dbg !2960 
  store %"class.std::__1::basic_streambuf"* %call59, %"class.std::__1::basic_streambuf"** %__sbuf_60, align 8, !dbg !2961 
  %37 = bitcast %"class.std::__1::ostreambuf_iterator"* %retval to i8*, !dbg !2962 
  %38 = bitcast %"class.std::__1::ostreambuf_iterator"* %__s to i8*, !dbg !2962 
  call void @llvm.memcpy.p0i8.p0i8.i64(i8* align 8 %37, i8* align 8 %38, i64 8, i1 false), !dbg !2962 
  br label %return, !dbg !2963 

if.end61:                                         ; preds = %if.then50 
  br label %if.end62, !dbg !2964 

if.end62:                                         ; preds = %if.end61, %if.end45 
  %39 = load %"class.std::__1::ios_base"*, %"class.std::__1::ios_base"** %__iob.addr, align 8, !dbg !2965 
  %call63 = call i64 @_ZNSt3__18ios_base5widthEl(%"class.std::__1::ios_base"* %39, i64 0), !dbg !2966 
  %40 = bitcast %"class.std::__1::ostreambuf_iterator"* %retval to i8*, !dbg !2967 
  %41 = bitcast %"class.std::__1::ostreambuf_iterator"* %__s to i8*, !dbg !2967 
  call void @llvm.memcpy.p0i8.p0i8.i64(i8* align 8 %40, i8* align 8 %41, i64 8, i1 false), !dbg !2967 
  br label %return, !dbg !2968 

return:                                           ; preds = %if.end62, %if.then54, %cleanup, %if.then16, %if.then 
  %coerce.dive64 = getelementptr inbounds %"class.std::__1::ostreambuf_iterator", %"class.std::__1::ostreambuf_iterator"* %retval, i32 0, i32 0, !dbg !2969 
  %42 = load %"class.std::__1::basic_streambuf"*, %"class.std::__1::basic_streambuf"** %coerce.dive64, align 8, !dbg !2969 
  %coerce.val.pi = ptrtoint %"class.std::__1::basic_streambuf"* %42 to i64, !dbg !2969 
  ret i64 %coerce.val.pi, !dbg !2969 

eh.resume:                                        ; preds = %invoke.cont43 
  %exn = load i8*, i8** %exn.slot, align 8, !dbg !2939 
  %sel = load i32, i32* %ehselector.slot, align 4, !dbg !2939 
  %lpad.val = insertvalue { i8*, i32 } undef, i8* %exn, 0, !dbg !2939 
  %lpad.val65 = insertvalue { i8*, i32 } %lpad.val, i32 %sel, 1, !dbg !2939 
  resume { i8*, i32 } %lpad.val65, !dbg !2939 

terminate.lpad:                                   ; preds = %lpad 
  %43 = landingpad { i8*, i32 } 
          catch i8* null, !dbg !2939 
  %44 = extractvalue { i8*, i32 } %43, 0, !dbg !2939 
  call void @__clang_call_terminate(i8* %44) #9, !dbg !2939 
  unreachable, !dbg !2939 

unreachable:                                      ; preds = %cleanup 
  unreachable 
} 

; Function Attrs: noinline nounwind optnone ssp uwtable 
define internal %"class.std::__1::ostreambuf_iterator"* @_ZNSt3__119ostreambuf_iteratorIcNS_11char_traitsIcEEEC1ERNS_13basic_ostreamIcS2_EE(%"class.std::__1::ostreambuf_iterator"* returned %this, %"class.std::__1::basic_ostream"* nonnull align 8 dereferenceable(8) %__s) unnamed_addr #3 align 2 !dbg !2970 { 
entry: 
%loadfile   = load %struct.__sFILE*, %struct.__sFILE** @file, align 8 
  %this.addr = alloca %"class.std::__1::ostreambuf_iterator"*, align 8 
  %__s.addr = alloca %"class.std::__1::basic_ostream"*, align 8 
  store %"class.std::__1::ostreambuf_iterator"* %this, %"class.std::__1::ostreambuf_iterator"** %this.addr, align 8 
  call void @llvm.dbg.declare(metadata %"class.std::__1::ostreambuf_iterator"** %this.addr, metadata !2971, metadata !DIExpression()), !dbg !2973 
  store %"class.std::__1::basic_ostream"* %__s, %"class.std::__1::basic_ostream"** %__s.addr, align 8 
  call void @llvm.dbg.declare(metadata %"class.std::__1::basic_ostream"** %__s.addr, metadata !2974, metadata !DIExpression()), !dbg !2975 
  %this1 = load %"class.std::__1::ostreambuf_iterator"*, %"class.std::__1::ostreambuf_iterator"** %this.addr, align 8 
  %0 = load %"class.std::__1::basic_ostream"*, %"class.std::__1::basic_ostream"** %__s.addr, align 8, !dbg !2976 
  %call = call %"class.std::__1::ostreambuf_iterator"* @_ZNSt3__119ostreambuf_iteratorIcNS_11char_traitsIcEEEC2ERNS_13basic_ostreamIcS2_EE(%"class.std::__1::ostreambuf_iterator"* %this1, %"class.std::__1::basic_ostream"* nonnull align 8 dereferenceable(8) %0) #8, !dbg !2976 
  ret %"class.std::__1::ostreambuf_iterator"* %this1, !dbg !2977 
} 

; Function Attrs: noinline nounwind optnone ssp uwtable 
define internal i32 @_ZNKSt3__18ios_base5flagsEv(%"class.std::__1::ios_base"* %this) #3 align 2 !dbg !2978 { 
entry: 
%loadfile   = load %struct.__sFILE*, %struct.__sFILE** @file, align 8 
  %this.addr = alloca %"class.std::__1::ios_base"*, align 8 
  store %"class.std::__1::ios_base"* %this, %"class.std::__1::ios_base"** %this.addr, align 8 
  call void @llvm.dbg.declare(metadata %"class.std::__1::ios_base"** %this.addr, metadata !2979, metadata !DIExpression()), !dbg !2981 
  %this1 = load %"class.std::__1::ios_base"*, %"class.std::__1::ios_base"** %this.addr, align 8 
  %__fmtflags_ = getelementptr inbounds %"class.std::__1::ios_base", %"class.std::__1::ios_base"* %this1, i32 0, i32 1, !dbg !2982 
  %0 = load i32, i32* %__fmtflags_, align 8, !dbg !2982 
  ret i32 %0, !dbg !2983 
} 

; Function Attrs: noinline optnone ssp uwtable 
define internal signext i8 @_ZNKSt3__19basic_iosIcNS_11char_traitsIcEEE4fillEv(%"class.std::__1::basic_ios"* %this) #2 align 2 !dbg !2984 { 
entry: 
%loadfile   = load %struct.__sFILE*, %struct.__sFILE** @file, align 8 
  %this.addr = alloca %"class.std::__1::basic_ios"*, align 8 
  store %"class.std::__1::basic_ios"* %this, %"class.std::__1::basic_ios"** %this.addr, align 8 
  call void @llvm.dbg.declare(metadata %"class.std::__1::basic_ios"** %this.addr, metadata !2985, metadata !DIExpression()), !dbg !2987 
  %this1 = load %"class.std::__1::basic_ios"*, %"class.std::__1::basic_ios"** %this.addr, align 8 
  %call = call i32 @_ZNSt3__111char_traitsIcE3eofEv() #8, !dbg !2988 
  %__fill_ = getelementptr inbounds %"class.std::__1::basic_ios", %"class.std::__1::basic_ios"* %this1, i32 0, i32 2, !dbg !2990 
  %0 = load i32, i32* %__fill_, align 8, !dbg !2990 
  %call2 = call zeroext i1 @_ZNSt3__111char_traitsIcE11eq_int_typeEii(i32 %call, i32 %0) #8, !dbg !2991 
  br i1 %call2, label %if.then, label %if.end, !dbg !2992 

if.then:                                          ; preds = %entry 
  %call3 = call signext i8 @_ZNKSt3__19basic_iosIcNS_11char_traitsIcEEE5widenEc(%"class.std::__1::basic_ios"* %this1, i8 signext 32), !dbg !2993 
  %conv = sext i8 %call3 to i32, !dbg !2993 
  %__fill_4 = getelementptr inbounds %"class.std::__1::basic_ios", %"class.std::__1::basic_ios"* %this1, i32 0, i32 2, !dbg !2994 
  store i32 %conv, i32* %__fill_4, align 8, !dbg !2995 
  br label %if.end, !dbg !2994 

if.end:                                           ; preds = %if.then, %entry 
  %__fill_5 = getelementptr inbounds %"class.std::__1::basic_ios", %"class.std::__1::basic_ios"* %this1, i32 0, i32 2, !dbg !2996 
  %1 = load i32, i32* %__fill_5, align 8, !dbg !2996 
  %conv6 = trunc i32 %1 to i8, !dbg !2996 
  ret i8 %conv6, !dbg !2997 
} 

; Function Attrs: noinline nounwind optnone ssp uwtable 
define internal zeroext i1 @_ZNKSt3__119ostreambuf_iteratorIcNS_11char_traitsIcEEE6failedEv(%"class.std::__1::ostreambuf_iterator"* %this) #3 align 2 personality i8* bitcast (i32 (...)* @__gxx_personality_v0 to i8*) !dbg !2998 { 
entry: 
%loadfile   = load %struct.__sFILE*, %struct.__sFILE** @file, align 8 
  %this.addr = alloca %"class.std::__1::ostreambuf_iterator"*, align 8 
  %ref.tmp = alloca %"struct.std::__1::nullptr_t", align 8 
  %exn.slot = alloca i8*, align 8 
  %ehselector.slot = alloca i32, align 4 
  store %"class.std::__1::ostreambuf_iterator"* %this, %"class.std::__1::ostreambuf_iterator"** %this.addr, align 8 
  call void @llvm.dbg.declare(metadata %"class.std::__1::ostreambuf_iterator"** %this.addr, metadata !2999, metadata !DIExpression()), !dbg !3001 
  %this1 = load %"class.std::__1::ostreambuf_iterator"*, %"class.std::__1::ostreambuf_iterator"** %this.addr, align 8 
  %__sbuf_ = getelementptr inbounds %"class.std::__1::ostreambuf_iterator", %"class.std::__1::ostreambuf_iterator"* %this1, i32 0, i32 0, !dbg !3002 
  %0 = load %"class.std::__1::basic_streambuf"*, %"class.std::__1::basic_streambuf"** %__sbuf_, align 8, !dbg !3002 
  %call = invoke i64 @_ZNSt3__1L15__get_nullptr_tEv() 
          to label %invoke.cont unwind label %lpad, !dbg !3003 

invoke.cont:                                      ; preds = %entry 
  %coerce.dive = getelementptr inbounds %"struct.std::__1::nullptr_t", %"struct.std::__1::nullptr_t"* %ref.tmp, i32 0, i32 0, !dbg !3003 
  %coerce.val.ip = inttoptr i64 %call to i8*, !dbg !3003 
  store i8* %coerce.val.ip, i8** %coerce.dive, align 8, !dbg !3003 
  %call2 = call %"class.std::__1::basic_streambuf"* @_ZNKSt3__19nullptr_tcvPT_INS_15basic_streambufIcNS_11char_traitsIcEEEEEEv(%"struct.std::__1::nullptr_t"* %ref.tmp), !dbg !3003 
  %cmp = icmp eq %"class.std::__1::basic_streambuf"* %0, %call2, !dbg !3004 
  ret i1 %cmp, !dbg !3005 

lpad:                                             ; preds = %entry 
  %1 = landingpad { i8*, i32 } 
          filter [0 x i8*] zeroinitializer, !dbg !3006 
  %2 = extractvalue { i8*, i32 } %1, 0, !dbg !3006 
  store i8* %2, i8** %exn.slot, align 8, !dbg !3006 
  %3 = extractvalue { i8*, i32 } %1, 1, !dbg !3006 
  store i32 %3, i32* %ehselector.slot, align 4, !dbg !3006 
  br label %filter.dispatch, !dbg !3006 

filter.dispatch:                                  ; preds = %lpad 
  %exn = load i8*, i8** %exn.slot, align 8, !dbg !3005 
  call void @__cxa_call_unexpected(i8* %exn) #10, !dbg !3005 
  unreachable, !dbg !3005 
} 

; Function Attrs: noinline optnone ssp uwtable 
define internal void @_ZNSt3__19basic_iosIcNS_11char_traitsIcEEE8setstateEj(%"class.std::__1::basic_ios"* %this, i32 %__state) #2 align 2 !dbg !3007 { 
entry: 
%loadfile   = load %struct.__sFILE*, %struct.__sFILE** @file, align 8 
  %this.addr = alloca %"class.std::__1::basic_ios"*, align 8 
  %__state.addr = alloca i32, align 4 
  store %"class.std::__1::basic_ios"* %this, %"class.std::__1::basic_ios"** %this.addr, align 8 
  call void @llvm.dbg.declare(metadata %"class.std::__1::basic_ios"** %this.addr, metadata !3008, metadata !DIExpression()), !dbg !3010 
  store i32 %__state, i32* %__state.addr, align 4 
  call void @llvm.dbg.declare(metadata i32* %__state.addr, metadata !3011, metadata !DIExpression()), !dbg !3012 
  %this1 = load %"class.std::__1::basic_ios"*, %"class.std::__1::basic_ios"** %this.addr, align 8 
  %0 = bitcast %"class.std::__1::basic_ios"* %this1 to %"class.std::__1::ios_base"*, !dbg !3013 
  %1 = load i32, i32* %__state.addr, align 4, !dbg !3014 
  call void @_ZNSt3__18ios_base8setstateEj(%"class.std::__1::ios_base"* %0, i32 %1), !dbg !3013 
  ret void, !dbg !3015 
} 

declare %"class.std::__1::basic_ostream<char>::sentry"* @_ZNSt3__113basic_ostreamIcNS_11char_traitsIcEEE6sentryD1Ev(%"class.std::__1::basic_ostream<char>::sentry"* returned) unnamed_addr #4 

declare void @_ZNSt3__18ios_base33__set_badbit_and_consider_rethrowEv(%"class.std::__1::ios_base"*) #4 

declare void @__cxa_end_catch() 

; Function Attrs: noinline optnone ssp uwtable 
define internal i64 @_ZNSt3__1L15__get_nullptr_tEv() #2 !dbg !3016 { 
entry: 
%loadfile   = load %struct.__sFILE*, %struct.__sFILE** @file, align 8 
  %retval = alloca %"struct.std::__1::nullptr_t", align 8 
  %call = call %"struct.std::__1::nullptr_t"* @_ZNSt3__19nullptr_tC1EMNS0_5__natEi(%"struct.std::__1::nullptr_t"* %retval, i64 -1), !dbg !3019 
  %coerce.dive = getelementptr inbounds %"struct.std::__1::nullptr_t", %"struct.std::__1::nullptr_t"* %retval, i32 0, i32 0, !dbg !3020 
  %0 = load i8*, i8** %coerce.dive, align 8, !dbg !3020 
  %coerce.val.pi = ptrtoint i8* %0 to i64, !dbg !3020 
  ret i64 %coerce.val.pi, !dbg !3020 
} 

; Function Attrs: noinline nounwind optnone ssp uwtable 
define internal %"class.std::__1::basic_streambuf"* @_ZNKSt3__19nullptr_tcvPT_INS_15basic_streambufIcNS_11char_traitsIcEEEEEEv(%"struct.std::__1::nullptr_t"* %this) #3 align 2 !dbg !3021 { 
entry: 
%loadfile   = load %struct.__sFILE*, %struct.__sFILE** @file, align 8 
  %this.addr = alloca %"struct.std::__1::nullptr_t"*, align 8 
  store %"struct.std::__1::nullptr_t"* %this, %"struct.std::__1::nullptr_t"** %this.addr, align 8 
  call void @llvm.dbg.declare(metadata %"struct.std::__1::nullptr_t"** %this.addr, metadata !3027, metadata !DIExpression()), !dbg !3029 
  %this1 = load %"struct.std::__1::nullptr_t"*, %"struct.std::__1::nullptr_t"** %this.addr, align 8 
  ret %"class.std::__1::basic_streambuf"* null, !dbg !3030 
} 

; Function Attrs: argmemonly nofree nounwind willreturn 
declare void @llvm.memcpy.p0i8.p0i8.i64(i8* noalias nocapture writeonly, i8* noalias nocapture readonly, i64, i1 immarg) #7 

; Function Attrs: noinline nounwind optnone ssp uwtable 
define internal i64 @_ZNKSt3__18ios_base5widthEv(%"class.std::__1::ios_base"* %this) #3 align 2 !dbg !3031 { 
entry: 
%loadfile   = load %struct.__sFILE*, %struct.__sFILE** @file, align 8 
  %this.addr = alloca %"class.std::__1::ios_base"*, align 8 
  store %"class.std::__1::ios_base"* %this, %"class.std::__1::ios_base"** %this.addr, align 8 
  call void @llvm.dbg.declare(metadata %"class.std::__1::ios_base"** %this.addr, metadata !3032, metadata !DIExpression()), !dbg !3033 
  %this1 = load %"class.std::__1::ios_base"*, %"class.std::__1::ios_base"** %this.addr, align 8 
  %__width_ = getelementptr inbounds %"class.std::__1::ios_base", %"class.std::__1::ios_base"* %this1, i32 0, i32 3, !dbg !3034 
  %0 = load i64, i64* %__width_, align 8, !dbg !3034 
  ret i64 %0, !dbg !3035 
} 

; Function Attrs: noinline optnone ssp uwtable 
define internal i64 @_ZNSt3__115basic_streambufIcNS_11char_traitsIcEEE5sputnEPKcl(%"class.std::__1::basic_streambuf"* %this, i8* %__s, i64 %__n) #2 align 2 !dbg !3036 { 
entry: 
%loadfile   = load %struct.__sFILE*, %struct.__sFILE** @file, align 8 
  %this.addr = alloca %"class.std::__1::basic_streambuf"*, align 8 
  %__s.addr = alloca i8*, align 8 
  %__n.addr = alloca i64, align 8 
  store %"class.std::__1::basic_streambuf"* %this, %"class.std::__1::basic_streambuf"** %this.addr, align 8 
  call void @llvm.dbg.declare(metadata %"class.std::__1::basic_streambuf"** %this.addr, metadata !3037, metadata !DIExpression()), !dbg !3038 
  store i8* %__s, i8** %__s.addr, align 8 
  call void @llvm.dbg.declare(metadata i8** %__s.addr, metadata !3039, metadata !DIExpression()), !dbg !3040 
  store i64 %__n, i64* %__n.addr, align 8 
  call void @llvm.dbg.declare(metadata i64* %__n.addr, metadata !3041, metadata !DIExpression()), !dbg !3042 
  %this1 = load %"class.std::__1::basic_streambuf"*, %"class.std::__1::basic_streambuf"** %this.addr, align 8 
  %0 = load i8*, i8** %__s.addr, align 8, !dbg !3043 
  %1 = load i64, i64* %__n.addr, align 8, !dbg !3044 
  %2 = bitcast %"class.std::__1::basic_streambuf"* %this1 to i64 (%"class.std::__1::basic_streambuf"*, i8*, i64)***, !dbg !3045 
  %vtable = load i64 (%"class.std::__1::basic_streambuf"*, i8*, i64)**, i64 (%"class.std::__1::basic_streambuf"*, i8*, i64)*** %2, align 8, !dbg !3045 
  %vfn = getelementptr inbounds i64 (%"class.std::__1::basic_streambuf"*, i8*, i64)*, i64 (%"class.std::__1::basic_streambuf"*, i8*, i64)** %vtable, i64 12, !dbg !3045 
  %3 = load i64 (%"class.std::__1::basic_streambuf"*, i8*, i64)*, i64 (%"class.std::__1::basic_streambuf"*, i8*, i64)** %vfn, align 8, !dbg !3045 
  %call = call i64 %3(%"class.std::__1::basic_streambuf"* %this1, i8* %0, i64 %1), !dbg !3045 
  ret i64 %call, !dbg !3046 
} 

; Function Attrs: noinline optnone ssp uwtable 
define internal %"class.std::__1::basic_string"* @_ZNSt3__112basic_stringIcNS_11char_traitsIcEENS_9allocatorIcEEEC1Emc(%"class.std::__1::basic_string"* returned %this, i64 %__n, i8 signext %__c) unnamed_addr #2 align 2 !dbg !3047 { 
entry: 
%loadfile   = load %struct.__sFILE*, %struct.__sFILE** @file, align 8 
  %this.addr = alloca %"class.std::__1::basic_string"*, align 8 
  %__n.addr = alloca i64, align 8 
  %__c.addr = alloca i8, align 1 
  store %"class.std::__1::basic_string"* %this, %"class.std::__1::basic_string"** %this.addr, align 8 
  call void @llvm.dbg.declare(metadata %"class.std::__1::basic_string"** %this.addr, metadata !3048, metadata !DIExpression()), !dbg !3049 
  store i64 %__n, i64* %__n.addr, align 8 
  call void @llvm.dbg.declare(metadata i64* %__n.addr, metadata !3050, metadata !DIExpression()), !dbg !3051 
  store i8 %__c, i8* %__c.addr, align 1 
  call void @llvm.dbg.declare(metadata i8* %__c.addr, metadata !3052, metadata !DIExpression()), !dbg !3053 
  %this1 = load %"class.std::__1::basic_string"*, %"class.std::__1::basic_string"** %this.addr, align 8 
  %0 = load i64, i64* %__n.addr, align 8, !dbg !3054 
  %1 = load i8, i8* %__c.addr, align 1, !dbg !3054 
  %call = call %"class.std::__1::basic_string"* @_ZNSt3__112basic_stringIcNS_11char_traitsIcEENS_9allocatorIcEEEC2Emc(%"class.std::__1::basic_string"* %this1, i64 %0, i8 signext %1), !dbg !3054 
  ret %"class.std::__1::basic_string"* %this1, !dbg !3055 
} 

; Function Attrs: noinline nounwind optnone ssp uwtable 
define internal i64 @_ZNSt3__18ios_base5widthEl(%"class.std::__1::ios_base"* %this, i64 %__wide) #3 align 2 !dbg !3056 { 
entry: 
%loadfile   = load %struct.__sFILE*, %struct.__sFILE** @file, align 8 
  %this.addr = alloca %"class.std::__1::ios_base"*, align 8 
  %__wide.addr = alloca i64, align 8 
  %__r = alloca i64, align 8 
  store %"class.std::__1::ios_base"* %this, %"class.std::__1::ios_base"** %this.addr, align 8 
  call void @llvm.dbg.declare(metadata %"class.std::__1::ios_base"** %this.addr, metadata !3057, metadata !DIExpression()), !dbg !3059 
  store i64 %__wide, i64* %__wide.addr, align 8 
  call void @llvm.dbg.declare(metadata i64* %__wide.addr, metadata !3060, metadata !DIExpression()), !dbg !3061 
  %this1 = load %"class.std::__1::ios_base"*, %"class.std::__1::ios_base"** %this.addr, align 8 
  call void @llvm.dbg.declare(metadata i64* %__r, metadata !3062, metadata !DIExpression()), !dbg !3063 
  %__width_ = getelementptr inbounds %"class.std::__1::ios_base", %"class.std::__1::ios_base"* %this1, i32 0, i32 3, !dbg !3064 
  %0 = load i64, i64* %__width_, align 8, !dbg !3064 
  store i64 %0, i64* %__r, align 8, !dbg !3063 
  %1 = load i64, i64* %__wide.addr, align 8, !dbg !3065 
  %__width_2 = getelementptr inbounds %"class.std::__1::ios_base", %"class.std::__1::ios_base"* %this1, i32 0, i32 3, !dbg !3066 
  store i64 %1, i64* %__width_2, align 8, !dbg !3067 
  %2 = load i64, i64* %__r, align 8, !dbg !3068 
  ret i64 %2, !dbg !3069 
} 

; Function Attrs: noinline optnone ssp uwtable 
define internal %"struct.std::__1::nullptr_t"* @_ZNSt3__19nullptr_tC1EMNS0_5__natEi(%"struct.std::__1::nullptr_t"* returned %this, i64 %0) unnamed_addr #2 align 2 !dbg !3070 { 
entry: 
%loadfile   = load %struct.__sFILE*, %struct.__sFILE** @file, align 8 
  %this.addr = alloca %"struct.std::__1::nullptr_t"*, align 8 
  %.addr = alloca i64, align 8 
  store %"struct.std::__1::nullptr_t"* %this, %"struct.std::__1::nullptr_t"** %this.addr, align 8 
  call void @llvm.dbg.declare(metadata %"struct.std::__1::nullptr_t"** %this.addr, metadata !3071, metadata !DIExpression()), !dbg !3073 
  store i64 %0, i64* %.addr, align 8 
  call void @llvm.dbg.declare(metadata i64* %.addr, metadata !3074, metadata !DIExpression()), !dbg !3075 
  %this1 = load %"struct.std::__1::nullptr_t"*, %"struct.std::__1::nullptr_t"** %this.addr, align 8 
  %1 = load i64, i64* %.addr, align 8, !dbg !3076 
  %call = call %"struct.std::__1::nullptr_t"* @_ZNSt3__19nullptr_tC2EMNS0_5__natEi(%"struct.std::__1::nullptr_t"* %this1, i64 %1), !dbg !3076 
  ret %"struct.std::__1::nullptr_t"* %this1, !dbg !3077 
} 

; Function Attrs: noinline nounwind optnone ssp uwtable 
define internal %"struct.std::__1::nullptr_t"* @_ZNSt3__19nullptr_tC2EMNS0_5__natEi(%"struct.std::__1::nullptr_t"* returned %this, i64 %0) unnamed_addr #3 align 2 !dbg !3078 { 
entry: 
%loadfile   = load %struct.__sFILE*, %struct.__sFILE** @file, align 8 
  %this.addr = alloca %"struct.std::__1::nullptr_t"*, align 8 
  %.addr = alloca i64, align 8 
  store %"struct.std::__1::nullptr_t"* %this, %"struct.std::__1::nullptr_t"** %this.addr, align 8 
  call void @llvm.dbg.declare(metadata %"struct.std::__1::nullptr_t"** %this.addr, metadata !3079, metadata !DIExpression()), !dbg !3080 
  store i64 %0, i64* %.addr, align 8 
  call void @llvm.dbg.declare(metadata i64* %.addr, metadata !3081, metadata !DIExpression()), !dbg !3082 
  %this1 = load %"struct.std::__1::nullptr_t"*, %"struct.std::__1::nullptr_t"** %this.addr, align 8 
  %__lx = getelementptr inbounds %"struct.std::__1::nullptr_t", %"struct.std::__1::nullptr_t"* %this1, i32 0, i32 0, !dbg !3083 
  store i8* null, i8** %__lx, align 8, !dbg !3083 
  ret %"struct.std::__1::nullptr_t"* %this1, !dbg !3084 
} 

; Function Attrs: noinline optnone ssp uwtable 
define internal %"class.std::__1::basic_string"* @_ZNSt3__112basic_stringIcNS_11char_traitsIcEENS_9allocatorIcEEEC2Emc(%"class.std::__1::basic_string"* returned %this, i64 %__n, i8 signext %__c) unnamed_addr #2 align 2 !dbg !3085 { 
entry: 
%loadfile   = load %struct.__sFILE*, %struct.__sFILE** @file, align 8 
  %this.addr = alloca %"class.std::__1::basic_string"*, align 8 
  %__n.addr = alloca i64, align 8 
  %__c.addr = alloca i8, align 1 
  %ref.tmp = alloca %"struct.std::__1::__default_init_tag", align 1 
  %ref.tmp2 = alloca %"struct.std::__1::__default_init_tag", align 1 
  store %"class.std::__1::basic_string"* %this, %"class.std::__1::basic_string"** %this.addr, align 8 
  call void @llvm.dbg.declare(metadata %"class.std::__1::basic_string"** %this.addr, metadata !3086, metadata !DIExpression()), !dbg !3087 
  store i64 %__n, i64* %__n.addr, align 8 
  call void @llvm.dbg.declare(metadata i64* %__n.addr, metadata !3088, metadata !DIExpression()), !dbg !3089 
  store i8 %__c, i8* %__c.addr, align 1 
  call void @llvm.dbg.declare(metadata i8* %__c.addr, metadata !3090, metadata !DIExpression()), !dbg !3091 
  %this1 = load %"class.std::__1::basic_string"*, %"class.std::__1::basic_string"** %this.addr, align 8 
  %0 = bitcast %"class.std::__1::basic_string"* %this1 to %"class.std::__1::__basic_string_common"*, !dbg !3092 
  %__r_ = getelementptr inbounds %"class.std::__1::basic_string", %"class.std::__1::basic_string"* %this1, i32 0, i32 0, !dbg !3093 
  %call = call %"class.std::__1::__compressed_pair"* @_ZNSt3__117__compressed_pairINS_12basic_stringIcNS_11char_traitsIcEENS_9allocatorIcEEE5__repES5_EC1INS_18__default_init_tagESA_EEOT_OT0_(%"class.std::__1::__compressed_pair"* %__r_, %"struct.std::__1::__default_init_tag"* nonnull align 1 dereferenceable(1) %ref.tmp, %"struct.std::__1::__default_init_tag"* nonnull align 1 dereferenceable(1) %ref.tmp2), !dbg !3093 
  %1 = load i64, i64* %__n.addr, align 8, !dbg !3094 
  %2 = load i8, i8* %__c.addr, align 1, !dbg !3096 
  call void @_ZNSt3__112basic_stringIcNS_11char_traitsIcEENS_9allocatorIcEEE6__initEmc(%"class.std::__1::basic_string"* %this1, i64 %1, i8 signext %2), !dbg !3097 
  ret %"class.std::__1::basic_string"* %this1, !dbg !3098 
} 

declare void @_ZNSt3__112basic_stringIcNS_11char_traitsIcEENS_9allocatorIcEEE6__initEmc(%"class.std::__1::basic_string"*, i64, i8 signext) #4 

; Function Attrs: noinline nounwind optnone ssp uwtable 
define internal %"class.std::__1::ostreambuf_iterator"* @_ZNSt3__119ostreambuf_iteratorIcNS_11char_traitsIcEEEC2ERNS_13basic_ostreamIcS2_EE(%"class.std::__1::ostreambuf_iterator"* returned %this, %"class.std::__1::basic_ostream"* nonnull align 8 dereferenceable(8) %__s) unnamed_addr #3 align 2 personality i8* bitcast (i32 (...)* @__gxx_personality_v0 to i8*) !dbg !3099 { 
entry: 
%loadfile   = load %struct.__sFILE*, %struct.__sFILE** @file, align 8 
  %this.addr = alloca %"class.std::__1::ostreambuf_iterator"*, align 8 
  %__s.addr = alloca %"class.std::__1::basic_ostream"*, align 8 
  %exn.slot = alloca i8*, align 8 
  %ehselector.slot = alloca i32, align 4 
  store %"class.std::__1::ostreambuf_iterator"* %this, %"class.std::__1::ostreambuf_iterator"** %this.addr, align 8 
  call void @llvm.dbg.declare(metadata %"class.std::__1::ostreambuf_iterator"** %this.addr, metadata !3100, metadata !DIExpression()), !dbg !3101 
  store %"class.std::__1::basic_ostream"* %__s, %"class.std::__1::basic_ostream"** %__s.addr, align 8 
  call void @llvm.dbg.declare(metadata %"class.std::__1::basic_ostream"** %__s.addr, metadata !3102, metadata !DIExpression()), !dbg !3103 
  %this1 = load %"class.std::__1::ostreambuf_iterator"*, %"class.std::__1::ostreambuf_iterator"** %this.addr, align 8 
  %0 = bitcast %"class.std::__1::ostreambuf_iterator"* %this1 to %"struct.std::__1::iterator"*, !dbg !3104 
  %__sbuf_ = getelementptr inbounds %"class.std::__1::ostreambuf_iterator", %"class.std::__1::ostreambuf_iterator"* %this1, i32 0, i32 0, !dbg !3105 
  %1 = load %"class.std::__1::basic_ostream"*, %"class.std::__1::basic_ostream"** %__s.addr, align 8, !dbg !3106 
  %2 = bitcast %"class.std::__1::basic_ostream"* %1 to i8**, !dbg !3106 
  %vtable = load i8*, i8** %2, align 8, !dbg !3106 
  %vbase.offset.ptr = getelementptr i8, i8* %vtable, i64 -24, !dbg !3106 
  %3 = bitcast i8* %vbase.offset.ptr to i64*, !dbg !3106 
  %vbase.offset = load i64, i64* %3, align 8, !dbg !3106 
  %4 = bitcast %"class.std::__1::basic_ostream"* %1 to i8*, !dbg !3106 
  %add.ptr = getelementptr inbounds i8, i8* %4, i64 %vbase.offset, !dbg !3106 
  %5 = bitcast i8* %add.ptr to %"class.std::__1::basic_ios"*, !dbg !3106 
  %call = invoke %"class.std::__1::basic_streambuf"* @_ZNKSt3__19basic_iosIcNS_11char_traitsIcEEE5rdbufEv(%"class.std::__1::basic_ios"* %5) 
          to label %invoke.cont unwind label %lpad, !dbg !3107 

invoke.cont:                                      ; preds = %entry 
  store %"class.std::__1::basic_streambuf"* %call, %"class.std::__1::basic_streambuf"** %__sbuf_, align 8, !dbg !3105 
  ret %"class.std::__1::ostreambuf_iterator"* %this1, !dbg !3108 

lpad:                                             ; preds = %entry 
  %6 = landingpad { i8*, i32 } 
          filter [0 x i8*] zeroinitializer, !dbg !3108 
  %7 = extractvalue { i8*, i32 } %6, 0, !dbg !3108 
  store i8* %7, i8** %exn.slot, align 8, !dbg !3108 
  %8 = extractvalue { i8*, i32 } %6, 1, !dbg !3108 
  store i32 %8, i32* %ehselector.slot, align 4, !dbg !3108 
  br label %filter.dispatch, !dbg !3108 

filter.dispatch:                                  ; preds = %lpad 
  %exn = load i8*, i8** %exn.slot, align 8, !dbg !3108 
  call void @__cxa_call_unexpected(i8* %exn) #10, !dbg !3108 
  unreachable, !dbg !3108 
} 

; Function Attrs: noinline optnone ssp uwtable 
define internal %"class.std::__1::basic_streambuf"* @_ZNKSt3__19basic_iosIcNS_11char_traitsIcEEE5rdbufEv(%"class.std::__1::basic_ios"* %this) #2 align 2 !dbg !3109 { 
entry: 
%loadfile   = load %struct.__sFILE*, %struct.__sFILE** @file, align 8 
  %this.addr = alloca %"class.std::__1::basic_ios"*, align 8 
  store %"class.std::__1::basic_ios"* %this, %"class.std::__1::basic_ios"** %this.addr, align 8 
  call void @llvm.dbg.declare(metadata %"class.std::__1::basic_ios"** %this.addr, metadata !3110, metadata !DIExpression()), !dbg !3111 
  %this1 = load %"class.std::__1::basic_ios"*, %"class.std::__1::basic_ios"** %this.addr, align 8 
  %0 = bitcast %"class.std::__1::basic_ios"* %this1 to %"class.std::__1::ios_base"*, !dbg !3112 
  %call = call i8* @_ZNKSt3__18ios_base5rdbufEv(%"class.std::__1::ios_base"* %0), !dbg !3112 
  %1 = bitcast i8* %call to %"class.std::__1::basic_streambuf"*, !dbg !3113 
  ret %"class.std::__1::basic_streambuf"* %1, !dbg !3114 
} 

declare void @__cxa_call_unexpected(i8*) 

; Function Attrs: noinline nounwind optnone ssp uwtable 
define internal i8* @_ZNKSt3__18ios_base5rdbufEv(%"class.std::__1::ios_base"* %this) #3 align 2 !dbg !3115 { 
entry: 
%loadfile   = load %struct.__sFILE*, %struct.__sFILE** @file, align 8 
  %this.addr = alloca %"class.std::__1::ios_base"*, align 8 
  store %"class.std::__1::ios_base"* %this, %"class.std::__1::ios_base"** %this.addr, align 8 
  call void @llvm.dbg.declare(metadata %"class.std::__1::ios_base"** %this.addr, metadata !3116, metadata !DIExpression()), !dbg !3117 
  %this1 = load %"class.std::__1::ios_base"*, %"class.std::__1::ios_base"** %this.addr, align 8 
  %__rdbuf_ = getelementptr inbounds %"class.std::__1::ios_base", %"class.std::__1::ios_base"* %this1, i32 0, i32 6, !dbg !3118 
  %0 = load i8*, i8** %__rdbuf_, align 8, !dbg !3118 
  ret i8* %0, !dbg !3119 
} 

; Function Attrs: noinline nounwind optnone ssp uwtable 
define linkonce_odr zeroext i1 @_ZNSt3__111char_traitsIcE11eq_int_typeEii(i32 %__c1, i32 %__c2) #3 align 2 !dbg !3120 { 
entry: 
%loadfile   = load %struct.__sFILE*, %struct.__sFILE** @file, align 8 
  %__c1.addr = alloca i32, align 4 
  %__c2.addr = alloca i32, align 4 
  store i32 %__c1, i32* %__c1.addr, align 4 
  call void @llvm.dbg.declare(metadata i32* %__c1.addr, metadata !3121, metadata !DIExpression()), !dbg !3122 
  store i32 %__c2, i32* %__c2.addr, align 4 
  call void @llvm.dbg.declare(metadata i32* %__c2.addr, metadata !3123, metadata !DIExpression()), !dbg !3124 
  %0 = load i32, i32* %__c1.addr, align 4, !dbg !3125 
  %1 = load i32, i32* %__c2.addr, align 4, !dbg !3126 
  %cmp = icmp eq i32 %0, %1, !dbg !3127 
  ret i1 %cmp, !dbg !3128 
} 

; Function Attrs: noinline nounwind optnone ssp uwtable 
define linkonce_odr i32 @_ZNSt3__111char_traitsIcE3eofEv() #3 align 2 !dbg !3129 { 
entry: 
%loadfile   = load %struct.__sFILE*, %struct.__sFILE** @file, align 8 
  ret i32 -1, !dbg !3130 
} 

; Function Attrs: noinline optnone ssp uwtable 
define internal signext i8 @_ZNKSt3__19basic_iosIcNS_11char_traitsIcEEE5widenEc(%"class.std::__1::basic_ios"* %this, i8 signext %__c) #2 align 2 personality i8* bitcast (i32 (...)* @__gxx_personality_v0 to i8*) !dbg !3131 { 
entry: 
%loadfile   = load %struct.__sFILE*, %struct.__sFILE** @file, align 8 
  %this.addr = alloca %"class.std::__1::basic_ios"*, align 8 
  %__c.addr = alloca i8, align 1 
  %ref.tmp = alloca %"class.std::__1::locale", align 8 
  %exn.slot = alloca i8*, align 8 
  %ehselector.slot = alloca i32, align 4 
  store %"class.std::__1::basic_ios"* %this, %"class.std::__1::basic_ios"** %this.addr, align 8 
  call void @llvm.dbg.declare(metadata %"class.std::__1::basic_ios"** %this.addr, metadata !3132, metadata !DIExpression()), !dbg !3133 
  store i8 %__c, i8* %__c.addr, align 1 
  call void @llvm.dbg.declare(metadata i8* %__c.addr, metadata !3134, metadata !DIExpression()), !dbg !3135 
  %this1 = load %"class.std::__1::basic_ios"*, %"class.std::__1::basic_ios"** %this.addr, align 8 
  %0 = bitcast %"class.std::__1::basic_ios"* %this1 to %"class.std::__1::ios_base"*, !dbg !3136 
  call void @_ZNKSt3__18ios_base6getlocEv(%"class.std::__1::locale"* sret(%"class.std::__1::locale") align 8 %ref.tmp, %"class.std::__1::ios_base"* %0), !dbg !3136 
  %call = invoke nonnull align 8 dereferenceable(25) %"class.std::__1::ctype"* @_ZNSt3__1L9use_facetINS_5ctypeIcEEEERKT_RKNS_6localeE(%"class.std::__1::locale"* nonnull align 8 dereferenceable(8) %ref.tmp) 
          to label %invoke.cont unwind label %lpad, !dbg !3137 

invoke.cont:                                      ; preds = %entry 
  %1 = load i8, i8* %__c.addr, align 1, !dbg !3138 
  %call3 = invoke signext i8 @_ZNKSt3__15ctypeIcE5widenEc(%"class.std::__1::ctype"* %call, i8 signext %1) 
          to label %invoke.cont2 unwind label %lpad, !dbg !3139 

invoke.cont2:                                     ; preds = %invoke.cont 
  %call4 = call %"class.std::__1::locale"* @_ZNSt3__16localeD1Ev(%"class.std::__1::locale"* %ref.tmp), !dbg !3140 
  ret i8 %call3, !dbg !3140 

lpad:                                             ; preds = %invoke.cont, %entry 
  %2 = landingpad { i8*, i32 } 
          cleanup, !dbg !3141 
  %3 = extractvalue { i8*, i32 } %2, 0, !dbg !3141 
  store i8* %3, i8** %exn.slot, align 8, !dbg !3141 
  %4 = extractvalue { i8*, i32 } %2, 1, !dbg !3141 
  store i32 %4, i32* %ehselector.slot, align 4, !dbg !3141 
  %call6 = invoke %"class.std::__1::locale"* @_ZNSt3__16localeD1Ev(%"class.std::__1::locale"* %ref.tmp) 
          to label %invoke.cont5 unwind label %terminate.lpad, !dbg !3140 

invoke.cont5:                                     ; preds = %lpad 
  br label %eh.resume, !dbg !3140 

eh.resume:                                        ; preds = %invoke.cont5 
  %exn = load i8*, i8** %exn.slot, align 8, !dbg !3140 
  %sel = load i32, i32* %ehselector.slot, align 4, !dbg !3140 
  %lpad.val = insertvalue { i8*, i32 } undef, i8* %exn, 0, !dbg !3140 
  %lpad.val7 = insertvalue { i8*, i32 } %lpad.val, i32 %sel, 1, !dbg !3140 
  resume { i8*, i32 } %lpad.val7, !dbg !3140 

terminate.lpad:                                   ; preds = %lpad 
  %5 = landingpad { i8*, i32 } 
          catch i8* null, !dbg !3140 
  %6 = extractvalue { i8*, i32 } %5, 0, !dbg !3140 
  call void @__clang_call_terminate(i8* %6) #9, !dbg !3140 
  unreachable, !dbg !3140 
} 

; Function Attrs: noinline optnone ssp uwtable 
define internal nonnull align 8 dereferenceable(25) %"class.std::__1::ctype"* @_ZNSt3__1L9use_facetINS_5ctypeIcEEEERKT_RKNS_6localeE(%"class.std::__1::locale"* nonnull align 8 dereferenceable(8) %__l) #2 !dbg !3142 { 
entry: 
%loadfile   = load %struct.__sFILE*, %struct.__sFILE** @file, align 8 
  %__l.addr = alloca %"class.std::__1::locale"*, align 8 
  store %"class.std::__1::locale"* %__l, %"class.std::__1::locale"** %__l.addr, align 8 
  call void @llvm.dbg.declare(metadata %"class.std::__1::locale"** %__l.addr, metadata !3237, metadata !DIExpression()), !dbg !3238 
  %0 = load %"class.std::__1::locale"*, %"class.std::__1::locale"** %__l.addr, align 8, !dbg !3239 
  %call = call %"class.std::__1::locale::facet"* @_ZNKSt3__16locale9use_facetERNS0_2idE(%"class.std::__1::locale"* %0, %"class.std::__1::locale::id"* nonnull align 8 dereferenceable(12) @_ZNSt3__15ctypeIcE2idE), !dbg !3240 
  %1 = bitcast %"class.std::__1::locale::facet"* %call to %"class.std::__1::ctype"*, !dbg !3241 
  ret %"class.std::__1::ctype"* %1, !dbg !3242 
} 

declare void @_ZNKSt3__18ios_base6getlocEv(%"class.std::__1::locale"* sret(%"class.std::__1::locale") align 8, %"class.std::__1::ios_base"*) #4 

; Function Attrs: noinline optnone ssp uwtable 
define internal signext i8 @_ZNKSt3__15ctypeIcE5widenEc(%"class.std::__1::ctype"* %this, i8 signext %__c) #2 align 2 !dbg !3243 { 
entry: 
%loadfile   = load %struct.__sFILE*, %struct.__sFILE** @file, align 8 
  %this.addr = alloca %"class.std::__1::ctype"*, align 8 
  %__c.addr = alloca i8, align 1 
  store %"class.std::__1::ctype"* %this, %"class.std::__1::ctype"** %this.addr, align 8 
  call void @llvm.dbg.declare(metadata %"class.std::__1::ctype"** %this.addr, metadata !3244, metadata !DIExpression()), !dbg !3246 
  store i8 %__c, i8* %__c.addr, align 1 
  call void @llvm.dbg.declare(metadata i8* %__c.addr, metadata !3247, metadata !DIExpression()), !dbg !3248 
  %this1 = load %"class.std::__1::ctype"*, %"class.std::__1::ctype"** %this.addr, align 8 
  %0 = load i8, i8* %__c.addr, align 1, !dbg !3249 
  %1 = bitcast %"class.std::__1::ctype"* %this1 to i8 (%"class.std::__1::ctype"*, i8)***, !dbg !3250 
  %vtable = load i8 (%"class.std::__1::ctype"*, i8)**, i8 (%"class.std::__1::ctype"*, i8)*** %1, align 8, !dbg !3250 
  %vfn = getelementptr inbounds i8 (%"class.std::__1::ctype"*, i8)*, i8 (%"class.std::__1::ctype"*, i8)** %vtable, i64 7, !dbg !3250 
  %2 = load i8 (%"class.std::__1::ctype"*, i8)*, i8 (%"class.std::__1::ctype"*, i8)** %vfn, align 8, !dbg !3250 
  %call = call signext i8 %2(%"class.std::__1::ctype"* %this1, i8 signext %0), !dbg !3250 
  ret i8 %call, !dbg !3251 
} 

declare %"class.std::__1::locale"* @_ZNSt3__16localeD1Ev(%"class.std::__1::locale"* returned) unnamed_addr #4 

declare %"class.std::__1::locale::facet"* @_ZNKSt3__16locale9use_facetERNS0_2idE(%"class.std::__1::locale"*, %"class.std::__1::locale::id"* nonnull align 8 dereferenceable(12)) #4 

; Function Attrs: noinline optnone ssp uwtable 
define internal void @_ZNSt3__18ios_base8setstateEj(%"class.std::__1::ios_base"* %this, i32 %__state) #2 align 2 !dbg !3252 { 
entry: 
%loadfile   = load %struct.__sFILE*, %struct.__sFILE** @file, align 8 
  %this.addr = alloca %"class.std::__1::ios_base"*, align 8 
  %__state.addr = alloca i32, align 4 
  store %"class.std::__1::ios_base"* %this, %"class.std::__1::ios_base"** %this.addr, align 8 
  call void @llvm.dbg.declare(metadata %"class.std::__1::ios_base"** %this.addr, metadata !3253, metadata !DIExpression()), !dbg !3254 
  store i32 %__state, i32* %__state.addr, align 4 
  call void @llvm.dbg.declare(metadata i32* %__state.addr, metadata !3255, metadata !DIExpression()), !dbg !3256 
  %this1 = load %"class.std::__1::ios_base"*, %"class.std::__1::ios_base"** %this.addr, align 8 
  %__rdstate_ = getelementptr inbounds %"class.std::__1::ios_base", %"class.std::__1::ios_base"* %this1, i32 0, i32 4, !dbg !3257 
  %0 = load i32, i32* %__rdstate_, align 8, !dbg !3257 
  %1 = load i32, i32* %__state.addr, align 4, !dbg !3258 
  %or = or i32 %0, %1, !dbg !3259 
  call void @_ZNSt3__18ios_base5clearEj(%"class.std::__1::ios_base"* %this1, i32 %or), !dbg !3260 
  ret void, !dbg !3261 
} 

declare void @_ZNSt3__18ios_base5clearEj(%"class.std::__1::ios_base"*, i32) #4 

; Function Attrs: noinline nounwind optnone ssp uwtable 
define internal i8* @_ZNSt3__1L12__to_addressIKcEEPT_S3_(i8* %__p) #3 !dbg !3262 { 
entry: 
%loadfile   = load %struct.__sFILE*, %struct.__sFILE** @file, align 8 
  %__p.addr = alloca i8*, align 8 
  store i8* %__p, i8** %__p.addr, align 8 
  call void @llvm.dbg.declare(metadata i8** %__p.addr, metadata !3267, metadata !DIExpression()), !dbg !3268 
  %0 = load i8*, i8** %__p.addr, align 8, !dbg !3269 
  ret i8* %0, !dbg !3270 
} 

; Function Attrs: noinline nounwind optnone ssp uwtable 
define internal i8* @_ZNKSt3__112basic_stringIcNS_11char_traitsIcEENS_9allocatorIcEEE13__get_pointerEv(%"class.std::__1::basic_string"* %this) #3 align 2 !dbg !3271 { 
entry: 
%loadfile   = load %struct.__sFILE*, %struct.__sFILE** @file, align 8 
  %this.addr = alloca %"class.std::__1::basic_string"*, align 8 
  store %"class.std::__1::basic_string"* %this, %"class.std::__1::basic_string"** %this.addr, align 8 
  call void @llvm.dbg.declare(metadata %"class.std::__1::basic_string"** %this.addr, metadata !3272, metadata !DIExpression()), !dbg !3273 
  %this1 = load %"class.std::__1::basic_string"*, %"class.std::__1::basic_string"** %this.addr, align 8 
  %call = call zeroext i1 @_ZNKSt3__112basic_stringIcNS_11char_traitsIcEENS_9allocatorIcEEE9__is_longEv(%"class.std::__1::basic_string"* %this1) #8, !dbg !3274 
  br i1 %call, label %cond.true, label %cond.false, !dbg !3274 

cond.true:                                        ; preds = %entry 
  %call2 = call i8* @_ZNKSt3__112basic_stringIcNS_11char_traitsIcEENS_9allocatorIcEEE18__get_long_pointerEv(%"class.std::__1::basic_string"* %this1) #8, !dbg !3275 
  br label %cond.end, !dbg !3274 

cond.false:                                       ; preds = %entry 
  %call3 = call i8* @_ZNKSt3__112basic_stringIcNS_11char_traitsIcEENS_9allocatorIcEEE19__get_short_pointerEv(%"class.std::__1::basic_string"* %this1) #8, !dbg !3276 
  br label %cond.end, !dbg !3274 

cond.end:                                         ; preds = %cond.false, %cond.true 
  %cond = phi i8* [ %call2, %cond.true ], [ %call3, %cond.false ], !dbg !3274 
  ret i8* %cond, !dbg !3277 
} 

; Function Attrs: noinline nounwind optnone ssp uwtable 
define internal i8* @_ZNKSt3__112basic_stringIcNS_11char_traitsIcEENS_9allocatorIcEEE18__get_long_pointerEv(%"class.std::__1::basic_string"* %this) #3 align 2 !dbg !3278 { 
entry: 
%loadfile   = load %struct.__sFILE*, %struct.__sFILE** @file, align 8 
  %this.addr = alloca %"class.std::__1::basic_string"*, align 8 
  store %"class.std::__1::basic_string"* %this, %"class.std::__1::basic_string"** %this.addr, align 8 
  call void @llvm.dbg.declare(metadata %"class.std::__1::basic_string"** %this.addr, metadata !3279, metadata !DIExpression()), !dbg !3280 
  %this1 = load %"class.std::__1::basic_string"*, %"class.std::__1::basic_string"** %this.addr, align 8 
  %__r_ = getelementptr inbounds %"class.std::__1::basic_string", %"class.std::__1::basic_string"* %this1, i32 0, i32 0, !dbg !3281 
  %call = call nonnull align 8 dereferenceable(24) %"struct.std::__1::basic_string<char>::__rep"* @_ZNKSt3__117__compressed_pairINS_12basic_stringIcNS_11char_traitsIcEENS_9allocatorIcEEE5__repES5_E5firstEv(%"class.std::__1::__compressed_pair"* %__r_) #8, !dbg !3282 
  %0 = getelementptr inbounds %"struct.std::__1::basic_string<char>::__rep", %"struct.std::__1::basic_string<char>::__rep"* %call, i32 0, i32 0, !dbg !3283 
  %__l = bitcast %union.anon* %0 to %"struct.std::__1::basic_string<char>::__long"*, !dbg !3283 
  %__data_ = getelementptr inbounds %"struct.std::__1::basic_string<char>::__long", %"struct.std::__1::basic_string<char>::__long"* %__l, i32 0, i32 0, !dbg !3284 
  %1 = load i8*, i8** %__data_, align 8, !dbg !3284 
  ret i8* %1, !dbg !3285 
} 

; Function Attrs: noinline nounwind optnone ssp uwtable 
define internal i8* @_ZNKSt3__112basic_stringIcNS_11char_traitsIcEENS_9allocatorIcEEE19__get_short_pointerEv(%"class.std::__1::basic_string"* %this) #3 align 2 !dbg !3286 { 
entry: 
%loadfile   = load %struct.__sFILE*, %struct.__sFILE** @file, align 8 
  %this.addr = alloca %"class.std::__1::basic_string"*, align 8 
  store %"class.std::__1::basic_string"* %this, %"class.std::__1::basic_string"** %this.addr, align 8 
  call void @llvm.dbg.declare(metadata %"class.std::__1::basic_string"** %this.addr, metadata !3287, metadata !DIExpression()), !dbg !3288 
  %this1 = load %"class.std::__1::basic_string"*, %"class.std::__1::basic_string"** %this.addr, align 8 
  %__r_ = getelementptr inbounds %"class.std::__1::basic_string", %"class.std::__1::basic_string"* %this1, i32 0, i32 0, !dbg !3289 
  %call = call nonnull align 8 dereferenceable(24) %"struct.std::__1::basic_string<char>::__rep"* @_ZNKSt3__117__compressed_pairINS_12basic_stringIcNS_11char_traitsIcEENS_9allocatorIcEEE5__repES5_E5firstEv(%"class.std::__1::__compressed_pair"* %__r_) #8, !dbg !3290 
  %0 = getelementptr inbounds %"struct.std::__1::basic_string<char>::__rep", %"struct.std::__1::basic_string<char>::__rep"* %call, i32 0, i32 0, !dbg !3291 
  %__s = bitcast %union.anon* %0 to %"struct.std::__1::basic_string<char>::__short"*, !dbg !3291 
  %__data_ = getelementptr inbounds %"struct.std::__1::basic_string<char>::__short", %"struct.std::__1::basic_string<char>::__short"* %__s, i32 0, i32 0, !dbg !3292 
  %arrayidx = getelementptr inbounds [23 x i8], [23 x i8]* %__data_, i64 0, i64 0, !dbg !3289 
  %call2 = call i8* @_ZNSt3__114pointer_traitsIPKcE10pointer_toERS1_(i8* nonnull align 1 dereferenceable(1) %arrayidx) #8, !dbg !3293 
  ret i8* %call2, !dbg !3294 
} 

; Function Attrs: noinline nounwind optnone ssp uwtable 
define internal i8* @_ZNSt3__114pointer_traitsIPKcE10pointer_toERS1_(i8* nonnull align 1 dereferenceable(1) %__r) #3 align 2 !dbg !3295 { 
entry: 
%loadfile   = load %struct.__sFILE*, %struct.__sFILE** @file, align 8 
  %__r.addr = alloca i8*, align 8 
  store i8* %__r, i8** %__r.addr, align 8 
  call void @llvm.dbg.declare(metadata i8** %__r.addr, metadata !3311, metadata !DIExpression()), !dbg !3312 
  %0 = load i8*, i8** %__r.addr, align 8, !dbg !3313 
  %call = call i8* @_ZNSt3__1L9addressofIKcEEPT_RS2_(i8* nonnull align 1 dereferenceable(1) %0) #8, !dbg !3314 
  ret i8* %call, !dbg !3315 
} 

; Function Attrs: noinline nounwind optnone ssp uwtable 
define internal i8* @_ZNSt3__1L9addressofIKcEEPT_RS2_(i8* nonnull align 1 dereferenceable(1) %__x) #3 !dbg !3316 { 
entry: 
%loadfile   = load %struct.__sFILE*, %struct.__sFILE** @file, align 8 
  %__x.addr = alloca i8*, align 8 
  store i8* %__x, i8** %__x.addr, align 8 
  call void @llvm.dbg.declare(metadata i8** %__x.addr, metadata !3319, metadata !DIExpression()), !dbg !3320 
  %0 = load i8*, i8** %__x.addr, align 8, !dbg !3321 
  ret i8* %0, !dbg !3322 
} 

; Function Attrs: noinline nounwind optnone ssp uwtable 
define internal i64 @_ZNKSt3__112basic_stringIcNS_11char_traitsIcEENS_9allocatorIcEEE15__get_long_sizeEv(%"class.std::__1::basic_string"* %this) #3 align 2 !dbg !3323 { 
entry: 
%loadfile   = load %struct.__sFILE*, %struct.__sFILE** @file, align 8 
  %this.addr = alloca %"class.std::__1::basic_string"*, align 8 
  store %"class.std::__1::basic_string"* %this, %"class.std::__1::basic_string"** %this.addr, align 8 
  call void @llvm.dbg.declare(metadata %"class.std::__1::basic_string"** %this.addr, metadata !3324, metadata !DIExpression()), !dbg !3325 
  %this1 = load %"class.std::__1::basic_string"*, %"class.std::__1::basic_string"** %this.addr, align 8 
  %__r_ = getelementptr inbounds %"class.std::__1::basic_string", %"class.std::__1::basic_string"* %this1, i32 0, i32 0, !dbg !3326 
  %call = call nonnull align 8 dereferenceable(24) %"struct.std::__1::basic_string<char>::__rep"* @_ZNKSt3__117__compressed_pairINS_12basic_stringIcNS_11char_traitsIcEENS_9allocatorIcEEE5__repES5_E5firstEv(%"class.std::__1::__compressed_pair"* %__r_) #8, !dbg !3327 
  %0 = getelementptr inbounds %"struct.std::__1::basic_string<char>::__rep", %"struct.std::__1::basic_string<char>::__rep"* %call, i32 0, i32 0, !dbg !3328 
  %__l = bitcast %union.anon* %0 to %"struct.std::__1::basic_string<char>::__long"*, !dbg !3328 
  %__size_ = getelementptr inbounds %"struct.std::__1::basic_string<char>::__long", %"struct.std::__1::basic_string<char>::__long"* %__l, i32 0, i32 1, !dbg !3329 
  %1 = load i64, i64* %__size_, align 8, !dbg !3329 
  ret i64 %1, !dbg !3330 
} 

; Function Attrs: noinline nounwind optnone ssp uwtable 
define internal i64 @_ZNKSt3__112basic_stringIcNS_11char_traitsIcEENS_9allocatorIcEEE16__get_short_sizeEv(%"class.std::__1::basic_string"* %this) #3 align 2 !dbg !3331 { 
entry: 
%loadfile   = load %struct.__sFILE*, %struct.__sFILE** @file, align 8 
  %this.addr = alloca %"class.std::__1::basic_string"*, align 8 
  store %"class.std::__1::basic_string"* %this, %"class.std::__1::basic_string"** %this.addr, align 8 
  call void @llvm.dbg.declare(metadata %"class.std::__1::basic_string"** %this.addr, metadata !3332, metadata !DIExpression()), !dbg !3333 
  %this1 = load %"class.std::__1::basic_string"*, %"class.std::__1::basic_string"** %this.addr, align 8 
  %__r_ = getelementptr inbounds %"class.std::__1::basic_string", %"class.std::__1::basic_string"* %this1, i32 0, i32 0, !dbg !3334 
  %call = call nonnull align 8 dereferenceable(24) %"struct.std::__1::basic_string<char>::__rep"* @_ZNKSt3__117__compressed_pairINS_12basic_stringIcNS_11char_traitsIcEENS_9allocatorIcEEE5__repES5_E5firstEv(%"class.std::__1::__compressed_pair"* %__r_) #8, !dbg !3335 
  %0 = getelementptr inbounds %"struct.std::__1::basic_string<char>::__rep", %"struct.std::__1::basic_string<char>::__rep"* %call, i32 0, i32 0, !dbg !3336 
  %__s = bitcast %union.anon* %0 to %"struct.std::__1::basic_string<char>::__short"*, !dbg !3336 
  %1 = getelementptr inbounds %"struct.std::__1::basic_string<char>::__short", %"struct.std::__1::basic_string<char>::__short"* %__s, i32 0, i32 1, !dbg !3337 
  %__size_ = getelementptr inbounds %struct.anon, %struct.anon* %1, i32 0, i32 0, !dbg !3337 
  %2 = load i8, i8* %__size_, align 1, !dbg !3337 
  %conv = zext i8 %2 to i64, !dbg !3334 
  ret i64 %conv, !dbg !3338 
} 

declare i32 @_ZNKSt3__112basic_stringIcNS_11char_traitsIcEENS_9allocatorIcEEE7compareEmmPKcm(%"class.std::__1::basic_string"*, i64, i64, i8*, i64) #4 

attributes #0 = { noinline norecurse optnone ssp uwtable "frame-pointer"="non-leaf" "min-legal-vector-width"="0" "no-trapping-math"="true" "probe-stack"="__chkstk_darwin" "stack-protector-buffer-size"="8" "target-cpu"="apple-m1" "target-features"="+aes,+crc,+crypto,+dotprod,+fp-armv8,+fp16fml,+fullfp16,+lse,+neon,+ras,+rcpc,+rdm,+sha2,+sha3,+sm4,+v8.5a,+zcm,+zcz" } 
attributes #1 = { nofree nosync nounwind readnone speculatable willreturn } 
attributes #2 = { noinline optnone ssp uwtable "frame-pointer"="non-leaf" "min-legal-vector-width"="0" "no-trapping-math"="true" "probe-stack"="__chkstk_darwin" "stack-protector-buffer-size"="8" "target-cpu"="apple-m1" "target-features"="+aes,+crc,+crypto,+dotprod,+fp-armv8,+fp16fml,+fullfp16,+lse,+neon,+ras,+rcpc,+rdm,+sha2,+sha3,+sm4,+v8.5a,+zcm,+zcz" } 
attributes #3 = { noinline nounwind optnone ssp uwtable "frame-pointer"="non-leaf" "min-legal-vector-width"="0" "no-trapping-math"="true" "probe-stack"="__chkstk_darwin" "stack-protector-buffer-size"="8" "target-cpu"="apple-m1" "target-features"="+aes,+crc,+crypto,+dotprod,+fp-armv8,+fp16fml,+fullfp16,+lse,+neon,+ras,+rcpc,+rdm,+sha2,+sha3,+sm4,+v8.5a,+zcm,+zcz" } 
attributes #4 = { "frame-pointer"="non-leaf" "no-trapping-math"="true" "probe-stack"="__chkstk_darwin" "stack-protector-buffer-size"="8" "target-cpu"="apple-m1" "target-features"="+aes,+crc,+crypto,+dotprod,+fp-armv8,+fp16fml,+fullfp16,+lse,+neon,+ras,+rcpc,+rdm,+sha2,+sha3,+sm4,+v8.5a,+zcm,+zcz" } 
attributes #5 = { noinline noreturn nounwind } 
attributes #6 = { nounwind "frame-pointer"="non-leaf" "no-trapping-math"="true" "probe-stack"="__chkstk_darwin" "stack-protector-buffer-size"="8" "target-cpu"="apple-m1" "target-features"="+aes,+crc,+crypto,+dotprod,+fp-armv8,+fp16fml,+fullfp16,+lse,+neon,+ras,+rcpc,+rdm,+sha2,+sha3,+sm4,+v8.5a,+zcm,+zcz" } 
attributes #7 = { argmemonly nofree nounwind willreturn } 
attributes #8 = { nounwind } 
attributes #9 = { noreturn nounwind } 
attributes #10 = { noreturn } 

!llvm.module.flags = !{!0, !1, !2, !3, !4, !5, !6, !7, !8, !9, !10} 
!llvm.dbg.cu = !{!11} 
!llvm.ident = !{!2457} 

!0 = !{i32 2, !"SDK Version", [2 x i32] [i32 12, i32 3]} 
!1 = !{i32 7, !"Dwarf Version", i32 4} 
!2 = !{i32 2, !"Debug Info Version", i32 3} 
!3 = !{i32 1, !"wchar_size", i32 4} 
!4 = !{i32 1, !"branch-target-enforcement", i32 0} 
!5 = !{i32 1, !"sign-return-address", i32 0} 
!6 = !{i32 1, !"sign-return-address-all", i32 0} 
!7 = !{i32 1, !"sign-return-address-with-bkey", i32 0} 
!8 = !{i32 7, !"PIC Level", i32 2} 
!9 = !{i32 7, !"uwtable", i32 1} 
!10 = !{i32 7, !"frame-pointer", i32 1} 
!11 = distinct !DICompileUnit(language: DW_LANG_C_plus_plus, file: !12, producer: "Apple clang version 14.0.0 (clang-1400.0.29.102)", isOptimized: false, runtimeVersion: 0, emissionKind: FullDebug, enums: !13, retainedTypes: !1151, imports: !1538, splitDebugInlining: false, nameTableKind: None, sysroot: "/Applications/Xcode.app/Contents/Developer/Platforms/MacOSX.platform/Developer/SDKs/MacOSX.sdk", sdk: "MacOSX.sdk") 
!12 = !DIFile(filename: "test.cpp", directory: "/Users/han/GitHub/llvm-project/build/tests") 
!13 = !{!14, !1146} 
!14 = !DICompositeType(tag: DW_TAG_enumeration_type, name: "event", scope: !16, file: !15, line: 307, baseType: !29, size: 32, elements: !1142, identifier: "_ZTSNSt3__18ios_base5eventE") 
!15 = !DIFile(filename: "/Applications/Xcode.app/Contents/Developer/Platforms/MacOSX.platform/Developer/SDKs/MacOSX.sdk/usr/include/c++/v1/ios", directory: "") 
!16 = distinct !DICompositeType(tag: DW_TAG_class_type, name: "ios_base", scope: !17, file: !15, line: 230, size: 1088, flags: DIFlagTypePassByReference | DIFlagNonTrivial, elements: !19, vtableHolder: !16) 
!17 = !DINamespace(name: "__1", scope: !18, exportSymbols: true) 
!18 = !DINamespace(name: "std", scope: null) 
!19 = !{!20, !26, !30, !31, !32, !33, !34, !35, !36, !37, !38, !39, !40, !41, !42, !43, !44, !45, !46, !47, !50, !51, !52, !53, !56, !57, !58, !59, !60, !61, !62, !67, !68, !69, !70, !72, !73, !80, !82, !85, !86, !89, !91, !92, !93, !95, !96, !97, !102, !106, !107, !110, !113, !116, !119, !120, !121, !1079, !1082, !1083, !1087, !1091, !1094, !1097, !1101, !1104, !1107, !1110, !1113, !1114, !1117, !1118, !1119, !1120, !1121, !1122, !1123, !1124, !1125, !1126, !1129, !1132, !1133, !1136, !1137, !1140, !1141} 
!20 = !DIDerivedType(tag: DW_TAG_member, name: "_vptr$ios_base", scope: !15, file: !15, baseType: !21, size: 64, flags: DIFlagArtificial) 
!21 = !DIDerivedType(tag: DW_TAG_pointer_type, baseType: !22, size: 64) 
!22 = !DIDerivedType(tag: DW_TAG_pointer_type, name: "__vtbl_ptr_type", baseType: !23, size: 64) 
!23 = !DISubroutineType(types: !24) 
!24 = !{!25} 
!25 = !DIBasicType(name: "int", size: 32, encoding: DW_ATE_signed) 
!26 = !DIDerivedType(tag: DW_TAG_member, name: "boolalpha", scope: !16, file: !15, line: 236, baseType: !27, flags: DIFlagPublic | DIFlagStaticMember, extraData: i32 1) 
!27 = !DIDerivedType(tag: DW_TAG_const_type, baseType: !28) 
!28 = !DIDerivedType(tag: DW_TAG_typedef, name: "fmtflags", scope: !16, file: !15, line: 235, baseType: !29) 
!29 = !DIBasicType(name: "unsigned int", size: 32, encoding: DW_ATE_unsigned) 
!30 = !DIDerivedType(tag: DW_TAG_member, name: "dec", scope: !16, file: !15, line: 237, baseType: !27, flags: DIFlagPublic | DIFlagStaticMember, extraData: i32 2) 
!31 = !DIDerivedType(tag: DW_TAG_member, name: "fixed", scope: !16, file: !15, line: 238, baseType: !27, flags: DIFlagPublic | DIFlagStaticMember, extraData: i32 4) 
!32 = !DIDerivedType(tag: DW_TAG_member, name: "hex", scope: !16, file: !15, line: 239, baseType: !27, flags: DIFlagPublic | DIFlagStaticMember, extraData: i32 8) 
!33 = !DIDerivedType(tag: DW_TAG_member, name: "internal", scope: !16, file: !15, line: 240, baseType: !27, flags: DIFlagPublic | DIFlagStaticMember, extraData: i32 16) 
!34 = !DIDerivedType(tag: DW_TAG_member, name: "left", scope: !16, file: !15, line: 241, baseType: !27, flags: DIFlagPublic | DIFlagStaticMember, extraData: i32 32) 
!35 = !DIDerivedType(tag: DW_TAG_member, name: "oct", scope: !16, file: !15, line: 242, baseType: !27, flags: DIFlagPublic | DIFlagStaticMember, extraData: i32 64) 
!36 = !DIDerivedType(tag: DW_TAG_member, name: "right", scope: !16, file: !15, line: 243, baseType: !27, flags: DIFlagPublic | DIFlagStaticMember, extraData: i32 128) 
!37 = !DIDerivedType(tag: DW_TAG_member, name: "scientific", scope: !16, file: !15, line: 244, baseType: !27, flags: DIFlagPublic | DIFlagStaticMember, extraData: i32 256) 
!38 = !DIDerivedType(tag: DW_TAG_member, name: "showbase", scope: !16, file: !15, line: 245, baseType: !27, flags: DIFlagPublic | DIFlagStaticMember, extraData: i32 512) 
!39 = !DIDerivedType(tag: DW_TAG_member, name: "showpoint", scope: !16, file: !15, line: 246, baseType: !27, flags: DIFlagPublic | DIFlagStaticMember, extraData: i32 1024) 
!40 = !DIDerivedType(tag: DW_TAG_member, name: "showpos", scope: !16, file: !15, line: 247, baseType: !27, flags: DIFlagPublic | DIFlagStaticMember, extraData: i32 2048) 
!41 = !DIDerivedType(tag: DW_TAG_member, name: "skipws", scope: !16, file: !15, line: 248, baseType: !27, flags: DIFlagPublic | DIFlagStaticMember, extraData: i32 4096) 
!42 = !DIDerivedType(tag: DW_TAG_member, name: "unitbuf", scope: !16, file: !15, line: 249, baseType: !27, flags: DIFlagPublic | DIFlagStaticMember, extraData: i32 8192) 
!43 = !DIDerivedType(tag: DW_TAG_member, name: "uppercase", scope: !16, file: !15, line: 250, baseType: !27, flags: DIFlagPublic | DIFlagStaticMember, extraData: i32 16384) 
!44 = !DIDerivedType(tag: DW_TAG_member, name: "adjustfield", scope: !16, file: !15, line: 251, baseType: !27, flags: DIFlagPublic | DIFlagStaticMember, extraData: i32 176) 
!45 = !DIDerivedType(tag: DW_TAG_member, name: "basefield", scope: !16, file: !15, line: 252, baseType: !27, flags: DIFlagPublic | DIFlagStaticMember, extraData: i32 74) 
!46 = !DIDerivedType(tag: DW_TAG_member, name: "floatfield", scope: !16, file: !15, line: 253, baseType: !27, flags: DIFlagPublic | DIFlagStaticMember, extraData: i32 260) 
!47 = !DIDerivedType(tag: DW_TAG_member, name: "badbit", scope: !16, file: !15, line: 256, baseType: !48, flags: DIFlagPublic | DIFlagStaticMember, extraData: i32 1) 
!48 = !DIDerivedType(tag: DW_TAG_const_type, baseType: !49) 
!49 = !DIDerivedType(tag: DW_TAG_typedef, name: "iostate", scope: !16, file: !15, line: 255, baseType: !29) 
!50 = !DIDerivedType(tag: DW_TAG_member, name: "eofbit", scope: !16, file: !15, line: 257, baseType: !48, flags: DIFlagPublic | DIFlagStaticMember, extraData: i32 2) 
!51 = !DIDerivedType(tag: DW_TAG_member, name: "failbit", scope: !16, file: !15, line: 258, baseType: !48, flags: DIFlagPublic | DIFlagStaticMember, extraData: i32 4) 
!52 = !DIDerivedType(tag: DW_TAG_member, name: "goodbit", scope: !16, file: !15, line: 259, baseType: !48, flags: DIFlagPublic | DIFlagStaticMember, extraData: i32 0) 
!53 = !DIDerivedType(tag: DW_TAG_member, name: "app", scope: !16, file: !15, line: 262, baseType: !54, flags: DIFlagPublic | DIFlagStaticMember, extraData: i32 1) 
!54 = !DIDerivedType(tag: DW_TAG_const_type, baseType: !55) 
!55 = !DIDerivedType(tag: DW_TAG_typedef, name: "openmode", scope: !16, file: !15, line: 261, baseType: !29) 
!56 = !DIDerivedType(tag: DW_TAG_member, name: "ate", scope: !16, file: !15, line: 263, baseType: !54, flags: DIFlagPublic | DIFlagStaticMember, extraData: i32 2) 
!57 = !DIDerivedType(tag: DW_TAG_member, name: "binary", scope: !16, file: !15, line: 264, baseType: !54, flags: DIFlagPublic | DIFlagStaticMember, extraData: i32 4) 
!58 = !DIDerivedType(tag: DW_TAG_member, name: "in", scope: !16, file: !15, line: 265, baseType: !54, flags: DIFlagPublic | DIFlagStaticMember, extraData: i32 8) 
!59 = !DIDerivedType(tag: DW_TAG_member, name: "out", scope: !16, file: !15, line: 266, baseType: !54, flags: DIFlagPublic | DIFlagStaticMember, extraData: i32 16) 
!60 = !DIDerivedType(tag: DW_TAG_member, name: "trunc", scope: !16, file: !15, line: 267, baseType: !54, flags: DIFlagPublic | DIFlagStaticMember, extraData: i32 32) 
!61 = !DIDerivedType(tag: DW_TAG_member, name: "__fmtflags_", scope: !16, file: !15, line: 370, baseType: !28, size: 32, offset: 64) 
!62 = !DIDerivedType(tag: DW_TAG_member, name: "__precision_", scope: !16, file: !15, line: 371, baseType: !63, size: 64, offset: 128) 
!63 = !DIDerivedType(tag: DW_TAG_typedef, name: "streamsize", scope: !17, file: !15, line: 228, baseType: !64) 
!64 = !DIDerivedType(tag: DW_TAG_typedef, name: "ptrdiff_t", file: !65, line: 35, baseType: !66) 
!65 = !DIFile(filename: "/Applications/Xcode.app/Contents/Developer/Toolchains/XcodeDefault.xctoolchain/usr/lib/clang/14.0.0/include/stddef.h", directory: "") 
!66 = !DIBasicType(name: "long", size: 64, encoding: DW_ATE_signed) 
!67 = !DIDerivedType(tag: DW_TAG_member, name: "__width_", scope: !16, file: !15, line: 372, baseType: !63, size: 64, offset: 192) 
!68 = !DIDerivedType(tag: DW_TAG_member, name: "__rdstate_", scope: !16, file: !15, line: 373, baseType: !49, size: 32, offset: 256) 
!69 = !DIDerivedType(tag: DW_TAG_member, name: "__exceptions_", scope: !16, file: !15, line: 374, baseType: !49, size: 32, offset: 288) 
!70 = !DIDerivedType(tag: DW_TAG_member, name: "__rdbuf_", scope: !16, file: !15, line: 375, baseType: !71, size: 64, offset: 320) 
!71 = !DIDerivedType(tag: DW_TAG_pointer_type, baseType: null, size: 64) 
!72 = !DIDerivedType(tag: DW_TAG_member, name: "__loc_", scope: !16, file: !15, line: 376, baseType: !71, size: 64, offset: 384) 
!73 = !DIDerivedType(tag: DW_TAG_member, name: "__fn_", scope: !16, file: !15, line: 377, baseType: !74, size: 64, offset: 448) 
!74 = !DIDerivedType(tag: DW_TAG_pointer_type, baseType: !75, size: 64) 
!75 = !DIDerivedType(tag: DW_TAG_typedef, name: "event_callback", scope: !16, file: !15, line: 308, baseType: !76) 
!76 = !DIDerivedType(tag: DW_TAG_pointer_type, baseType: !77, size: 64) 
!77 = !DISubroutineType(types: !78) 
!78 = !{null, !14, !79, !25} 
!79 = !DIDerivedType(tag: DW_TAG_reference_type, baseType: !16, size: 64) 
!80 = !DIDerivedType(tag: DW_TAG_member, name: "__index_", scope: !16, file: !15, line: 378, baseType: !81, size: 64, offset: 512) 
!81 = !DIDerivedType(tag: DW_TAG_pointer_type, baseType: !25, size: 64) 
!82 = !DIDerivedType(tag: DW_TAG_member, name: "__event_size_", scope: !16, file: !15, line: 379, baseType: !83, size: 64, offset: 576) 
!83 = !DIDerivedType(tag: DW_TAG_typedef, name: "size_t", file: !65, line: 46, baseType: !84) 
!84 = !DIBasicType(name: "unsigned long", size: 64, encoding: DW_ATE_unsigned) 
!85 = !DIDerivedType(tag: DW_TAG_member, name: "__event_cap_", scope: !16, file: !15, line: 380, baseType: !83, size: 64, offset: 640) 
!86 = !DIDerivedType(tag: DW_TAG_member, name: "__xindex_", scope: !16, file: !15, line: 384, baseType: !87, flags: DIFlagStaticMember) 
!87 = !DICompositeType(tag: DW_TAG_structure_type, name: "atomic<int>", scope: !17, file: !88, line: 1815, flags: DIFlagFwdDecl | DIFlagNonTrivial, identifier: "_ZTSNSt3__16atomicIiEE") 
!88 = !DIFile(filename: "/Applications/Xcode.app/Contents/Developer/Platforms/MacOSX.platform/Developer/SDKs/MacOSX.sdk/usr/include/c++/v1/atomic", directory: "") 
!89 = !DIDerivedType(tag: DW_TAG_member, name: "__iarray_", scope: !16, file: !15, line: 388, baseType: !90, size: 64, offset: 704) 
!90 = !DIDerivedType(tag: DW_TAG_pointer_type, baseType: !66, size: 64) 
!91 = !DIDerivedType(tag: DW_TAG_member, name: "__iarray_size_", scope: !16, file: !15, line: 389, baseType: !83, size: 64, offset: 768) 
!92 = !DIDerivedType(tag: DW_TAG_member, name: "__iarray_cap_", scope: !16, file: !15, line: 390, baseType: !83, size: 64, offset: 832) 
!93 = !DIDerivedType(tag: DW_TAG_member, name: "__parray_", scope: !16, file: !15, line: 391, baseType: !94, size: 64, offset: 896) 
!94 = !DIDerivedType(tag: DW_TAG_pointer_type, baseType: !71, size: 64) 
!95 = !DIDerivedType(tag: DW_TAG_member, name: "__parray_size_", scope: !16, file: !15, line: 392, baseType: !83, size: 64, offset: 960) 
!96 = !DIDerivedType(tag: DW_TAG_member, name: "__parray_cap_", scope: !16, file: !15, line: 393, baseType: !83, size: 64, offset: 1024) 
!97 = !DISubprogram(name: "flags", linkageName: "_ZNKSt3__18ios_base5flagsEv", scope: !16, file: !15, line: 283, type: !98, scopeLine: 283, flags: DIFlagPublic | DIFlagPrototyped, spFlags: DISPFlagLocalToUnit) 
!98 = !DISubroutineType(types: !99) 
!99 = !{!28, !100} 
!100 = !DIDerivedType(tag: DW_TAG_pointer_type, baseType: !101, size: 64, flags: DIFlagArtificial | DIFlagObjectPointer) 
!101 = !DIDerivedType(tag: DW_TAG_const_type, baseType: !16) 
!102 = !DISubprogram(name: "flags", linkageName: "_ZNSt3__18ios_base5flagsEj", scope: !16, file: !15, line: 284, type: !103, scopeLine: 284, flags: DIFlagPublic | DIFlagPrototyped, spFlags: DISPFlagLocalToUnit) 
!103 = !DISubroutineType(types: !104) 
!104 = !{!28, !105, !28} 
!105 = !DIDerivedType(tag: DW_TAG_pointer_type, baseType: !16, size: 64, flags: DIFlagArtificial | DIFlagObjectPointer) 
!106 = !DISubprogram(name: "setf", linkageName: "_ZNSt3__18ios_base4setfEj", scope: !16, file: !15, line: 285, type: !103, scopeLine: 285, flags: DIFlagPublic | DIFlagPrototyped, spFlags: DISPFlagLocalToUnit) 
!107 = !DISubprogram(name: "setf", linkageName: "_ZNSt3__18ios_base4setfEjj", scope: !16, file: !15, line: 286, type: !108, scopeLine: 286, flags: DIFlagPublic | DIFlagPrototyped, spFlags: DISPFlagLocalToUnit) 
!108 = !DISubroutineType(types: !109) 
!109 = !{!28, !105, !28, !28} 
!110 = !DISubprogram(name: "unsetf", linkageName: "_ZNSt3__18ios_base6unsetfEj", scope: !16, file: !15, line: 287, type: !111, scopeLine: 287, flags: DIFlagPublic | DIFlagPrototyped, spFlags: DISPFlagLocalToUnit) 
!111 = !DISubroutineType(types: !112) 
!112 = !{null, !105, !28} 
!113 = !DISubprogram(name: "precision", linkageName: "_ZNKSt3__18ios_base9precisionEv", scope: !16, file: !15, line: 289, type: !114, scopeLine: 289, flags: DIFlagPublic | DIFlagPrototyped, spFlags: DISPFlagLocalToUnit) 
!114 = !DISubroutineType(types: !115) 
!115 = !{!63, !100} 
!116 = !DISubprogram(name: "precision", linkageName: "_ZNSt3__18ios_base9precisionEl", scope: !16, file: !15, line: 290, type: !117, scopeLine: 290, flags: DIFlagPublic | DIFlagPrototyped, spFlags: DISPFlagLocalToUnit) 
!117 = !DISubroutineType(types: !118) 
!118 = !{!63, !105, !63} 
!119 = !DISubprogram(name: "width", linkageName: "_ZNKSt3__18ios_base5widthEv", scope: !16, file: !15, line: 291, type: !114, scopeLine: 291, flags: DIFlagPublic | DIFlagPrototyped, spFlags: DISPFlagLocalToUnit) 
!120 = !DISubprogram(name: "width", linkageName: "_ZNSt3__18ios_base5widthEl", scope: !16, file: !15, line: 292, type: !117, scopeLine: 292, flags: DIFlagPublic | DIFlagPrototyped, spFlags: DISPFlagLocalToUnit) 
!121 = !DISubprogram(name: "imbue", linkageName: "_ZNSt3__18ios_base5imbueERKNS_6localeE", scope: !16, file: !15, line: 295, type: !122, scopeLine: 295, flags: DIFlagPublic | DIFlagPrototyped, spFlags: 0) 
!122 = !DISubroutineType(types: !123) 
!123 = !{!124, !105, !147} 
!124 = distinct !DICompositeType(tag: DW_TAG_class_type, name: "locale", scope: !17, file: !125, line: 125, size: 64, flags: DIFlagTypePassByReference | DIFlagNonTrivial, elements: !126, identifier: "_ZTSNSt3__16localeE") 
!125 = !DIFile(filename: "/Applications/Xcode.app/Contents/Developer/Platforms/MacOSX.platform/Developer/SDKs/MacOSX.sdk/usr/include/c++/v1/__locale", directory: "") 
!126 = !{!127, !130, !131, !132, !133, !134, !135, !136, !137, !140, !144, !149, !155, !955, !958, !961, !964, !965, !968, !972, !975, !976, !979, !982, !1027, !1031, !1074} 
!127 = !DIDerivedType(tag: DW_TAG_member, name: "none", scope: !124, file: !125, line: 135, baseType: !128, flags: DIFlagPublic | DIFlagStaticMember, extraData: i32 0) 
!128 = !DIDerivedType(tag: DW_TAG_const_type, baseType: !129) 
!129 = !DIDerivedType(tag: DW_TAG_typedef, name: "category", scope: !124, file: !125, line: 132, baseType: !25) 
!130 = !DIDerivedType(tag: DW_TAG_member, name: "collate", scope: !124, file: !125, line: 136, baseType: !128, flags: DIFlagPublic | DIFlagStaticMember, extraData: i32 1) 
!131 = !DIDerivedType(tag: DW_TAG_member, name: "ctype", scope: !124, file: !125, line: 137, baseType: !128, flags: DIFlagPublic | DIFlagStaticMember, extraData: i32 2) 
!132 = !DIDerivedType(tag: DW_TAG_member, name: "monetary", scope: !124, file: !125, line: 138, baseType: !128, flags: DIFlagPublic | DIFlagStaticMember, extraData: i32 8) 
!133 = !DIDerivedType(tag: DW_TAG_member, name: "numeric", scope: !124, file: !125, line: 139, baseType: !128, flags: DIFlagPublic | DIFlagStaticMember, extraData: i32 16) 
!134 = !DIDerivedType(tag: DW_TAG_member, name: "time", scope: !124, file: !125, line: 140, baseType: !128, flags: DIFlagPublic | DIFlagStaticMember, extraData: i32 32) 
!135 = !DIDerivedType(tag: DW_TAG_member, name: "messages", scope: !124, file: !125, line: 141, baseType: !128, flags: DIFlagPublic | DIFlagStaticMember, extraData: i32 4) 
!136 = !DIDerivedType(tag: DW_TAG_member, name: "all", scope: !124, file: !125, line: 142, baseType: !128, flags: DIFlagPublic | DIFlagStaticMember, extraData: i32 63) 
!137 = !DIDerivedType(tag: DW_TAG_member, name: "__locale_", scope: !124, file: !125, line: 178, baseType: !138, size: 64) 
!138 = !DIDerivedType(tag: DW_TAG_pointer_type, baseType: !139, size: 64) 
!139 = !DICompositeType(tag: DW_TAG_class_type, name: "__imp", scope: !124, file: !125, line: 177, flags: DIFlagFwdDecl | DIFlagNonTrivial, identifier: "_ZTSNSt3__16locale5__impE") 
!140 = !DISubprogram(name: "locale", scope: !124, file: !125, line: 145, type: !141, scopeLine: 145, flags: DIFlagPublic | DIFlagPrototyped, spFlags: 0) 
!141 = !DISubroutineType(types: !142) 
!142 = !{null, !143} 
!143 = !DIDerivedType(tag: DW_TAG_pointer_type, baseType: !124, size: 64, flags: DIFlagArtificial | DIFlagObjectPointer) 
!144 = !DISubprogram(name: "locale", scope: !124, file: !125, line: 146, type: !145, scopeLine: 146, flags: DIFlagPublic | DIFlagPrototyped, spFlags: 0) 
!145 = !DISubroutineType(types: !146) 
!146 = !{null, !143, !147} 
!147 = !DIDerivedType(tag: DW_TAG_reference_type, baseType: !148, size: 64) 
!148 = !DIDerivedType(tag: DW_TAG_const_type, baseType: !124) 
!149 = !DISubprogram(name: "locale", scope: !124, file: !125, line: 147, type: !150, scopeLine: 147, flags: DIFlagPublic | DIFlagExplicit | DIFlagPrototyped, spFlags: 0) 
!150 = !DISubroutineType(types: !151) 
!151 = !{null, !143, !152} 
!152 = !DIDerivedType(tag: DW_TAG_pointer_type, baseType: !153, size: 64) 
!153 = !DIDerivedType(tag: DW_TAG_const_type, baseType: !154) 
!154 = !DIBasicType(name: "char", size: 8, encoding: DW_ATE_signed_char) 
!155 = !DISubprogram(name: "locale", scope: !124, file: !125, line: 148, type: !156, scopeLine: 148, flags: DIFlagPublic | DIFlagExplicit | DIFlagPrototyped, spFlags: 0) 
!156 = !DISubroutineType(types: !157) 
!157 = !{null, !143, !158} 
!158 = !DIDerivedType(tag: DW_TAG_reference_type, baseType: !159, size: 64) 
!159 = !DIDerivedType(tag: DW_TAG_const_type, baseType: !160) 
!160 = !DIDerivedType(tag: DW_TAG_typedef, name: "string", scope: !17, file: !161, line: 249, baseType: !162) 
!161 = !DIFile(filename: "/Applications/Xcode.app/Contents/Developer/Platforms/MacOSX.platform/Developer/SDKs/MacOSX.sdk/usr/include/c++/v1/iosfwd", directory: "") 
!162 = distinct !DICompositeType(tag: DW_TAG_class_type, name: "basic_string<char, std::__1::char_traits<char>, std::__1::allocator<char> >", scope: !17, file: !163, line: 693, size: 192, flags: DIFlagTypePassByReference | DIFlagNonTrivial, elements: !164, templateParams: !953, identifier: "_ZTSNSt3__112basic_stringIcNS_11char_traitsIcEENS_9allocatorIcEEEE") 
!163 = !DIFile(filename: "/Applications/Xcode.app/Contents/Developer/Platforms/MacOSX.platform/Developer/SDKs/MacOSX.sdk/usr/include/c++/v1/string", directory: "") 
!164 = !{!165, !177, !257, !258, !392, !393, !397, !403, !408, !411, !414, !417, !420, !423, !426, !427, !615, !619, !624, !627, !633, !638, !639, !640, !645, !650, !651, !652, !653, !654, !655, !656, !659, !660, !661, !662, !665, !668, !669, !670, !671, !672, !673, !676, !681, !686, !687, !688, !689, !690, !691, !692, !695, !698, !699, !702, !703, !706, !707, !710, !713, !714, !715, !716, !717, !718, !719, !720, !723, !726, !729, !732, !735, !738, !741, !744, !747, !750, !753, !756, !759, !762, !765, !768, !771, !774, !777, !781, !784, !787, !790, !791, !794, !797, !800, !803, !806, !807, !808, !809, !810, !811, !812, !813, !814, !815, !816, !817, !818, !819, !820, !821, !822, !823, !824, !825, !826, !829, !832, !835, !838, !841, !844, !845, !846, !847, !848, !852, !855, !856, !857, !858, !859, !860, !861, !862, !865, !868, !877, !878, !879, !880, !881, !882, !885, !888, !891, !892, !893, !896, !899, !900, !903, !904, !922, !937, !938, !941, !944, !945, !946, !947, !948, !949, !952} 
!165 = !DIDerivedType(tag: DW_TAG_inheritance, scope: !162, baseType: !166, extraData: i32 0) 
!166 = distinct !DICompositeType(tag: DW_TAG_class_type, name: "__basic_string_common<true>", scope: !17, file: !163, line: 640, size: 8, flags: DIFlagTypePassByValue, elements: !167, templateParams: !174, identifier: "_ZTSNSt3__121__basic_string_commonILb1EEE") 
!167 = !{!168, !173} 
!168 = !DISubprogram(name: "__throw_length_error", linkageName: "_ZNKSt3__121__basic_string_commonILb1EE20__throw_length_errorEv", scope: !166, file: !163, line: 622, type: !169, scopeLine: 622, flags: DIFlagProtected | DIFlagPrototyped | DIFlagNoReturn, spFlags: 0) 
!169 = !DISubroutineType(types: !170) 
!170 = !{null, !171} 
!171 = !DIDerivedType(tag: DW_TAG_pointer_type, baseType: !172, size: 64, flags: DIFlagArtificial | DIFlagObjectPointer) 
!172 = !DIDerivedType(tag: DW_TAG_const_type, baseType: !166) 
!173 = !DISubprogram(name: "__throw_out_of_range", linkageName: "_ZNKSt3__121__basic_string_commonILb1EE20__throw_out_of_rangeEv", scope: !166, file: !163, line: 623, type: !169, scopeLine: 623, flags: DIFlagProtected | DIFlagPrototyped | DIFlagNoReturn, spFlags: 0) 
!174 = !{!175} 
!175 = !DITemplateValueParameter(type: !176, value: i8 1) 
!176 = !DIBasicType(name: "bool", size: 8, encoding: DW_ATE_boolean) 
!177 = !DIDerivedType(tag: DW_TAG_member, name: "__short_mask", scope: !162, file: !163, line: 738, baseType: !178, flags: DIFlagStaticMember, extraData: i64 128) 
!178 = !DIDerivedType(tag: DW_TAG_const_type, baseType: !179) 
!179 = !DIDerivedType(tag: DW_TAG_typedef, name: "size_type", scope: !162, file: !163, line: 703, baseType: !180) 
!180 = !DIDerivedType(tag: DW_TAG_typedef, name: "size_type", scope: !182, file: !181, line: 238, baseType: !252) 
!181 = !DIFile(filename: "/Applications/Xcode.app/Contents/Developer/Platforms/MacOSX.platform/Developer/SDKs/MacOSX.sdk/usr/include/c++/v1/__memory/allocator_traits.h", directory: "") 
!182 = distinct !DICompositeType(tag: DW_TAG_structure_type, name: "allocator_traits<std::__1::allocator<char> >", scope: !17, file: !181, line: 229, size: 8, flags: DIFlagTypePassByValue, elements: !183, templateParams: !251, identifier: "_ZTSNSt3__116allocator_traitsINS_9allocatorIcEEEE") 
!183 = !{!184, !248} 
!184 = !DISubprogram(name: "allocate", linkageName: "_ZNSt3__116allocator_traitsINS_9allocatorIcEEE8allocateERS2_m", scope: !182, file: !181, line: 261, type: !185, scopeLine: 261, flags: DIFlagPrototyped | DIFlagStaticMember, spFlags: DISPFlagLocalToUnit) 
!185 = !DISubroutineType(types: !186) 
!186 = !{!187, !246, !180} 
!187 = !DIDerivedType(tag: DW_TAG_typedef, name: "pointer", scope: !182, file: !181, line: 233, baseType: !188) 
!188 = !DIDerivedType(tag: DW_TAG_typedef, name: "type", scope: !189, file: !181, line: 39, baseType: !221) 
!189 = distinct !DICompositeType(tag: DW_TAG_structure_type, name: "__pointer<char, std::__1::allocator<char>, std::__1::allocator<char>, true>", scope: !17, file: !181, line: 38, size: 8, flags: DIFlagTypePassByValue, elements: !190, templateParams: !191, identifier: "_ZTSNSt3__19__pointerIcNS_9allocatorIcEES2_Lb1EEE") 
!190 = !{} 
!191 = !{!192, !193, !245, !175} 
!192 = !DITemplateTypeParameter(name: "_Tp", type: !154) 
!193 = !DITemplateTypeParameter(name: "_Alloc", type: !194) 
!194 = distinct !DICompositeType(tag: DW_TAG_class_type, name: "allocator<char>", scope: !17, file: !195, line: 83, size: 8, flags: DIFlagTypePassByValue | DIFlagNonTrivial, elements: !196, templateParams: !244, identifier: "_ZTSNSt3__19allocatorIcEE") 
!195 = !DIFile(filename: "/Applications/Xcode.app/Contents/Developer/Platforms/MacOSX.platform/Developer/SDKs/MacOSX.sdk/usr/include/c++/v1/__memory/allocator.h", directory: "") 
!196 = !{!197, !207, !211, !215, !218, !226, !232, !237, !241} 
!197 = !DIDerivedType(tag: DW_TAG_inheritance, scope: !194, baseType: !198, extraData: i32 0) 
!198 = distinct !DICompositeType(tag: DW_TAG_structure_type, name: "__non_trivial_if<true, std::__1::allocator<char> >", scope: !17, file: !195, line: 72, size: 8, flags: DIFlagTypePassByValue | DIFlagNonTrivial, elements: !199, templateParams: !204, identifier: "_ZTSNSt3__116__non_trivial_ifILb1ENS_9allocatorIcEEEE") 
!199 = !{!200} 
!200 = !DISubprogram(name: "__non_trivial_if", scope: !198, file: !195, line: 74, type: !201, scopeLine: 74, flags: DIFlagPrototyped, spFlags: DISPFlagLocalToUnit) 
!201 = !DISubroutineType(types: !202) 
!202 = !{null, !203} 
!203 = !DIDerivedType(tag: DW_TAG_pointer_type, baseType: !198, size: 64, flags: DIFlagArtificial | DIFlagObjectPointer) 
!204 = !{!205, !206} 
!205 = !DITemplateValueParameter(name: "_Cond", type: !176, value: i8 1) 
!206 = !DITemplateTypeParameter(name: "_Unique", type: !194) 
!207 = !DISubprogram(name: "allocator", scope: !194, file: !195, line: 94, type: !208, scopeLine: 94, flags: DIFlagPublic | DIFlagPrototyped, spFlags: DISPFlagLocalToUnit) 
!208 = !DISubroutineType(types: !209) 
!209 = !{null, !210} 
!210 = !DIDerivedType(tag: DW_TAG_pointer_type, baseType: !194, size: 64, flags: DIFlagArtificial | DIFlagObjectPointer) 
!211 = !DISubprogram(name: "allocate", linkageName: "_ZNSt3__19allocatorIcE8allocateEm", scope: !194, file: !195, line: 101, type: !212, scopeLine: 101, flags: DIFlagPublic | DIFlagPrototyped, spFlags: DISPFlagLocalToUnit) 
!212 = !DISubroutineType(types: !213) 
!213 = !{!214, !210, !83} 
!214 = !DIDerivedType(tag: DW_TAG_pointer_type, baseType: !154, size: 64) 
!215 = !DISubprogram(name: "deallocate", linkageName: "_ZNSt3__19allocatorIcE10deallocateEPcm", scope: !194, file: !195, line: 113, type: !216, scopeLine: 113, flags: DIFlagPublic | DIFlagPrototyped, spFlags: DISPFlagLocalToUnit) 
!216 = !DISubroutineType(types: !217) 
!217 = !{null, !210, !214, !83} 
!218 = !DISubprogram(name: "address", linkageName: "_ZNKSt3__19allocatorIcE7addressERc", scope: !194, file: !195, line: 134, type: !219, scopeLine: 134, flags: DIFlagPublic | DIFlagPrototyped, spFlags: DISPFlagLocalToUnit) 
!219 = !DISubroutineType(types: !220) 
!220 = !{!221, !222, !224} 
!221 = !DIDerivedType(tag: DW_TAG_typedef, name: "pointer", scope: !194, file: !195, line: 123, baseType: !214) 
!222 = !DIDerivedType(tag: DW_TAG_pointer_type, baseType: !223, size: 64, flags: DIFlagArtificial | DIFlagObjectPointer) 
!223 = !DIDerivedType(tag: DW_TAG_const_type, baseType: !194) 
!224 = !DIDerivedType(tag: DW_TAG_typedef, name: "reference", scope: !194, file: !195, line: 125, baseType: !225) 
!225 = !DIDerivedType(tag: DW_TAG_reference_type, baseType: !154, size: 64) 
!226 = !DISubprogram(name: "address", linkageName: "_ZNKSt3__19allocatorIcE7addressERKc", scope: !194, file: !195, line: 138, type: !227, scopeLine: 138, flags: DIFlagPublic | DIFlagPrototyped, spFlags: DISPFlagLocalToUnit) 
!227 = !DISubroutineType(types: !228) 
!228 = !{!229, !222, !230} 
!229 = !DIDerivedType(tag: DW_TAG_typedef, name: "const_pointer", scope: !194, file: !195, line: 124, baseType: !152) 
!230 = !DIDerivedType(tag: DW_TAG_typedef, name: "const_reference", scope: !194, file: !195, line: 126, baseType: !231) 
!231 = !DIDerivedType(tag: DW_TAG_reference_type, baseType: !153, size: 64) 
!232 = !DISubprogram(name: "allocate", linkageName: "_ZNSt3__19allocatorIcE8allocateEmPKv", scope: !194, file: !195, line: 143, type: !233, scopeLine: 143, flags: DIFlagPublic | DIFlagPrototyped, spFlags: DISPFlagLocalToUnit) 
!233 = !DISubroutineType(types: !234) 
!234 = !{!214, !210, !83, !235} 
!235 = !DIDerivedType(tag: DW_TAG_pointer_type, baseType: !236, size: 64) 
!236 = !DIDerivedType(tag: DW_TAG_const_type, baseType: null) 
!237 = !DISubprogram(name: "max_size", linkageName: "_ZNKSt3__19allocatorIcE8max_sizeEv", scope: !194, file: !195, line: 147, type: !238, scopeLine: 147, flags: DIFlagPublic | DIFlagPrototyped, spFlags: DISPFlagLocalToUnit) 
!238 = !DISubroutineType(types: !239) 
!239 = !{!240, !222} 
!240 = !DIDerivedType(tag: DW_TAG_typedef, name: "size_type", file: !195, line: 87, baseType: !83) 
!241 = !DISubprogram(name: "destroy", linkageName: "_ZNSt3__19allocatorIcE7destroyEPc", scope: !194, file: !195, line: 158, type: !242, scopeLine: 158, flags: DIFlagPublic | DIFlagPrototyped, spFlags: DISPFlagLocalToUnit) 
!242 = !DISubroutineType(types: !243) 
!243 = !{null, !210, !221} 
!244 = !{!192} 
!245 = !DITemplateTypeParameter(name: "_RawAlloc", type: !194) 
!246 = !DIDerivedType(tag: DW_TAG_reference_type, baseType: !247, size: 64) 
!247 = !DIDerivedType(tag: DW_TAG_typedef, name: "allocator_type", scope: !182, file: !181, line: 231, baseType: !194) 
!248 = !DISubprogram(name: "deallocate", linkageName: "_ZNSt3__116allocator_traitsINS_9allocatorIcEEE10deallocateERS2_Pcm", scope: !182, file: !181, line: 281, type: !249, scopeLine: 281, flags: DIFlagPrototyped | DIFlagStaticMember, spFlags: DISPFlagLocalToUnit) 
!249 = !DISubroutineType(types: !250) 
!250 = !{null, !246, !187, !180} 
!251 = !{!193} 
!252 = !DIDerivedType(tag: DW_TAG_typedef, name: "type", scope: !253, file: !181, line: 100, baseType: !256) 
!253 = distinct !DICompositeType(tag: DW_TAG_structure_type, name: "__size_type<std::__1::allocator<char>, long, true>", scope: !17, file: !181, line: 99, size: 8, flags: DIFlagTypePassByValue, elements: !190, templateParams: !254, identifier: "_ZTSNSt3__111__size_typeINS_9allocatorIcEElLb1EEE") 
!254 = !{!193, !255, !175} 
!255 = !DITemplateTypeParameter(name: "_DiffType", type: !66) 
!256 = !DIDerivedType(tag: DW_TAG_typedef, name: "size_type", scope: !194, file: !195, line: 87, baseType: !83) 
!257 = !DIDerivedType(tag: DW_TAG_member, name: "__long_mask", scope: !162, file: !163, line: 739, baseType: !178, flags: DIFlagStaticMember, extraData: i64 -9223372036854775808) 
!258 = !DIDerivedType(tag: DW_TAG_member, name: "__r_", scope: !162, file: !163, line: 806, baseType: !259, size: 192) 
!259 = distinct !DICompositeType(tag: DW_TAG_class_type, name: "__compressed_pair<std::__1::basic_string<char, std::__1::char_traits<char>, std::__1::allocator<char> >::__rep, std::__1::allocator<char> >", scope: !17, file: !260, line: 109, size: 192, flags: DIFlagTypePassByValue | DIFlagNonTrivial, elements: !261, templateParams: !389, identifier: "_ZTSNSt3__117__compressed_pairINS_12basic_stringIcNS_11char_traitsIcEENS_9allocatorIcEEE5__repES5_EE") 
!260 = !DIFile(filename: "/Applications/Xcode.app/Contents/Developer/Platforms/MacOSX.platform/Developer/SDKs/MacOSX.sdk/usr/include/c++/v1/__memory/compressed_pair.h", directory: "") 
!261 = !{!262, !329, !359, !363, !368, !371, !374, !380, !385} 
!262 = !DIDerivedType(tag: DW_TAG_inheritance, scope: !259, baseType: !263, extraData: i32 0) 
!263 = distinct !DICompositeType(tag: DW_TAG_structure_type, name: "__compressed_pair_elem<std::__1::basic_string<char, std::__1::char_traits<char>, std::__1::allocator<char> >::__rep, 0, false>", scope: !17, file: !260, line: 35, size: 192, flags: DIFlagTypePassByValue | DIFlagNonTrivial, elements: !264, templateParams: !325, identifier: "_ZTSNSt3__122__compressed_pair_elemINS_12basic_stringIcNS_11char_traitsIcEENS_9allocatorIcEEE5__repELi0ELb0EEE") 
!264 = !{!265, !303, !308, !312, !317} 
!265 = !DIDerivedType(tag: DW_TAG_member, name: "__value_", scope: !263, file: !260, line: 70, baseType: !266, size: 192, flags: DIFlagPrivate) 
!266 = distinct !DICompositeType(tag: DW_TAG_structure_type, name: "__rep", scope: !162, file: !163, line: 796, size: 192, flags: DIFlagTypePassByValue, elements: !267, identifier: "_ZTSNSt3__112basic_stringIcNS_11char_traitsIcEENS_9allocatorIcEEE5__repE") 
!267 = !{!268} 
!268 = !DIDerivedType(tag: DW_TAG_member, scope: !266, file: !163, line: 798, baseType: !269, size: 192) 
!269 = distinct !DICompositeType(tag: DW_TAG_union_type, scope: !266, file: !163, line: 798, size: 192, flags: DIFlagExportSymbols | DIFlagTypePassByValue, elements: !270, identifier: "_ZTSNSt3__112basic_stringIcNS_11char_traitsIcEENS_9allocatorIcEEE5__repUt_E") 
!270 = !{!271, !278, !296} 
!271 = !DIDerivedType(tag: DW_TAG_member, name: "__l", scope: !269, file: !163, line: 800, baseType: !272, size: 192) 
!272 = distinct !DICompositeType(tag: DW_TAG_structure_type, name: "__long", scope: !162, file: !163, line: 727, size: 192, flags: DIFlagTypePassByValue, elements: !273, identifier: "_ZTSNSt3__112basic_stringIcNS_11char_traitsIcEENS_9allocatorIcEEE6__longE") 
!273 = !{!274, !276, !277} 
!274 = !DIDerivedType(tag: DW_TAG_member, name: "__data_", scope: !272, file: !163, line: 729, baseType: !275, size: 64) 
!275 = !DIDerivedType(tag: DW_TAG_typedef, name: "pointer", scope: !162, file: !163, line: 707, baseType: !187) 
!276 = !DIDerivedType(tag: DW_TAG_member, name: "__size_", scope: !272, file: !163, line: 730, baseType: !179, size: 64, offset: 64) 
!277 = !DIDerivedType(tag: DW_TAG_member, name: "__cap_", scope: !272, file: !163, line: 731, baseType: !179, size: 64, offset: 128) 
!278 = !DIDerivedType(tag: DW_TAG_member, name: "__s", scope: !269, file: !163, line: 801, baseType: !279, size: 192) 
!279 = distinct !DICompositeType(tag: DW_TAG_structure_type, name: "__short", scope: !162, file: !163, line: 745, size: 192, flags: DIFlagTypePassByValue, elements: !280, identifier: "_ZTSNSt3__112basic_stringIcNS_11char_traitsIcEENS_9allocatorIcEEE7__shortE") 
!280 = !{!281, !286} 
!281 = !DIDerivedType(tag: DW_TAG_member, name: "__data_", scope: !279, file: !163, line: 747, baseType: !282, size: 184) 
!282 = !DICompositeType(tag: DW_TAG_array_type, baseType: !283, size: 184, elements: !284) 
!283 = !DIDerivedType(tag: DW_TAG_typedef, name: "value_type", scope: !162, file: !163, line: 700, baseType: !154) 
!284 = !{!285} 
!285 = !DISubrange(count: 23) 
!286 = !DIDerivedType(tag: DW_TAG_member, scope: !279, file: !163, line: 748, baseType: !287, size: 8, offset: 184) 
!287 = distinct !DICompositeType(tag: DW_TAG_structure_type, scope: !279, file: !163, line: 748, size: 8, flags: DIFlagExportSymbols | DIFlagTypePassByValue, elements: !288, identifier: "_ZTSNSt3__112basic_stringIcNS_11char_traitsIcEENS_9allocatorIcEEE7__shortUt_E") 
!288 = !{!289, !294} 
!289 = !DIDerivedType(tag: DW_TAG_inheritance, scope: !287, baseType: !290, extraData: i32 0) 
!290 = distinct !DICompositeType(tag: DW_TAG_structure_type, name: "__padding<char, 1>", scope: !17, file: !163, line: 668, size: 8, flags: DIFlagTypePassByValue, elements: !190, templateParams: !291, identifier: "_ZTSNSt3__19__paddingIcLm1EEE") 
!291 = !{!292, !293} 
!292 = !DITemplateTypeParameter(name: "_CharT", type: !154) 
!293 = !DITemplateValueParameter(type: !84, value: i64 1) 
!294 = !DIDerivedType(tag: DW_TAG_member, name: "__size_", scope: !287, file: !163, line: 751, baseType: !295, size: 8) 
!295 = !DIBasicType(name: "unsigned char", size: 8, encoding: DW_ATE_unsigned_char) 
!296 = !DIDerivedType(tag: DW_TAG_member, name: "__r", scope: !269, file: !163, line: 802, baseType: !297, size: 192) 
!297 = distinct !DICompositeType(tag: DW_TAG_structure_type, name: "__raw", scope: !162, file: !163, line: 791, size: 192, flags: DIFlagTypePassByValue, elements: !298, identifier: "_ZTSNSt3__112basic_stringIcNS_11char_traitsIcEENS_9allocatorIcEEE5__rawE") 
!298 = !{!299} 
!299 = !DIDerivedType(tag: DW_TAG_member, name: "__words", scope: !297, file: !163, line: 793, baseType: !300, size: 192) 
!300 = !DICompositeType(tag: DW_TAG_array_type, baseType: !179, size: 192, elements: !301) 
!301 = !{!302} 
!302 = !DISubrange(count: 3) 
!303 = !DISubprogram(name: "__compressed_pair_elem", scope: !263, file: !260, line: 41, type: !304, scopeLine: 41, flags: DIFlagPrototyped, spFlags: DISPFlagLocalToUnit) 
!304 = !DISubroutineType(types: !305) 
!305 = !{null, !306, !307} 
!306 = !DIDerivedType(tag: DW_TAG_pointer_type, baseType: !263, size: 64, flags: DIFlagArtificial | DIFlagObjectPointer) 
!307 = distinct !DICompositeType(tag: DW_TAG_structure_type, name: "__default_init_tag", scope: !17, file: !260, line: 29, size: 8, flags: DIFlagTypePassByValue, elements: !190, identifier: "_ZTSNSt3__118__default_init_tagE") 
!308 = !DISubprogram(name: "__compressed_pair_elem", scope: !263, file: !260, line: 43, type: !309, scopeLine: 43, flags: DIFlagPrototyped, spFlags: DISPFlagLocalToUnit) 
!309 = !DISubroutineType(types: !310) 
!310 = !{null, !306, !311} 
!311 = distinct !DICompositeType(tag: DW_TAG_structure_type, name: "__value_init_tag", scope: !17, file: !260, line: 30, size: 8, flags: DIFlagTypePassByValue, elements: !190, identifier: "_ZTSNSt3__116__value_init_tagE") 
!312 = !DISubprogram(name: "__get", linkageName: "_ZNSt3__122__compressed_pair_elemINS_12basic_stringIcNS_11char_traitsIcEENS_9allocatorIcEEE5__repELi0ELb0EE5__getEv", scope: !263, file: !260, line: 65, type: !313, scopeLine: 65, flags: DIFlagPrototyped, spFlags: DISPFlagLocalToUnit) 
!313 = !DISubroutineType(types: !314) 
!314 = !{!315, !306} 
!315 = !DIDerivedType(tag: DW_TAG_typedef, name: "reference", scope: !263, file: !260, line: 37, baseType: !316) 
!316 = !DIDerivedType(tag: DW_TAG_reference_type, baseType: !266, size: 64) 
!317 = !DISubprogram(name: "__get", linkageName: "_ZNKSt3__122__compressed_pair_elemINS_12basic_stringIcNS_11char_traitsIcEENS_9allocatorIcEEE5__repELi0ELb0EE5__getEv", scope: !263, file: !260, line: 67, type: !318, scopeLine: 67, flags: DIFlagPrototyped, spFlags: DISPFlagLocalToUnit) 
!318 = !DISubroutineType(types: !319) 
!319 = !{!320, !323} 
!320 = !DIDerivedType(tag: DW_TAG_typedef, name: "const_reference", scope: !263, file: !260, line: 38, baseType: !321) 
!321 = !DIDerivedType(tag: DW_TAG_reference_type, baseType: !322, size: 64) 
!322 = !DIDerivedType(tag: DW_TAG_const_type, baseType: !266) 
!323 = !DIDerivedType(tag: DW_TAG_pointer_type, baseType: !324, size: 64, flags: DIFlagArtificial | DIFlagObjectPointer) 
!324 = !DIDerivedType(tag: DW_TAG_const_type, baseType: !263) 
!325 = !{!326, !327, !328} 
!326 = !DITemplateTypeParameter(name: "_Tp", type: !266) 
!327 = !DITemplateValueParameter(name: "_Idx", type: !25, value: i32 0) 
!328 = !DITemplateValueParameter(name: "_CanBeEmptyBase", type: !176, value: i8 0) 
!329 = !DIDerivedType(tag: DW_TAG_inheritance, scope: !259, baseType: !330, extraData: i32 0) 
!330 = distinct !DICompositeType(tag: DW_TAG_structure_type, name: "__compressed_pair_elem<std::__1::allocator<char>, 1, true>", scope: !17, file: !260, line: 74, size: 8, flags: DIFlagTypePassByValue | DIFlagNonTrivial, elements: !331, templateParams: !355, identifier: "_ZTSNSt3__122__compressed_pair_elemINS_9allocatorIcEELi1ELb1EEE") 
!331 = !{!332, !333, !337, !340, !343, !348} 
!332 = !DIDerivedType(tag: DW_TAG_inheritance, scope: !330, baseType: !194, flags: DIFlagPrivate, extraData: i32 0) 
!333 = !DISubprogram(name: "__compressed_pair_elem", scope: !330, file: !260, line: 80, type: !334, scopeLine: 80, flags: DIFlagPrototyped, spFlags: DISPFlagLocalToUnit) 
!334 = !DISubroutineType(types: !335) 
!335 = !{null, !336} 
!336 = !DIDerivedType(tag: DW_TAG_pointer_type, baseType: !330, size: 64, flags: DIFlagArtificial | DIFlagObjectPointer) 
!337 = !DISubprogram(name: "__compressed_pair_elem", scope: !330, file: !260, line: 82, type: !338, scopeLine: 82, flags: DIFlagPrototyped, spFlags: DISPFlagLocalToUnit) 
!338 = !DISubroutineType(types: !339) 
!339 = !{null, !336, !307} 
!340 = !DISubprogram(name: "__compressed_pair_elem", scope: !330, file: !260, line: 84, type: !341, scopeLine: 84, flags: DIFlagPrototyped, spFlags: DISPFlagLocalToUnit) 
!341 = !DISubroutineType(types: !342) 
!342 = !{null, !336, !311} 
!343 = !DISubprogram(name: "__get", linkageName: "_ZNSt3__122__compressed_pair_elemINS_9allocatorIcEELi1ELb1EE5__getEv", scope: !330, file: !260, line: 103, type: !344, scopeLine: 103, flags: DIFlagPrototyped, spFlags: DISPFlagLocalToUnit) 
!344 = !DISubroutineType(types: !345) 
!345 = !{!346, !336} 
!346 = !DIDerivedType(tag: DW_TAG_typedef, name: "reference", scope: !330, file: !260, line: 76, baseType: !347) 
!347 = !DIDerivedType(tag: DW_TAG_reference_type, baseType: !194, size: 64) 
!348 = !DISubprogram(name: "__get", linkageName: "_ZNKSt3__122__compressed_pair_elemINS_9allocatorIcEELi1ELb1EE5__getEv", scope: !330, file: !260, line: 105, type: !349, scopeLine: 105, flags: DIFlagPrototyped, spFlags: DISPFlagLocalToUnit) 
!349 = !DISubroutineType(types: !350) 
!350 = !{!351, !353} 
!351 = !DIDerivedType(tag: DW_TAG_typedef, name: "const_reference", scope: !330, file: !260, line: 77, baseType: !352) 
!352 = !DIDerivedType(tag: DW_TAG_reference_type, baseType: !223, size: 64) 
!353 = !DIDerivedType(tag: DW_TAG_pointer_type, baseType: !354, size: 64, flags: DIFlagArtificial | DIFlagObjectPointer) 
!354 = !DIDerivedType(tag: DW_TAG_const_type, baseType: !330) 
!355 = !{!356, !357, !358} 
!356 = !DITemplateTypeParameter(name: "_Tp", type: !194) 
!357 = !DITemplateValueParameter(name: "_Idx", type: !25, value: i32 1) 
!358 = !DITemplateValueParameter(name: "_CanBeEmptyBase", type: !176, value: i8 1) 
!359 = !DISubprogram(name: "first", linkageName: "_ZNSt3__117__compressed_pairINS_12basic_stringIcNS_11char_traitsIcEENS_9allocatorIcEEE5__repES5_E5firstEv", scope: !259, file: !260, line: 150, type: !360, scopeLine: 150, flags: DIFlagPublic | DIFlagPrototyped, spFlags: DISPFlagLocalToUnit) 
!360 = !DISubroutineType(types: !361) 
!361 = !{!315, !362} 
!362 = !DIDerivedType(tag: DW_TAG_pointer_type, baseType: !259, size: 64, flags: DIFlagArtificial | DIFlagObjectPointer) 
!363 = !DISubprogram(name: "first", linkageName: "_ZNKSt3__117__compressed_pairINS_12basic_stringIcNS_11char_traitsIcEENS_9allocatorIcEEE5__repES5_E5firstEv", scope: !259, file: !260, line: 155, type: !364, scopeLine: 155, flags: DIFlagPublic | DIFlagPrototyped, spFlags: DISPFlagLocalToUnit) 
!364 = !DISubroutineType(types: !365) 
!365 = !{!320, !366} 
!366 = !DIDerivedType(tag: DW_TAG_pointer_type, baseType: !367, size: 64, flags: DIFlagArtificial | DIFlagObjectPointer) 
!367 = !DIDerivedType(tag: DW_TAG_const_type, baseType: !259) 
!368 = !DISubprogram(name: "second", linkageName: "_ZNSt3__117__compressed_pairINS_12basic_stringIcNS_11char_traitsIcEENS_9allocatorIcEEE5__repES5_E6secondEv", scope: !259, file: !260, line: 160, type: !369, scopeLine: 160, flags: DIFlagPublic | DIFlagPrototyped, spFlags: DISPFlagLocalToUnit) 
!369 = !DISubroutineType(types: !370) 
!370 = !{!346, !362} 
!371 = !DISubprogram(name: "second", linkageName: "_ZNKSt3__117__compressed_pairINS_12basic_stringIcNS_11char_traitsIcEENS_9allocatorIcEEE5__repES5_E6secondEv", scope: !259, file: !260, line: 165, type: !372, scopeLine: 165, flags: DIFlagPublic | DIFlagPrototyped, spFlags: DISPFlagLocalToUnit) 
!372 = !DISubroutineType(types: !373) 
!373 = !{!351, !366} 
!374 = !DISubprogram(name: "__get_first_base", linkageName: "_ZNSt3__117__compressed_pairINS_12basic_stringIcNS_11char_traitsIcEENS_9allocatorIcEEE5__repES5_E16__get_first_baseEPS8_", scope: !259, file: !260, line: 170, type: !375, scopeLine: 170, flags: DIFlagPublic | DIFlagPrototyped | DIFlagStaticMember, spFlags: DISPFlagLocalToUnit) 
!375 = !DISubroutineType(types: !376) 
!376 = !{!377, !379} 
!377 = !DIDerivedType(tag: DW_TAG_pointer_type, baseType: !378, size: 64) 
!378 = !DIDerivedType(tag: DW_TAG_typedef, name: "_Base1", scope: !259, file: !260, line: 121, baseType: !263) 
!379 = !DIDerivedType(tag: DW_TAG_pointer_type, baseType: !259, size: 64) 
!380 = !DISubprogram(name: "__get_second_base", linkageName: "_ZNSt3__117__compressed_pairINS_12basic_stringIcNS_11char_traitsIcEENS_9allocatorIcEEE5__repES5_E17__get_second_baseEPS8_", scope: !259, file: !260, line: 174, type: !381, scopeLine: 174, flags: DIFlagPublic | DIFlagPrototyped | DIFlagStaticMember, spFlags: DISPFlagLocalToUnit) 
!381 = !DISubroutineType(types: !382) 
!382 = !{!383, !379} 
!383 = !DIDerivedType(tag: DW_TAG_pointer_type, baseType: !384, size: 64) 
!384 = !DIDerivedType(tag: DW_TAG_typedef, name: "_Base2", scope: !259, file: !260, line: 122, baseType: !330) 
!385 = !DISubprogram(name: "swap", linkageName: "_ZNSt3__117__compressed_pairINS_12basic_stringIcNS_11char_traitsIcEENS_9allocatorIcEEE5__repES5_E4swapERS8_", scope: !259, file: !260, line: 179, type: !386, scopeLine: 179, flags: DIFlagPublic | DIFlagPrototyped, spFlags: DISPFlagLocalToUnit) 
!386 = !DISubroutineType(types: !387) 
!387 = !{null, !362, !388} 
!388 = !DIDerivedType(tag: DW_TAG_reference_type, baseType: !259, size: 64) 
!389 = !{!390, !391} 
!390 = !DITemplateTypeParameter(name: "_T1", type: !266) 
!391 = !DITemplateTypeParameter(name: "_T2", type: !194) 
!392 = !DIDerivedType(tag: DW_TAG_member, name: "npos", scope: !162, file: !163, line: 810, baseType: !178, flags: DIFlagPublic | DIFlagStaticMember, extraData: i64 -1) 
!393 = !DISubprogram(name: "basic_string", scope: !162, file: !163, line: 812, type: !394, scopeLine: 812, flags: DIFlagPublic | DIFlagPrototyped, spFlags: DISPFlagLocalToUnit) 
!394 = !DISubroutineType(types: !395) 
!395 = !{null, !396} 
!396 = !DIDerivedType(tag: DW_TAG_pointer_type, baseType: !162, size: 64, flags: DIFlagArtificial | DIFlagObjectPointer) 
!397 = !DISubprogram(name: "basic_string", scope: !162, file: !163, line: 815, type: !398, scopeLine: 815, flags: DIFlagPublic | DIFlagExplicit | DIFlagPrototyped, spFlags: DISPFlagLocalToUnit) 
!398 = !DISubroutineType(types: !399) 
!399 = !{null, !396, !400} 
!400 = !DIDerivedType(tag: DW_TAG_reference_type, baseType: !401, size: 64) 
!401 = !DIDerivedType(tag: DW_TAG_const_type, baseType: !402) 
!402 = !DIDerivedType(tag: DW_TAG_typedef, name: "allocator_type", scope: !162, file: !163, line: 701, baseType: !194) 
!403 = !DISubprogram(name: "basic_string", scope: !162, file: !163, line: 822, type: !404, scopeLine: 822, flags: DIFlagPublic | DIFlagPrototyped, spFlags: 0) 
!404 = !DISubroutineType(types: !405) 
!405 = !{null, !396, !406} 
!406 = !DIDerivedType(tag: DW_TAG_reference_type, baseType: !407, size: 64) 
!407 = !DIDerivedType(tag: DW_TAG_const_type, baseType: !162) 
!408 = !DISubprogram(name: "basic_string", scope: !162, file: !163, line: 823, type: !409, scopeLine: 823, flags: DIFlagPublic | DIFlagPrototyped, spFlags: 0) 
!409 = !DISubroutineType(types: !410) 
!410 = !{null, !396, !406, !400} 
!411 = !DISubprogram(name: "basic_string", scope: !162, file: !163, line: 857, type: !412, scopeLine: 857, flags: DIFlagPublic | DIFlagPrototyped, spFlags: DISPFlagLocalToUnit) 
!412 = !DISubroutineType(types: !413) 
!413 = !{null, !396, !152, !179} 
!414 = !DISubprogram(name: "basic_string", scope: !162, file: !163, line: 859, type: !415, scopeLine: 859, flags: DIFlagPublic | DIFlagPrototyped, spFlags: DISPFlagLocalToUnit) 
!415 = !DISubroutineType(types: !416) 
!416 = !{null, !396, !152, !179, !352} 
!417 = !DISubprogram(name: "basic_string", scope: !162, file: !163, line: 861, type: !418, scopeLine: 861, flags: DIFlagPublic | DIFlagPrototyped, spFlags: DISPFlagLocalToUnit) 
!418 = !DISubroutineType(types: !419) 
!419 = !{null, !396, !179, !154} 
!420 = !DISubprogram(name: "basic_string", scope: !162, file: !163, line: 867, type: !421, scopeLine: 867, flags: DIFlagPublic | DIFlagPrototyped, spFlags: 0) 
!421 = !DISubroutineType(types: !422) 
!422 = !{null, !396, !406, !179, !179, !352} 
!423 = !DISubprogram(name: "basic_string", scope: !162, file: !163, line: 870, type: !424, scopeLine: 870, flags: DIFlagPublic | DIFlagPrototyped, spFlags: DISPFlagLocalToUnit) 
!424 = !DISubroutineType(types: !425) 
!425 = !{null, !396, !406, !179, !352} 
!426 = !DISubprogram(name: "~basic_string", scope: !162, file: !163, line: 900, type: !394, scopeLine: 900, flags: DIFlagPublic | DIFlagPrototyped, spFlags: 0) 
!427 = !DISubprogram(name: "operator basic_string_view", linkageName: "_ZNKSt3__112basic_stringIcNS_11char_traitsIcEENS_9allocatorIcEEEcvNS_17basic_string_viewIcS2_EEEv", scope: !162, file: !163, line: 903, type: !428, scopeLine: 903, flags: DIFlagPublic | DIFlagPrototyped, spFlags: DISPFlagLocalToUnit) 
!428 = !DISubroutineType(types: !429) 
!429 = !{!430, !614} 
!430 = !DIDerivedType(tag: DW_TAG_typedef, name: "__self_view", scope: !162, file: !163, line: 698, baseType: !431) 
!431 = distinct !DICompositeType(tag: DW_TAG_class_type, name: "basic_string_view<char, std::__1::char_traits<char> >", scope: !17, file: !432, line: 233, size: 128, flags: DIFlagTypePassByValue | DIFlagNonTrivial, elements: !433, templateParams: !563, identifier: "_ZTSNSt3__117basic_string_viewIcNS_11char_traitsIcEEEE") 
!432 = !DIFile(filename: "/Applications/Xcode.app/Contents/Developer/Platforms/MacOSX.platform/Developer/SDKs/MacOSX.sdk/usr/include/c++/v1/string_view", directory: "") 
!433 = !{!434, !437, !441, !442, !446, !451, !455, !458, !461, !467, !468, !469, !470, !476, !477, !478, !479, !482, !483, !484, !487, !491, !492, !495, !496, !499, !502, !503, !506, !510, !513, !516, !519, !522, !525, !528, !531, !534, !537, !540, !543, !544, !545, !546, !547, !548, !549, !550, !551, !552, !553, !554, !555, !556, !557, !558, !559, !560, !561, !562} 
!434 = !DIDerivedType(tag: DW_TAG_member, name: "npos", scope: !431, file: !432, line: 248, baseType: !435, flags: DIFlagPublic | DIFlagStaticMember, extraData: i64 -1) 
!435 = !DIDerivedType(tag: DW_TAG_const_type, baseType: !436) 
!436 = !DIDerivedType(tag: DW_TAG_typedef, name: "size_type", file: !432, line: 246, baseType: !83) 
!437 = !DIDerivedType(tag: DW_TAG_member, name: "__data", scope: !431, file: !432, line: 663, baseType: !438, size: 64) 
!438 = !DIDerivedType(tag: DW_TAG_pointer_type, baseType: !439, size: 64) 
!439 = !DIDerivedType(tag: DW_TAG_const_type, baseType: !440) 
!440 = !DIDerivedType(tag: DW_TAG_typedef, name: "value_type", scope: !431, file: !432, line: 237, baseType: !154) 
!441 = !DIDerivedType(tag: DW_TAG_member, name: "__size", scope: !431, file: !432, line: 664, baseType: !436, size: 64, offset: 64) 
!442 = !DISubprogram(name: "basic_string_view", scope: !431, file: !432, line: 258, type: !443, scopeLine: 258, flags: DIFlagPublic | DIFlagPrototyped, spFlags: DISPFlagLocalToUnit) 
!443 = !DISubroutineType(types: !444) 
!444 = !{null, !445} 
!445 = !DIDerivedType(tag: DW_TAG_pointer_type, baseType: !431, size: 64, flags: DIFlagArtificial | DIFlagObjectPointer) 
!446 = !DISubprogram(name: "basic_string_view", scope: !431, file: !432, line: 261, type: !447, scopeLine: 261, flags: DIFlagPublic | DIFlagPrototyped, spFlags: DISPFlagLocalToUnit) 
!447 = !DISubroutineType(types: !448) 
!448 = !{null, !445, !449} 
!449 = !DIDerivedType(tag: DW_TAG_reference_type, baseType: !450, size: 64) 
!450 = !DIDerivedType(tag: DW_TAG_const_type, baseType: !431) 
!451 = !DISubprogram(name: "operator=", linkageName: "_ZNSt3__117basic_string_viewIcNS_11char_traitsIcEEEaSERKS3_", scope: !431, file: !432, line: 264, type: !452, scopeLine: 264, flags: DIFlagPublic | DIFlagPrototyped, spFlags: DISPFlagLocalToUnit) 
!452 = !DISubroutineType(types: !453) 
!453 = !{!454, !445, !449} 
!454 = !DIDerivedType(tag: DW_TAG_reference_type, baseType: !431, size: 64) 
!455 = !DISubprogram(name: "basic_string_view", scope: !431, file: !432, line: 267, type: !456, scopeLine: 267, flags: DIFlagPublic | DIFlagPrototyped, spFlags: DISPFlagLocalToUnit) 
!456 = !DISubroutineType(types: !457) 
!457 = !{null, !445, !152, !436} 
!458 = !DISubprogram(name: "basic_string_view", scope: !431, file: !432, line: 276, type: !459, scopeLine: 276, flags: DIFlagPublic | DIFlagPrototyped, spFlags: DISPFlagLocalToUnit) 
!459 = !DISubroutineType(types: !460) 
!460 = !{null, !445, !152} 
!461 = !DISubprogram(name: "begin", linkageName: "_ZNKSt3__117basic_string_viewIcNS_11char_traitsIcEEE5beginEv", scope: !431, file: !432, line: 285, type: !462, scopeLine: 285, flags: DIFlagPublic | DIFlagPrototyped, spFlags: DISPFlagLocalToUnit) 
!462 = !DISubroutineType(types: !463) 
!463 = !{!464, !466} 
!464 = !DIDerivedType(tag: DW_TAG_typedef, name: "const_iterator", scope: !431, file: !432, line: 242, baseType: !465) 
!465 = !DIDerivedType(tag: DW_TAG_typedef, name: "const_pointer", scope: !431, file: !432, line: 239, baseType: !152) 
!466 = !DIDerivedType(tag: DW_TAG_pointer_type, baseType: !450, size: 64, flags: DIFlagArtificial | DIFlagObjectPointer) 
!467 = !DISubprogram(name: "end", linkageName: "_ZNKSt3__117basic_string_viewIcNS_11char_traitsIcEEE3endEv", scope: !431, file: !432, line: 288, type: !462, scopeLine: 288, flags: DIFlagPublic | DIFlagPrototyped, spFlags: DISPFlagLocalToUnit) 
!468 = !DISubprogram(name: "cbegin", linkageName: "_ZNKSt3__117basic_string_viewIcNS_11char_traitsIcEEE6cbeginEv", scope: !431, file: !432, line: 291, type: !462, scopeLine: 291, flags: DIFlagPublic | DIFlagPrototyped, spFlags: DISPFlagLocalToUnit) 
!469 = !DISubprogram(name: "cend", linkageName: "_ZNKSt3__117basic_string_viewIcNS_11char_traitsIcEEE4cendEv", scope: !431, file: !432, line: 294, type: !462, scopeLine: 294, flags: DIFlagPublic | DIFlagPrototyped, spFlags: DISPFlagLocalToUnit) 
!470 = !DISubprogram(name: "rbegin", linkageName: "_ZNKSt3__117basic_string_viewIcNS_11char_traitsIcEEE6rbeginEv", scope: !431, file: !432, line: 297, type: !471, scopeLine: 297, flags: DIFlagPublic | DIFlagPrototyped, spFlags: DISPFlagLocalToUnit) 
!471 = !DISubroutineType(types: !472) 
!472 = !{!473, !466} 
!473 = !DIDerivedType(tag: DW_TAG_typedef, name: "const_reverse_iterator", scope: !431, file: !432, line: 244, baseType: !474) 
!474 = !DICompositeType(tag: DW_TAG_class_type, name: "reverse_iterator<const char *>", scope: !17, file: !475, line: 37, flags: DIFlagFwdDecl | DIFlagNonTrivial, identifier: "_ZTSNSt3__116reverse_iteratorIPKcEE") 
!475 = !DIFile(filename: "/Applications/Xcode.app/Contents/Developer/Platforms/MacOSX.platform/Developer/SDKs/MacOSX.sdk/usr/include/c++/v1/__iterator/reverse_iterator.h", directory: "") 
!476 = !DISubprogram(name: "rend", linkageName: "_ZNKSt3__117basic_string_viewIcNS_11char_traitsIcEEE4rendEv", scope: !431, file: !432, line: 300, type: !471, scopeLine: 300, flags: DIFlagPublic | DIFlagPrototyped, spFlags: DISPFlagLocalToUnit) 
!477 = !DISubprogram(name: "crbegin", linkageName: "_ZNKSt3__117basic_string_viewIcNS_11char_traitsIcEEE7crbeginEv", scope: !431, file: !432, line: 303, type: !471, scopeLine: 303, flags: DIFlagPublic | DIFlagPrototyped, spFlags: DISPFlagLocalToUnit) 
!478 = !DISubprogram(name: "crend", linkageName: "_ZNKSt3__117basic_string_viewIcNS_11char_traitsIcEEE5crendEv", scope: !431, file: !432, line: 306, type: !471, scopeLine: 306, flags: DIFlagPublic | DIFlagPrototyped, spFlags: DISPFlagLocalToUnit) 
!479 = !DISubprogram(name: "size", linkageName: "_ZNKSt3__117basic_string_viewIcNS_11char_traitsIcEEE4sizeEv", scope: !431, file: !432, line: 310, type: !480, scopeLine: 310, flags: DIFlagPublic | DIFlagPrototyped, spFlags: DISPFlagLocalToUnit) 
!480 = !DISubroutineType(types: !481) 
!481 = !{!436, !466} 
!482 = !DISubprogram(name: "length", linkageName: "_ZNKSt3__117basic_string_viewIcNS_11char_traitsIcEEE6lengthEv", scope: !431, file: !432, line: 313, type: !480, scopeLine: 313, flags: DIFlagPublic | DIFlagPrototyped, spFlags: DISPFlagLocalToUnit) 
!483 = !DISubprogram(name: "max_size", linkageName: "_ZNKSt3__117basic_string_viewIcNS_11char_traitsIcEEE8max_sizeEv", scope: !431, file: !432, line: 316, type: !480, scopeLine: 316, flags: DIFlagPublic | DIFlagPrototyped, spFlags: DISPFlagLocalToUnit) 
!484 = !DISubprogram(name: "empty", linkageName: "_ZNKSt3__117basic_string_viewIcNS_11char_traitsIcEEE5emptyEv", scope: !431, file: !432, line: 319, type: !485, scopeLine: 319, flags: DIFlagPublic | DIFlagPrototyped, spFlags: DISPFlagLocalToUnit) 
!485 = !DISubroutineType(types: !486) 
!486 = !{!176, !466} 
!487 = !DISubprogram(name: "operator[]", linkageName: "_ZNKSt3__117basic_string_viewIcNS_11char_traitsIcEEEixEm", scope: !431, file: !432, line: 323, type: !488, scopeLine: 323, flags: DIFlagPublic | DIFlagPrototyped, spFlags: DISPFlagLocalToUnit) 
!488 = !DISubroutineType(types: !489) 
!489 = !{!490, !466, !436} 
!490 = !DIDerivedType(tag: DW_TAG_typedef, name: "const_reference", scope: !431, file: !432, line: 241, baseType: !231) 
!491 = !DISubprogram(name: "at", linkageName: "_ZNKSt3__117basic_string_viewIcNS_11char_traitsIcEEE2atEm", scope: !431, file: !432, line: 328, type: !488, scopeLine: 328, flags: DIFlagPublic | DIFlagPrototyped, spFlags: DISPFlagLocalToUnit) 
!492 = !DISubprogram(name: "front", linkageName: "_ZNKSt3__117basic_string_viewIcNS_11char_traitsIcEEE5frontEv", scope: !431, file: !432, line: 336, type: !493, scopeLine: 336, flags: DIFlagPublic | DIFlagPrototyped, spFlags: DISPFlagLocalToUnit) 
!493 = !DISubroutineType(types: !494) 
!494 = !{!490, !466} 
!495 = !DISubprogram(name: "back", linkageName: "_ZNKSt3__117basic_string_viewIcNS_11char_traitsIcEEE4backEv", scope: !431, file: !432, line: 342, type: !493, scopeLine: 342, flags: DIFlagPublic | DIFlagPrototyped, spFlags: DISPFlagLocalToUnit) 
!496 = !DISubprogram(name: "data", linkageName: "_ZNKSt3__117basic_string_viewIcNS_11char_traitsIcEEE4dataEv", scope: !431, file: !432, line: 348, type: !497, scopeLine: 348, flags: DIFlagPublic | DIFlagPrototyped, spFlags: DISPFlagLocalToUnit) 
!497 = !DISubroutineType(types: !498) 
!498 = !{!465, !466} 
!499 = !DISubprogram(name: "remove_prefix", linkageName: "_ZNSt3__117basic_string_viewIcNS_11char_traitsIcEEE13remove_prefixEm", scope: !431, file: !432, line: 352, type: !500, scopeLine: 352, flags: DIFlagPublic | DIFlagPrototyped, spFlags: DISPFlagLocalToUnit) 
!500 = !DISubroutineType(types: !501) 
!501 = !{null, !445, !436} 
!502 = !DISubprogram(name: "remove_suffix", linkageName: "_ZNSt3__117basic_string_viewIcNS_11char_traitsIcEEE13remove_suffixEm", scope: !431, file: !432, line: 360, type: !500, scopeLine: 360, flags: DIFlagPublic | DIFlagPrototyped, spFlags: DISPFlagLocalToUnit) 
!503 = !DISubprogram(name: "swap", linkageName: "_ZNSt3__117basic_string_viewIcNS_11char_traitsIcEEE4swapERS3_", scope: !431, file: !432, line: 367, type: !504, scopeLine: 367, flags: DIFlagPublic | DIFlagPrototyped, spFlags: DISPFlagLocalToUnit) 
!504 = !DISubroutineType(types: !505) 
!505 = !{null, !445, !454} 
!506 = !DISubprogram(name: "copy", linkageName: "_ZNKSt3__117basic_string_viewIcNS_11char_traitsIcEEE4copyEPcmm", scope: !431, file: !432, line: 379, type: !507, scopeLine: 379, flags: DIFlagPublic | DIFlagPrototyped, spFlags: DISPFlagLocalToUnit) 
!507 = !DISubroutineType(types: !508) 
!508 = !{!509, !466, !214, !436, !436} 
!509 = !DIDerivedType(tag: DW_TAG_typedef, name: "size_type", scope: !431, file: !432, line: 246, baseType: !83) 
!510 = !DISubprogram(name: "substr", linkageName: "_ZNKSt3__117basic_string_viewIcNS_11char_traitsIcEEE6substrEmm", scope: !431, file: !432, line: 389, type: !511, scopeLine: 389, flags: DIFlagPublic | DIFlagPrototyped, spFlags: DISPFlagLocalToUnit) 
!511 = !DISubroutineType(types: !512) 
!512 = !{!431, !466, !436, !436} 
!513 = !DISubprogram(name: "compare", linkageName: "_ZNKSt3__117basic_string_viewIcNS_11char_traitsIcEEE7compareES3_", scope: !431, file: !432, line: 396, type: !514, scopeLine: 396, flags: DIFlagPublic | DIFlagPrototyped, spFlags: 0) 
!514 = !DISubroutineType(types: !515) 
!515 = !{!25, !466, !431} 
!516 = !DISubprogram(name: "compare", linkageName: "_ZNKSt3__117basic_string_viewIcNS_11char_traitsIcEEE7compareEmmS3_", scope: !431, file: !432, line: 406, type: !517, scopeLine: 406, flags: DIFlagPublic | DIFlagPrototyped, spFlags: DISPFlagLocalToUnit) 
!517 = !DISubroutineType(types: !518) 
!518 = !{!25, !466, !436, !436, !431} 
!519 = !DISubprogram(name: "compare", linkageName: "_ZNKSt3__117basic_string_viewIcNS_11char_traitsIcEEE7compareEmmS3_mm", scope: !431, file: !432, line: 412, type: !520, scopeLine: 412, flags: DIFlagPublic | DIFlagPrototyped, spFlags: DISPFlagLocalToUnit) 
!520 = !DISubroutineType(types: !521) 
!521 = !{!25, !466, !436, !436, !431, !436, !436} 
!522 = !DISubprogram(name: "compare", linkageName: "_ZNKSt3__117basic_string_viewIcNS_11char_traitsIcEEE7compareEPKc", scope: !431, file: !432, line: 419, type: !523, scopeLine: 419, flags: DIFlagPublic | DIFlagPrototyped, spFlags: DISPFlagLocalToUnit) 
!523 = !DISubroutineType(types: !524) 
!524 = !{!25, !466, !152} 
!525 = !DISubprogram(name: "compare", linkageName: "_ZNKSt3__117basic_string_viewIcNS_11char_traitsIcEEE7compareEmmPKc", scope: !431, file: !432, line: 425, type: !526, scopeLine: 425, flags: DIFlagPublic | DIFlagPrototyped, spFlags: DISPFlagLocalToUnit) 
!526 = !DISubroutineType(types: !527) 
!527 = !{!25, !466, !436, !436, !152} 
!528 = !DISubprogram(name: "compare", linkageName: "_ZNKSt3__117basic_string_viewIcNS_11char_traitsIcEEE7compareEmmPKcm", scope: !431, file: !432, line: 431, type: !529, scopeLine: 431, flags: DIFlagPublic | DIFlagPrototyped, spFlags: DISPFlagLocalToUnit) 
!529 = !DISubroutineType(types: !530) 
!530 = !{!25, !466, !436, !436, !152, !436} 
!531 = !DISubprogram(name: "find", linkageName: "_ZNKSt3__117basic_string_viewIcNS_11char_traitsIcEEE4findES3_m", scope: !431, file: !432, line: 438, type: !532, scopeLine: 438, flags: DIFlagPublic | DIFlagPrototyped, spFlags: DISPFlagLocalToUnit) 
!532 = !DISubroutineType(types: !533) 
!533 = !{!509, !466, !431, !436} 
!534 = !DISubprogram(name: "find", linkageName: "_ZNKSt3__117basic_string_viewIcNS_11char_traitsIcEEE4findEcm", scope: !431, file: !432, line: 446, type: !535, scopeLine: 446, flags: DIFlagPublic | DIFlagPrototyped, spFlags: DISPFlagLocalToUnit) 
!535 = !DISubroutineType(types: !536) 
!536 = !{!509, !466, !154, !436} 
!537 = !DISubprogram(name: "find", linkageName: "_ZNKSt3__117basic_string_viewIcNS_11char_traitsIcEEE4findEPKcmm", scope: !431, file: !432, line: 453, type: !538, scopeLine: 453, flags: DIFlagPublic | DIFlagPrototyped, spFlags: DISPFlagLocalToUnit) 
!538 = !DISubroutineType(types: !539) 
!539 = !{!509, !466, !152, !436, !436} 
!540 = !DISubprogram(name: "find", linkageName: "_ZNKSt3__117basic_string_viewIcNS_11char_traitsIcEEE4findEPKcm", scope: !431, file: !432, line: 461, type: !541, scopeLine: 461, flags: DIFlagPublic | DIFlagPrototyped, spFlags: DISPFlagLocalToUnit) 
!541 = !DISubroutineType(types: !542) 
!542 = !{!509, !466, !152, !436} 
!543 = !DISubprogram(name: "rfind", linkageName: "_ZNKSt3__117basic_string_viewIcNS_11char_traitsIcEEE5rfindES3_m", scope: !431, file: !432, line: 470, type: !532, scopeLine: 470, flags: DIFlagPublic | DIFlagPrototyped, spFlags: DISPFlagLocalToUnit) 
!544 = !DISubprogram(name: "rfind", linkageName: "_ZNKSt3__117basic_string_viewIcNS_11char_traitsIcEEE5rfindEcm", scope: !431, file: !432, line: 478, type: !535, scopeLine: 478, flags: DIFlagPublic | DIFlagPrototyped, spFlags: DISPFlagLocalToUnit) 
!545 = !DISubprogram(name: "rfind", linkageName: "_ZNKSt3__117basic_string_viewIcNS_11char_traitsIcEEE5rfindEPKcmm", scope: !431, file: !432, line: 485, type: !538, scopeLine: 485, flags: DIFlagPublic | DIFlagPrototyped, spFlags: DISPFlagLocalToUnit) 
!546 = !DISubprogram(name: "rfind", linkageName: "_ZNKSt3__117basic_string_viewIcNS_11char_traitsIcEEE5rfindEPKcm", scope: !431, file: !432, line: 493, type: !541, scopeLine: 493, flags: DIFlagPublic | DIFlagPrototyped, spFlags: DISPFlagLocalToUnit) 
!547 = !DISubprogram(name: "find_first_of", linkageName: "_ZNKSt3__117basic_string_viewIcNS_11char_traitsIcEEE13find_first_ofES3_m", scope: !431, file: !432, line: 502, type: !532, scopeLine: 502, flags: DIFlagPublic | DIFlagPrototyped, spFlags: DISPFlagLocalToUnit) 
!548 = !DISubprogram(name: "find_first_of", linkageName: "_ZNKSt3__117basic_string_viewIcNS_11char_traitsIcEEE13find_first_ofEcm", scope: !431, file: !432, line: 510, type: !535, scopeLine: 510, flags: DIFlagPublic | DIFlagPrototyped, spFlags: DISPFlagLocalToUnit) 
!549 = !DISubprogram(name: "find_first_of", linkageName: "_ZNKSt3__117basic_string_viewIcNS_11char_traitsIcEEE13find_first_ofEPKcmm", scope: !431, file: !432, line: 514, type: !538, scopeLine: 514, flags: DIFlagPublic | DIFlagPrototyped, spFlags: DISPFlagLocalToUnit) 
!550 = !DISubprogram(name: "find_first_of", linkageName: "_ZNKSt3__117basic_string_viewIcNS_11char_traitsIcEEE13find_first_ofEPKcm", scope: !431, file: !432, line: 522, type: !541, scopeLine: 522, flags: DIFlagPublic | DIFlagPrototyped, spFlags: DISPFlagLocalToUnit) 
!551 = !DISubprogram(name: "find_last_of", linkageName: "_ZNKSt3__117basic_string_viewIcNS_11char_traitsIcEEE12find_last_ofES3_m", scope: !431, file: !432, line: 531, type: !532, scopeLine: 531, flags: DIFlagPublic | DIFlagPrototyped, spFlags: DISPFlagLocalToUnit) 
!552 = !DISubprogram(name: "find_last_of", linkageName: "_ZNKSt3__117basic_string_viewIcNS_11char_traitsIcEEE12find_last_ofEcm", scope: !431, file: !432, line: 539, type: !535, scopeLine: 539, flags: DIFlagPublic | DIFlagPrototyped, spFlags: DISPFlagLocalToUnit) 
!553 = !DISubprogram(name: "find_last_of", linkageName: "_ZNKSt3__117basic_string_viewIcNS_11char_traitsIcEEE12find_last_ofEPKcmm", scope: !431, file: !432, line: 543, type: !538, scopeLine: 543, flags: DIFlagPublic | DIFlagPrototyped, spFlags: DISPFlagLocalToUnit) 
!554 = !DISubprogram(name: "find_last_of", linkageName: "_ZNKSt3__117basic_string_viewIcNS_11char_traitsIcEEE12find_last_ofEPKcm", scope: !431, file: !432, line: 551, type: !541, scopeLine: 551, flags: DIFlagPublic | DIFlagPrototyped, spFlags: DISPFlagLocalToUnit) 
!555 = !DISubprogram(name: "find_first_not_of", linkageName: "_ZNKSt3__117basic_string_viewIcNS_11char_traitsIcEEE17find_first_not_ofES3_m", scope: !431, file: !432, line: 560, type: !532, scopeLine: 560, flags: DIFlagPublic | DIFlagPrototyped, spFlags: DISPFlagLocalToUnit) 
!556 = !DISubprogram(name: "find_first_not_of", linkageName: "_ZNKSt3__117basic_string_viewIcNS_11char_traitsIcEEE17find_first_not_ofEcm", scope: !431, file: !432, line: 568, type: !535, scopeLine: 568, flags: DIFlagPublic | DIFlagPrototyped, spFlags: DISPFlagLocalToUnit) 
!557 = !DISubprogram(name: "find_first_not_of", linkageName: "_ZNKSt3__117basic_string_viewIcNS_11char_traitsIcEEE17find_first_not_ofEPKcmm", scope: !431, file: !432, line: 575, type: !538, scopeLine: 575, flags: DIFlagPublic | DIFlagPrototyped, spFlags: DISPFlagLocalToUnit) 
!558 = !DISubprogram(name: "find_first_not_of", linkageName: "_ZNKSt3__117basic_string_viewIcNS_11char_traitsIcEEE17find_first_not_ofEPKcm", scope: !431, file: !432, line: 583, type: !541, scopeLine: 583, flags: DIFlagPublic | DIFlagPrototyped, spFlags: DISPFlagLocalToUnit) 
!559 = !DISubprogram(name: "find_last_not_of", linkageName: "_ZNKSt3__117basic_string_viewIcNS_11char_traitsIcEEE16find_last_not_ofES3_m", scope: !431, file: !432, line: 592, type: !532, scopeLine: 592, flags: DIFlagPublic | DIFlagPrototyped, spFlags: DISPFlagLocalToUnit) 
!560 = !DISubprogram(name: "find_last_not_of", linkageName: "_ZNKSt3__117basic_string_viewIcNS_11char_traitsIcEEE16find_last_not_ofEcm", scope: !431, file: !432, line: 600, type: !535, scopeLine: 600, flags: DIFlagPublic | DIFlagPrototyped, spFlags: DISPFlagLocalToUnit) 
!561 = !DISubprogram(name: "find_last_not_of", linkageName: "_ZNKSt3__117basic_string_viewIcNS_11char_traitsIcEEE16find_last_not_ofEPKcmm", scope: !431, file: !432, line: 607, type: !538, scopeLine: 607, flags: DIFlagPublic | DIFlagPrototyped, spFlags: DISPFlagLocalToUnit) 
!562 = !DISubprogram(name: "find_last_not_of", linkageName: "_ZNKSt3__117basic_string_viewIcNS_11char_traitsIcEEE16find_last_not_ofEPKcm", scope: !431, file: !432, line: 615, type: !541, scopeLine: 615, flags: DIFlagPublic | DIFlagPrototyped, spFlags: DISPFlagLocalToUnit) 
!563 = !{!292, !564} 
!564 = !DITemplateTypeParameter(name: "_Traits", type: !565) 
!565 = distinct !DICompositeType(tag: DW_TAG_structure_type, name: "char_traits<char>", scope: !17, file: !566, line: 324, size: 8, flags: DIFlagTypePassByValue, elements: !567, templateParams: !613, identifier: "_ZTSNSt3__111char_traitsIcEE") 
!566 = !DIFile(filename: "/Applications/Xcode.app/Contents/Developer/Platforms/MacOSX.platform/Developer/SDKs/MacOSX.sdk/usr/include/c++/v1/__string", directory: "") 
!567 = !{!568, !575, !578, !579, !583, !586, !589, !593, !594, !597, !601, !604, !607, !610} 
!568 = !DISubprogram(name: "assign", linkageName: "_ZNSt3__111char_traitsIcE6assignERcRKc", scope: !565, file: !566, line: 333, type: !569, scopeLine: 333, flags: DIFlagPrototyped | DIFlagStaticMember, spFlags: 0) 
!569 = !DISubroutineType(types: !570) 
!570 = !{null, !571, !573} 
!571 = !DIDerivedType(tag: DW_TAG_reference_type, baseType: !572, size: 64) 
!572 = !DIDerivedType(tag: DW_TAG_typedef, name: "char_type", scope: !565, file: !566, line: 326, baseType: !154) 
!573 = !DIDerivedType(tag: DW_TAG_reference_type, baseType: !574, size: 64) 
!574 = !DIDerivedType(tag: DW_TAG_const_type, baseType: !572) 
!575 = !DISubprogram(name: "eq", linkageName: "_ZNSt3__111char_traitsIcE2eqEcc", scope: !565, file: !566, line: 334, type: !576, scopeLine: 334, flags: DIFlagPrototyped | DIFlagStaticMember, spFlags: 0) 
!576 = !DISubroutineType(types: !577) 
!577 = !{!176, !572, !572} 
!578 = !DISubprogram(name: "lt", linkageName: "_ZNSt3__111char_traitsIcE2ltEcc", scope: !565, file: !566, line: 336, type: !576, scopeLine: 336, flags: DIFlagPrototyped | DIFlagStaticMember, spFlags: 0) 
!579 = !DISubprogram(name: "compare", linkageName: "_ZNSt3__111char_traitsIcE7compareEPKcS3_m", scope: !565, file: !566, line: 340, type: !580, scopeLine: 340, flags: DIFlagPrototyped | DIFlagStaticMember, spFlags: 0) 
!580 = !DISubroutineType(types: !581) 
!581 = !{!25, !582, !582, !83} 
!582 = !DIDerivedType(tag: DW_TAG_pointer_type, baseType: !574, size: 64) 
!583 = !DISubprogram(name: "length", linkageName: "_ZNSt3__111char_traitsIcE6lengthEPKc", scope: !565, file: !566, line: 342, type: !584, scopeLine: 342, flags: DIFlagPrototyped | DIFlagStaticMember, spFlags: 0) 
!584 = !DISubroutineType(types: !585) 
!585 = !{!83, !582} 
!586 = !DISubprogram(name: "find", linkageName: "_ZNSt3__111char_traitsIcE4findEPKcmRS2_", scope: !565, file: !566, line: 344, type: !587, scopeLine: 344, flags: DIFlagPrototyped | DIFlagStaticMember, spFlags: 0) 
!587 = !DISubroutineType(types: !588) 
!588 = !{!582, !582, !83, !573} 
!589 = !DISubprogram(name: "move", linkageName: "_ZNSt3__111char_traitsIcE4moveEPcPKcm", scope: !565, file: !566, line: 346, type: !590, scopeLine: 346, flags: DIFlagPrototyped | DIFlagStaticMember, spFlags: 0) 
!590 = !DISubroutineType(types: !591) 
!591 = !{!592, !592, !582, !83} 
!592 = !DIDerivedType(tag: DW_TAG_pointer_type, baseType: !572, size: 64) 
!593 = !DISubprogram(name: "copy", linkageName: "_ZNSt3__111char_traitsIcE4copyEPcPKcm", scope: !565, file: !566, line: 353, type: !590, scopeLine: 353, flags: DIFlagPrototyped | DIFlagStaticMember, spFlags: 0) 
!594 = !DISubprogram(name: "assign", linkageName: "_ZNSt3__111char_traitsIcE6assignEPcmc", scope: !565, file: !566, line: 361, type: !595, scopeLine: 361, flags: DIFlagPrototyped | DIFlagStaticMember, spFlags: 0) 
!595 = !DISubroutineType(types: !596) 
!596 = !{!592, !592, !83, !572} 
!597 = !DISubprogram(name: "not_eof", linkageName: "_ZNSt3__111char_traitsIcE7not_eofEi", scope: !565, file: !566, line: 368, type: !598, scopeLine: 368, flags: DIFlagPrototyped | DIFlagStaticMember, spFlags: 0) 
!598 = !DISubroutineType(types: !599) 
!599 = !{!600, !600} 
!600 = !DIDerivedType(tag: DW_TAG_typedef, name: "int_type", scope: !565, file: !566, line: 327, baseType: !25) 
!601 = !DISubprogram(name: "to_char_type", linkageName: "_ZNSt3__111char_traitsIcE12to_char_typeEi", scope: !565, file: !566, line: 370, type: !602, scopeLine: 370, flags: DIFlagPrototyped | DIFlagStaticMember, spFlags: 0) 
!602 = !DISubroutineType(types: !603) 
!603 = !{!572, !600} 
!604 = !DISubprogram(name: "to_int_type", linkageName: "_ZNSt3__111char_traitsIcE11to_int_typeEc", scope: !565, file: !566, line: 372, type: !605, scopeLine: 372, flags: DIFlagPrototyped | DIFlagStaticMember, spFlags: 0) 
!605 = !DISubroutineType(types: !606) 
!606 = !{!600, !572} 
!607 = !DISubprogram(name: "eq_int_type", linkageName: "_ZNSt3__111char_traitsIcE11eq_int_typeEii", scope: !565, file: !566, line: 374, type: !608, scopeLine: 374, flags: DIFlagPrototyped | DIFlagStaticMember, spFlags: 0) 
!608 = !DISubroutineType(types: !609) 
!609 = !{!176, !600, !600} 
!610 = !DISubprogram(name: "eof", linkageName: "_ZNSt3__111char_traitsIcE3eofEv", scope: !565, file: !566, line: 376, type: !611, scopeLine: 376, flags: DIFlagPrototyped | DIFlagStaticMember, spFlags: 0) 
!611 = !DISubroutineType(types: !612) 
!612 = !{!600} 
!613 = !{!292} 
!614 = !DIDerivedType(tag: DW_TAG_pointer_type, baseType: !407, size: 64, flags: DIFlagArtificial | DIFlagObjectPointer) 
!615 = !DISubprogram(name: "operator=", linkageName: "_ZNSt3__112basic_stringIcNS_11char_traitsIcEENS_9allocatorIcEEEaSERKS5_", scope: !162, file: !163, line: 905, type: !616, scopeLine: 905, flags: DIFlagPublic | DIFlagPrototyped, spFlags: 0) 
!616 = !DISubroutineType(types: !617) 
!617 = !{!618, !396, !406} 
!618 = !DIDerivedType(tag: DW_TAG_reference_type, baseType: !162, size: 64) 
!619 = !DISubprogram(name: "operator=", linkageName: "_ZNSt3__112basic_stringIcNS_11char_traitsIcEENS_9allocatorIcEEEaSEPKc", scope: !162, file: !163, line: 918, type: !620, scopeLine: 918, flags: DIFlagPublic | DIFlagPrototyped, spFlags: DISPFlagLocalToUnit) 
!620 = !DISubroutineType(types: !621) 
!621 = !{!618, !396, !622} 
!622 = !DIDerivedType(tag: DW_TAG_pointer_type, baseType: !623, size: 64) 
!623 = !DIDerivedType(tag: DW_TAG_const_type, baseType: !283) 
!624 = !DISubprogram(name: "operator=", linkageName: "_ZNSt3__112basic_stringIcNS_11char_traitsIcEENS_9allocatorIcEEEaSEc", scope: !162, file: !163, line: 922, type: !625, scopeLine: 922, flags: DIFlagPublic | DIFlagPrototyped, spFlags: 0) 
!625 = !DISubroutineType(types: !626) 
!626 = !{!618, !396, !283} 
!627 = !DISubprogram(name: "begin", linkageName: "_ZNSt3__112basic_stringIcNS_11char_traitsIcEENS_9allocatorIcEEE5beginEv", scope: !162, file: !163, line: 939, type: !628, scopeLine: 939, flags: DIFlagPublic | DIFlagPrototyped, spFlags: DISPFlagLocalToUnit) 
!628 = !DISubroutineType(types: !629) 
!629 = !{!630, !396} 
!630 = !DIDerivedType(tag: DW_TAG_typedef, name: "iterator", scope: !162, file: !163, line: 718, baseType: !631) 
!631 = !DICompositeType(tag: DW_TAG_class_type, name: "__wrap_iter<char *>", scope: !17, file: !632, line: 29, flags: DIFlagFwdDecl | DIFlagNonTrivial, identifier: "_ZTSNSt3__111__wrap_iterIPcEE") 
!632 = !DIFile(filename: "/Applications/Xcode.app/Contents/Developer/Platforms/MacOSX.platform/Developer/SDKs/MacOSX.sdk/usr/include/c++/v1/__iterator/wrap_iter.h", directory: "") 
!633 = !DISubprogram(name: "begin", linkageName: "_ZNKSt3__112basic_stringIcNS_11char_traitsIcEENS_9allocatorIcEEE5beginEv", scope: !162, file: !163, line: 942, type: !634, scopeLine: 942, flags: DIFlagPublic | DIFlagPrototyped, spFlags: DISPFlagLocalToUnit) 
!634 = !DISubroutineType(types: !635) 
!635 = !{!636, !614} 
!636 = !DIDerivedType(tag: DW_TAG_typedef, name: "const_iterator", scope: !162, file: !163, line: 719, baseType: !637) 
!637 = !DICompositeType(tag: DW_TAG_class_type, name: "__wrap_iter<const char *>", scope: !17, file: !632, line: 29, flags: DIFlagFwdDecl | DIFlagNonTrivial, identifier: "_ZTSNSt3__111__wrap_iterIPKcEE") 
!638 = !DISubprogram(name: "end", linkageName: "_ZNSt3__112basic_stringIcNS_11char_traitsIcEENS_9allocatorIcEEE3endEv", scope: !162, file: !163, line: 945, type: !628, scopeLine: 945, flags: DIFlagPublic | DIFlagPrototyped, spFlags: DISPFlagLocalToUnit) 
!639 = !DISubprogram(name: "end", linkageName: "_ZNKSt3__112basic_stringIcNS_11char_traitsIcEENS_9allocatorIcEEE3endEv", scope: !162, file: !163, line: 948, type: !634, scopeLine: 948, flags: DIFlagPublic | DIFlagPrototyped, spFlags: DISPFlagLocalToUnit) 
!640 = !DISubprogram(name: "rbegin", linkageName: "_ZNSt3__112basic_stringIcNS_11char_traitsIcEENS_9allocatorIcEEE6rbeginEv", scope: !162, file: !163, line: 952, type: !641, scopeLine: 952, flags: DIFlagPublic | DIFlagPrototyped, spFlags: DISPFlagLocalToUnit) 
!641 = !DISubroutineType(types: !642) 
!642 = !{!643, !396} 
!643 = !DIDerivedType(tag: DW_TAG_typedef, name: "reverse_iterator", scope: !162, file: !163, line: 720, baseType: !644) 
!644 = !DICompositeType(tag: DW_TAG_class_type, name: "reverse_iterator<std::__1::__wrap_iter<char *> >", scope: !17, file: !475, line: 37, flags: DIFlagFwdDecl | DIFlagNonTrivial, identifier: "_ZTSNSt3__116reverse_iteratorINS_11__wrap_iterIPcEEEE") 
!645 = !DISubprogram(name: "rbegin", linkageName: "_ZNKSt3__112basic_stringIcNS_11char_traitsIcEENS_9allocatorIcEEE6rbeginEv", scope: !162, file: !163, line: 955, type: !646, scopeLine: 955, flags: DIFlagPublic | DIFlagPrototyped, spFlags: DISPFlagLocalToUnit) 
!646 = !DISubroutineType(types: !647) 
!647 = !{!648, !614} 
!648 = !DIDerivedType(tag: DW_TAG_typedef, name: "const_reverse_iterator", scope: !162, file: !163, line: 721, baseType: !649) 
!649 = !DICompositeType(tag: DW_TAG_class_type, name: "reverse_iterator<std::__1::__wrap_iter<const char *> >", scope: !17, file: !475, line: 37, flags: DIFlagFwdDecl | DIFlagNonTrivial, identifier: "_ZTSNSt3__116reverse_iteratorINS_11__wrap_iterIPKcEEEE") 
!650 = !DISubprogram(name: "rend", linkageName: "_ZNSt3__112basic_stringIcNS_11char_traitsIcEENS_9allocatorIcEEE4rendEv", scope: !162, file: !163, line: 958, type: !641, scopeLine: 958, flags: DIFlagPublic | DIFlagPrototyped, spFlags: DISPFlagLocalToUnit) 
!651 = !DISubprogram(name: "rend", linkageName: "_ZNKSt3__112basic_stringIcNS_11char_traitsIcEENS_9allocatorIcEEE4rendEv", scope: !162, file: !163, line: 961, type: !646, scopeLine: 961, flags: DIFlagPublic | DIFlagPrototyped, spFlags: DISPFlagLocalToUnit) 
!652 = !DISubprogram(name: "cbegin", linkageName: "_ZNKSt3__112basic_stringIcNS_11char_traitsIcEENS_9allocatorIcEEE6cbeginEv", scope: !162, file: !163, line: 965, type: !634, scopeLine: 965, flags: DIFlagPublic | DIFlagPrototyped, spFlags: DISPFlagLocalToUnit) 
!653 = !DISubprogram(name: "cend", linkageName: "_ZNKSt3__112basic_stringIcNS_11char_traitsIcEENS_9allocatorIcEEE4cendEv", scope: !162, file: !163, line: 968, type: !634, scopeLine: 968, flags: DIFlagPublic | DIFlagPrototyped, spFlags: DISPFlagLocalToUnit) 
!654 = !DISubprogram(name: "crbegin", linkageName: "_ZNKSt3__112basic_stringIcNS_11char_traitsIcEENS_9allocatorIcEEE7crbeginEv", scope: !162, file: !163, line: 971, type: !646, scopeLine: 971, flags: DIFlagPublic | DIFlagPrototyped, spFlags: DISPFlagLocalToUnit) 
!655 = !DISubprogram(name: "crend", linkageName: "_ZNKSt3__112basic_stringIcNS_11char_traitsIcEENS_9allocatorIcEEE5crendEv", scope: !162, file: !163, line: 974, type: !646, scopeLine: 974, flags: DIFlagPublic | DIFlagPrototyped, spFlags: DISPFlagLocalToUnit) 
!656 = !DISubprogram(name: "size", linkageName: "_ZNKSt3__112basic_stringIcNS_11char_traitsIcEENS_9allocatorIcEEE4sizeEv", scope: !162, file: !163, line: 977, type: !657, scopeLine: 977, flags: DIFlagPublic | DIFlagPrototyped, spFlags: DISPFlagLocalToUnit) 
!657 = !DISubroutineType(types: !658) 
!658 = !{!179, !614} 
!659 = !DISubprogram(name: "length", linkageName: "_ZNKSt3__112basic_stringIcNS_11char_traitsIcEENS_9allocatorIcEEE6lengthEv", scope: !162, file: !163, line: 979, type: !657, scopeLine: 979, flags: DIFlagPublic | DIFlagPrototyped, spFlags: DISPFlagLocalToUnit) 
!660 = !DISubprogram(name: "max_size", linkageName: "_ZNKSt3__112basic_stringIcNS_11char_traitsIcEENS_9allocatorIcEEE8max_sizeEv", scope: !162, file: !163, line: 980, type: !657, scopeLine: 980, flags: DIFlagPublic | DIFlagPrototyped, spFlags: DISPFlagLocalToUnit) 
!661 = !DISubprogram(name: "capacity", linkageName: "_ZNKSt3__112basic_stringIcNS_11char_traitsIcEENS_9allocatorIcEEE8capacityEv", scope: !162, file: !163, line: 981, type: !657, scopeLine: 981, flags: DIFlagPublic | DIFlagPrototyped, spFlags: DISPFlagLocalToUnit) 
!662 = !DISubprogram(name: "resize", linkageName: "_ZNSt3__112basic_stringIcNS_11char_traitsIcEENS_9allocatorIcEEE6resizeEmc", scope: !162, file: !163, line: 985, type: !663, scopeLine: 985, flags: DIFlagPublic | DIFlagPrototyped, spFlags: 0) 
!663 = !DISubroutineType(types: !664) 
!664 = !{null, !396, !179, !283} 
!665 = !DISubprogram(name: "resize", linkageName: "_ZNSt3__112basic_stringIcNS_11char_traitsIcEENS_9allocatorIcEEE6resizeEm", scope: !162, file: !163, line: 986, type: !666, scopeLine: 986, flags: DIFlagPublic | DIFlagPrototyped, spFlags: DISPFlagLocalToUnit) 
!666 = !DISubroutineType(types: !667) 
!667 = !{null, !396, !179} 
!668 = !DISubprogram(name: "reserve", linkageName: "_ZNSt3__112basic_stringIcNS_11char_traitsIcEENS_9allocatorIcEEE7reserveEm", scope: !162, file: !163, line: 988, type: !666, scopeLine: 988, flags: DIFlagPublic | DIFlagPrototyped, spFlags: 0) 
!669 = !DISubprogram(name: "__resize_default_init", linkageName: "_ZNSt3__112basic_stringIcNS_11char_traitsIcEENS_9allocatorIcEEE21__resize_default_initEm", scope: !162, file: !163, line: 989, type: !666, scopeLine: 989, flags: DIFlagPublic | DIFlagPrototyped, spFlags: DISPFlagLocalToUnit) 
!670 = !DISubprogram(name: "reserve", linkageName: "_ZNSt3__112basic_stringIcNS_11char_traitsIcEENS_9allocatorIcEEE7reserveEv", scope: !162, file: !163, line: 992, type: !394, scopeLine: 992, flags: DIFlagPublic | DIFlagPrototyped, spFlags: DISPFlagLocalToUnit) 
!671 = !DISubprogram(name: "shrink_to_fit", linkageName: "_ZNSt3__112basic_stringIcNS_11char_traitsIcEENS_9allocatorIcEEE13shrink_to_fitEv", scope: !162, file: !163, line: 994, type: !394, scopeLine: 994, flags: DIFlagPublic | DIFlagPrototyped, spFlags: DISPFlagLocalToUnit) 
!672 = !DISubprogram(name: "clear", linkageName: "_ZNSt3__112basic_stringIcNS_11char_traitsIcEENS_9allocatorIcEEE5clearEv", scope: !162, file: !163, line: 996, type: !394, scopeLine: 996, flags: DIFlagPublic | DIFlagPrototyped, spFlags: DISPFlagLocalToUnit) 
!673 = !DISubprogram(name: "empty", linkageName: "_ZNKSt3__112basic_stringIcNS_11char_traitsIcEENS_9allocatorIcEEE5emptyEv", scope: !162, file: !163, line: 998, type: !674, scopeLine: 998, flags: DIFlagPublic | DIFlagPrototyped, spFlags: DISPFlagLocalToUnit) 
!674 = !DISubroutineType(types: !675) 
!675 = !{!176, !614} 
!676 = !DISubprogram(name: "operator[]", linkageName: "_ZNKSt3__112basic_stringIcNS_11char_traitsIcEENS_9allocatorIcEEEixEm", scope: !162, file: !163, line: 1000, type: !677, scopeLine: 1000, flags: DIFlagPublic | DIFlagPrototyped, spFlags: DISPFlagLocalToUnit) 
!677 = !DISubroutineType(types: !678) 
!678 = !{!679, !614, !179} 
!679 = !DIDerivedType(tag: DW_TAG_typedef, name: "const_reference", scope: !162, file: !163, line: 706, baseType: !680) 
!680 = !DIDerivedType(tag: DW_TAG_reference_type, baseType: !623, size: 64) 
!681 = !DISubprogram(name: "operator[]", linkageName: "_ZNSt3__112basic_stringIcNS_11char_traitsIcEENS_9allocatorIcEEEixEm", scope: !162, file: !163, line: 1001, type: !682, scopeLine: 1001, flags: DIFlagPublic | DIFlagPrototyped, spFlags: DISPFlagLocalToUnit) 
!682 = !DISubroutineType(types: !683) 
!683 = !{!684, !396, !179} 
!684 = !DIDerivedType(tag: DW_TAG_typedef, name: "reference", scope: !162, file: !163, line: 705, baseType: !685) 
!685 = !DIDerivedType(tag: DW_TAG_reference_type, baseType: !283, size: 64) 
!686 = !DISubprogram(name: "at", linkageName: "_ZNKSt3__112basic_stringIcNS_11char_traitsIcEENS_9allocatorIcEEE2atEm", scope: !162, file: !163, line: 1003, type: !677, scopeLine: 1003, flags: DIFlagPublic | DIFlagPrototyped, spFlags: 0) 
!687 = !DISubprogram(name: "at", linkageName: "_ZNSt3__112basic_stringIcNS_11char_traitsIcEENS_9allocatorIcEEE2atEm", scope: !162, file: !163, line: 1004, type: !682, scopeLine: 1004, flags: DIFlagPublic | DIFlagPrototyped, spFlags: 0) 
!688 = !DISubprogram(name: "operator+=", linkageName: "_ZNSt3__112basic_stringIcNS_11char_traitsIcEENS_9allocatorIcEEEpLERKS5_", scope: !162, file: !163, line: 1006, type: !616, scopeLine: 1006, flags: DIFlagPublic | DIFlagPrototyped, spFlags: DISPFlagLocalToUnit) 
!689 = !DISubprogram(name: "operator+=", linkageName: "_ZNSt3__112basic_stringIcNS_11char_traitsIcEENS_9allocatorIcEEEpLEPKc", scope: !162, file: !163, line: 1017, type: !620, scopeLine: 1017, flags: DIFlagPublic | DIFlagPrototyped, spFlags: DISPFlagLocalToUnit) 
!690 = !DISubprogram(name: "operator+=", linkageName: "_ZNSt3__112basic_stringIcNS_11char_traitsIcEENS_9allocatorIcEEEpLEc", scope: !162, file: !163, line: 1018, type: !625, scopeLine: 1018, flags: DIFlagPublic | DIFlagPrototyped, spFlags: DISPFlagLocalToUnit) 
!691 = !DISubprogram(name: "append", linkageName: "_ZNSt3__112basic_stringIcNS_11char_traitsIcEENS_9allocatorIcEEE6appendERKS5_", scope: !162, file: !163, line: 1024, type: !616, scopeLine: 1024, flags: DIFlagPublic | DIFlagPrototyped, spFlags: DISPFlagLocalToUnit) 
!692 = !DISubprogram(name: "append", linkageName: "_ZNSt3__112basic_stringIcNS_11char_traitsIcEENS_9allocatorIcEEE6appendERKS5_mm", scope: !162, file: !163, line: 1034, type: !693, scopeLine: 1034, flags: DIFlagPublic | DIFlagPrototyped, spFlags: 0) 
!693 = !DISubroutineType(types: !694) 
!694 = !{!618, !396, !406, !179, !179} 
!695 = !DISubprogram(name: "append", linkageName: "_ZNSt3__112basic_stringIcNS_11char_traitsIcEENS_9allocatorIcEEE6appendEPKcm", scope: !162, file: !163, line: 1045, type: !696, scopeLine: 1045, flags: DIFlagPublic | DIFlagPrototyped, spFlags: 0) 
!696 = !DISubroutineType(types: !697) 
!697 = !{!618, !396, !622, !179} 
!698 = !DISubprogram(name: "append", linkageName: "_ZNSt3__112basic_stringIcNS_11char_traitsIcEENS_9allocatorIcEEE6appendEPKc", scope: !162, file: !163, line: 1046, type: !620, scopeLine: 1046, flags: DIFlagPublic | DIFlagPrototyped, spFlags: 0) 
!699 = !DISubprogram(name: "append", linkageName: "_ZNSt3__112basic_stringIcNS_11char_traitsIcEENS_9allocatorIcEEE6appendEmc", scope: !162, file: !163, line: 1047, type: !700, scopeLine: 1047, flags: DIFlagPublic | DIFlagPrototyped, spFlags: 0) 
!700 = !DISubroutineType(types: !701) 
!701 = !{!618, !396, !179, !283} 
!702 = !DISubprogram(name: "__append_default_init", linkageName: "_ZNSt3__112basic_stringIcNS_11char_traitsIcEENS_9allocatorIcEEE21__append_default_initEm", scope: !162, file: !163, line: 1050, type: !666, scopeLine: 1050, flags: DIFlagPublic | DIFlagPrototyped, spFlags: DISPFlagLocalToUnit) 
!703 = !DISubprogram(name: "push_back", linkageName: "_ZNSt3__112basic_stringIcNS_11char_traitsIcEENS_9allocatorIcEEE9push_backEc", scope: !162, file: !163, line: 1080, type: !704, scopeLine: 1080, flags: DIFlagPublic | DIFlagPrototyped, spFlags: 0) 
!704 = !DISubroutineType(types: !705) 
!705 = !{null, !396, !283} 
!706 = !DISubprogram(name: "pop_back", linkageName: "_ZNSt3__112basic_stringIcNS_11char_traitsIcEENS_9allocatorIcEEE8pop_backEv", scope: !162, file: !163, line: 1082, type: !394, scopeLine: 1082, flags: DIFlagPublic | DIFlagPrototyped, spFlags: DISPFlagLocalToUnit) 
!707 = !DISubprogram(name: "front", linkageName: "_ZNSt3__112basic_stringIcNS_11char_traitsIcEENS_9allocatorIcEEE5frontEv", scope: !162, file: !163, line: 1083, type: !708, scopeLine: 1083, flags: DIFlagPublic | DIFlagPrototyped, spFlags: DISPFlagLocalToUnit) 
!708 = !DISubroutineType(types: !709) 
!709 = !{!684, !396} 
!710 = !DISubprogram(name: "front", linkageName: "_ZNKSt3__112basic_stringIcNS_11char_traitsIcEENS_9allocatorIcEEE5frontEv", scope: !162, file: !163, line: 1084, type: !711, scopeLine: 1084, flags: DIFlagPublic | DIFlagPrototyped, spFlags: DISPFlagLocalToUnit) 
!711 = !DISubroutineType(types: !712) 
!712 = !{!679, !614} 
!713 = !DISubprogram(name: "back", linkageName: "_ZNSt3__112basic_stringIcNS_11char_traitsIcEENS_9allocatorIcEEE4backEv", scope: !162, file: !163, line: 1085, type: !708, scopeLine: 1085, flags: DIFlagPublic | DIFlagPrototyped, spFlags: DISPFlagLocalToUnit) 
!714 = !DISubprogram(name: "back", linkageName: "_ZNKSt3__112basic_stringIcNS_11char_traitsIcEENS_9allocatorIcEEE4backEv", scope: !162, file: !163, line: 1086, type: !711, scopeLine: 1086, flags: DIFlagPublic | DIFlagPrototyped, spFlags: DISPFlagLocalToUnit) 
!715 = !DISubprogram(name: "assign", linkageName: "_ZNSt3__112basic_stringIcNS_11char_traitsIcEENS_9allocatorIcEEE6assignERKS5_", scope: !162, file: !163, line: 1097, type: !616, scopeLine: 1097, flags: DIFlagPublic | DIFlagPrototyped, spFlags: DISPFlagLocalToUnit) 
!716 = !DISubprogram(name: "assign", linkageName: "_ZNSt3__112basic_stringIcNS_11char_traitsIcEENS_9allocatorIcEEE6assignERKS5_mm", scope: !162, file: !163, line: 1104, type: !693, scopeLine: 1104, flags: DIFlagPublic | DIFlagPrototyped, spFlags: 0) 
!717 = !DISubprogram(name: "assign", linkageName: "_ZNSt3__112basic_stringIcNS_11char_traitsIcEENS_9allocatorIcEEE6assignEPKcm", scope: !162, file: !163, line: 1114, type: !696, scopeLine: 1114, flags: DIFlagPublic | DIFlagPrototyped, spFlags: 0) 
!718 = !DISubprogram(name: "assign", linkageName: "_ZNSt3__112basic_stringIcNS_11char_traitsIcEENS_9allocatorIcEEE6assignEPKc", scope: !162, file: !163, line: 1115, type: !620, scopeLine: 1115, flags: DIFlagPublic | DIFlagPrototyped, spFlags: 0) 
!719 = !DISubprogram(name: "assign", linkageName: "_ZNSt3__112basic_stringIcNS_11char_traitsIcEENS_9allocatorIcEEE6assignEmc", scope: !162, file: !163, line: 1116, type: !700, scopeLine: 1116, flags: DIFlagPublic | DIFlagPrototyped, spFlags: 0) 
!720 = !DISubprogram(name: "insert", linkageName: "_ZNSt3__112basic_stringIcNS_11char_traitsIcEENS_9allocatorIcEEE6insertEmRKS5_", scope: !162, file: !163, line: 1139, type: !721, scopeLine: 1139, flags: DIFlagPublic | DIFlagPrototyped, spFlags: DISPFlagLocalToUnit) 
!721 = !DISubroutineType(types: !722) 
!722 = !{!618, !396, !179, !406} 
!723 = !DISubprogram(name: "insert", linkageName: "_ZNSt3__112basic_stringIcNS_11char_traitsIcEENS_9allocatorIcEEE6insertEmRKS5_mm", scope: !162, file: !163, line: 1159, type: !724, scopeLine: 1159, flags: DIFlagPublic | DIFlagPrototyped, spFlags: 0) 
!724 = !DISubroutineType(types: !725) 
!725 = !{!618, !396, !179, !406, !179, !179} 
!726 = !DISubprogram(name: "insert", linkageName: "_ZNSt3__112basic_stringIcNS_11char_traitsIcEENS_9allocatorIcEEE6insertEmPKcm", scope: !162, file: !163, line: 1160, type: !727, scopeLine: 1160, flags: DIFlagPublic | DIFlagPrototyped, spFlags: 0) 
!727 = !DISubroutineType(types: !728) 
!728 = !{!618, !396, !179, !622, !179} 
!729 = !DISubprogram(name: "insert", linkageName: "_ZNSt3__112basic_stringIcNS_11char_traitsIcEENS_9allocatorIcEEE6insertEmPKc", scope: !162, file: !163, line: 1161, type: !730, scopeLine: 1161, flags: DIFlagPublic | DIFlagPrototyped, spFlags: 0) 
!730 = !DISubroutineType(types: !731) 
!731 = !{!618, !396, !179, !622} 
!732 = !DISubprogram(name: "insert", linkageName: "_ZNSt3__112basic_stringIcNS_11char_traitsIcEENS_9allocatorIcEEE6insertEmmc", scope: !162, file: !163, line: 1162, type: !733, scopeLine: 1162, flags: DIFlagPublic | DIFlagPrototyped, spFlags: 0) 
!733 = !DISubroutineType(types: !734) 
!734 = !{!618, !396, !179, !179, !283} 
!735 = !DISubprogram(name: "insert", linkageName: "_ZNSt3__112basic_stringIcNS_11char_traitsIcEENS_9allocatorIcEEE6insertENS_11__wrap_iterIPKcEEc", scope: !162, file: !163, line: 1163, type: !736, scopeLine: 1163, flags: DIFlagPublic | DIFlagPrototyped, spFlags: 0) 
!736 = !DISubroutineType(types: !737) 
!737 = !{!630, !396, !636, !283} 
!738 = !DISubprogram(name: "insert", linkageName: "_ZNSt3__112basic_stringIcNS_11char_traitsIcEENS_9allocatorIcEEE6insertENS_11__wrap_iterIPKcEEmc", scope: !162, file: !163, line: 1165, type: !739, scopeLine: 1165, flags: DIFlagPublic | DIFlagPrototyped, spFlags: DISPFlagLocalToUnit) 
!739 = !DISubroutineType(types: !740) 
!740 = !{!630, !396, !636, !179, !283} 
!741 = !DISubprogram(name: "erase", linkageName: "_ZNSt3__112basic_stringIcNS_11char_traitsIcEENS_9allocatorIcEEE5eraseEmm", scope: !162, file: !163, line: 1188, type: !742, scopeLine: 1188, flags: DIFlagPublic | DIFlagPrototyped, spFlags: 0) 
!742 = !DISubroutineType(types: !743) 
!743 = !{!618, !396, !179, !179} 
!744 = !DISubprogram(name: "erase", linkageName: "_ZNSt3__112basic_stringIcNS_11char_traitsIcEENS_9allocatorIcEEE5eraseENS_11__wrap_iterIPKcEE", scope: !162, file: !163, line: 1190, type: !745, scopeLine: 1190, flags: DIFlagPublic | DIFlagPrototyped, spFlags: DISPFlagLocalToUnit) 
!745 = !DISubroutineType(types: !746) 
!746 = !{!630, !396, !636} 
!747 = !DISubprogram(name: "erase", linkageName: "_ZNSt3__112basic_stringIcNS_11char_traitsIcEENS_9allocatorIcEEE5eraseENS_11__wrap_iterIPKcEES9_", scope: !162, file: !163, line: 1192, type: !748, scopeLine: 1192, flags: DIFlagPublic | DIFlagPrototyped, spFlags: DISPFlagLocalToUnit) 
!748 = !DISubroutineType(types: !749) 
!749 = !{!630, !396, !636, !636} 
!750 = !DISubprogram(name: "replace", linkageName: "_ZNSt3__112basic_stringIcNS_11char_traitsIcEENS_9allocatorIcEEE7replaceEmmRKS5_", scope: !162, file: !163, line: 1195, type: !751, scopeLine: 1195, flags: DIFlagPublic | DIFlagPrototyped, spFlags: DISPFlagLocalToUnit) 
!751 = !DISubroutineType(types: !752) 
!752 = !{!618, !396, !179, !179, !406} 
!753 = !DISubprogram(name: "replace", linkageName: "_ZNSt3__112basic_stringIcNS_11char_traitsIcEENS_9allocatorIcEEE7replaceEmmRKS5_mm", scope: !162, file: !163, line: 1205, type: !754, scopeLine: 1205, flags: DIFlagPublic | DIFlagPrototyped, spFlags: 0) 
!754 = !DISubroutineType(types: !755) 
!755 = !{!618, !396, !179, !179, !406, !179, !179} 
!756 = !DISubprogram(name: "replace", linkageName: "_ZNSt3__112basic_stringIcNS_11char_traitsIcEENS_9allocatorIcEEE7replaceEmmPKcm", scope: !162, file: !163, line: 1214, type: !757, scopeLine: 1214, flags: DIFlagPublic | DIFlagPrototyped, spFlags: 0) 
!757 = !DISubroutineType(types: !758) 
!758 = !{!618, !396, !179, !179, !622, !179} 
!759 = !DISubprogram(name: "replace", linkageName: "_ZNSt3__112basic_stringIcNS_11char_traitsIcEENS_9allocatorIcEEE7replaceEmmPKc", scope: !162, file: !163, line: 1215, type: !760, scopeLine: 1215, flags: DIFlagPublic | DIFlagPrototyped, spFlags: 0) 
!760 = !DISubroutineType(types: !761) 
!761 = !{!618, !396, !179, !179, !622} 
!762 = !DISubprogram(name: "replace", linkageName: "_ZNSt3__112basic_stringIcNS_11char_traitsIcEENS_9allocatorIcEEE7replaceEmmmc", scope: !162, file: !163, line: 1216, type: !763, scopeLine: 1216, flags: DIFlagPublic | DIFlagPrototyped, spFlags: 0) 
!763 = !DISubroutineType(types: !764) 
!764 = !{!618, !396, !179, !179, !179, !283} 
!765 = !DISubprogram(name: "replace", linkageName: "_ZNSt3__112basic_stringIcNS_11char_traitsIcEENS_9allocatorIcEEE7replaceENS_11__wrap_iterIPKcEES9_RKS5_", scope: !162, file: !163, line: 1218, type: !766, scopeLine: 1218, flags: DIFlagPublic | DIFlagPrototyped, spFlags: DISPFlagLocalToUnit) 
!766 = !DISubroutineType(types: !767) 
!767 = !{!618, !396, !636, !636, !406} 
!768 = !DISubprogram(name: "replace", linkageName: "_ZNSt3__112basic_stringIcNS_11char_traitsIcEENS_9allocatorIcEEE7replaceENS_11__wrap_iterIPKcEES9_S8_m", scope: !162, file: !163, line: 1230, type: !769, scopeLine: 1230, flags: DIFlagPublic | DIFlagPrototyped, spFlags: DISPFlagLocalToUnit) 
!769 = !DISubroutineType(types: !770) 
!770 = !{!618, !396, !636, !636, !622, !179} 
!771 = !DISubprogram(name: "replace", linkageName: "_ZNSt3__112basic_stringIcNS_11char_traitsIcEENS_9allocatorIcEEE7replaceENS_11__wrap_iterIPKcEES9_S8_", scope: !162, file: !163, line: 1232, type: !772, scopeLine: 1232, flags: DIFlagPublic | DIFlagPrototyped, spFlags: DISPFlagLocalToUnit) 
!772 = !DISubroutineType(types: !773) 
!773 = !{!618, !396, !636, !636, !622} 
!774 = !DISubprogram(name: "replace", linkageName: "_ZNSt3__112basic_stringIcNS_11char_traitsIcEENS_9allocatorIcEEE7replaceENS_11__wrap_iterIPKcEES9_mc", scope: !162, file: !163, line: 1234, type: !775, scopeLine: 1234, flags: DIFlagPublic | DIFlagPrototyped, spFlags: DISPFlagLocalToUnit) 
!775 = !DISubroutineType(types: !776) 
!776 = !{!618, !396, !636, !636, !179, !283} 
!777 = !DISubprogram(name: "copy", linkageName: "_ZNKSt3__112basic_stringIcNS_11char_traitsIcEENS_9allocatorIcEEE4copyEPcmm", scope: !162, file: !163, line: 1249, type: !778, scopeLine: 1249, flags: DIFlagPublic | DIFlagPrototyped, spFlags: 0) 
!778 = !DISubroutineType(types: !779) 
!779 = !{!179, !614, !780, !179, !179} 
!780 = !DIDerivedType(tag: DW_TAG_pointer_type, baseType: !283, size: 64) 
!781 = !DISubprogram(name: "substr", linkageName: "_ZNKSt3__112basic_stringIcNS_11char_traitsIcEENS_9allocatorIcEEE6substrEmm", scope: !162, file: !163, line: 1251, type: !782, scopeLine: 1251, flags: DIFlagPublic | DIFlagPrototyped, spFlags: DISPFlagLocalToUnit) 
!782 = !DISubroutineType(types: !783) 
!783 = !{!162, !614, !179, !179} 
!784 = !DISubprogram(name: "swap", linkageName: "_ZNSt3__112basic_stringIcNS_11char_traitsIcEENS_9allocatorIcEEE4swapERS5_", scope: !162, file: !163, line: 1254, type: !785, scopeLine: 1254, flags: DIFlagPublic | DIFlagPrototyped, spFlags: DISPFlagLocalToUnit) 
!785 = !DISubroutineType(types: !786) 
!786 = !{null, !396, !618} 
!787 = !DISubprogram(name: "c_str", linkageName: "_ZNKSt3__112basic_stringIcNS_11char_traitsIcEENS_9allocatorIcEEE5c_strEv", scope: !162, file: !163, line: 1263, type: !788, scopeLine: 1263, flags: DIFlagPublic | DIFlagPrototyped, spFlags: DISPFlagLocalToUnit) 
!788 = !DISubroutineType(types: !789) 
!789 = !{!622, !614} 
!790 = !DISubprogram(name: "data", linkageName: "_ZNKSt3__112basic_stringIcNS_11char_traitsIcEENS_9allocatorIcEEE4dataEv", scope: !162, file: !163, line: 1265, type: !788, scopeLine: 1265, flags: DIFlagPublic | DIFlagPrototyped, spFlags: DISPFlagLocalToUnit) 
!791 = !DISubprogram(name: "get_allocator", linkageName: "_ZNKSt3__112basic_stringIcNS_11char_traitsIcEENS_9allocatorIcEEE13get_allocatorEv", scope: !162, file: !163, line: 1272, type: !792, scopeLine: 1272, flags: DIFlagPublic | DIFlagPrototyped, spFlags: DISPFlagLocalToUnit) 
!792 = !DISubroutineType(types: !793) 
!793 = !{!402, !614} 
