; ModuleID = 'main.cc'
source_filename = "main.cc"
target datalayout = "e-m:o-i64:64-i128:128-n32:64-S128"
target triple = "arm64-apple-macosx13.0.0"

%"class.std::__1::basic_ostream" = type { i32 (...)**, %"class.std::__1::basic_ios.base" }
%"class.std::__1::basic_ios.base" = type <{ %"class.std::__1::ios_base", %"class.std::__1::basic_ostream"*, i32 }>
%"class.std::__1::ios_base" = type { i32 (...)**, i32, i64, i64, i32, i32, i8*, i8*, void (i32, %"class.std::__1::ios_base"*, i32)**, i32*, i64, i64, i64*, i64, i64, i8**, i64, i64 }
%"class.std::__1::locale::id" = type <{ %"struct.std::__1::once_flag", i32, [4 x i8] }>
%"struct.std::__1::once_flag" = type { i64 }
%"class.std::__1::basic_ostream<char>::sentry" = type { i8, %"class.std::__1::basic_ostream"* }
%"class.std::__1::ostreambuf_iterator" = type { %"class.std::__1::basic_streambuf"* }
%"class.std::__1::basic_streambuf" = type { i32 (...)**, %"class.std::__1::locale", i8*, i8*, i8*, i8*, i8*, i8* }
%"class.std::__1::locale" = type { %"class.std::__1::locale::__imp"* }
%"class.std::__1::locale::__imp" = type opaque
%"class.std::__1::basic_ios" = type <{ %"class.std::__1::ios_base", %"class.std::__1::basic_ostream"*, i32, [4 x i8] }>
%"class.std::__1::basic_string" = type { %"class.std::__1::__compressed_pair" }
%"class.std::__1::__compressed_pair" = type { %"struct.std::__1::__compressed_pair_elem" }
%"struct.std::__1::__compressed_pair_elem" = type { %"struct.std::__1::basic_string<char>::__rep" }
%"struct.std::__1::basic_string<char>::__rep" = type { %union.anon }
%union.anon = type { %"struct.std::__1::basic_string<char>::__long" }
%"struct.std::__1::basic_string<char>::__long" = type { i8*, i64, i64 }
%"struct.std::__1::__default_init_tag" = type { i8 }
%"struct.std::__1::__compressed_pair_elem.0" = type { i8 }
%"class.std::__1::allocator" = type { i8 }
%"struct.std::__1::__non_trivial_if" = type { i8 }
%"struct.std::__1::basic_string<char>::__short" = type { [23 x i8], [0 x i8], i8 }
%"struct.std::__1::iterator" = type { i8 }
%"class.std::__1::ctype" = type <{ %"class.std::__1::locale::facet", i32*, i8, [7 x i8] }>
%"class.std::__1::locale::facet" = type { %"class.std::__1::__shared_count" }
%"class.std::__1::__shared_count" = type { i32 (...)**, i64 }

@_ZNSt3__14coutE = external global %"class.std::__1::basic_ostream", align 8
@.str = private unnamed_addr constant [7 x i8] c"start\0A\00", align 1
@_ZNSt3__15ctypeIcE2idE = external global %"class.std::__1::locale::id", align 8

;======================================================================
;======================================================================
; FILE * file = fopen("test.txt", "w+");
%struct.__sFILE = type { i8*, i32, i32, i16, i16, %struct.__sbuf, i32, i8*, i32 (i8*)*, i32 (i8*, i8*, i32)*, i64 (i8*, i64, i32)*, i32 (i8*, i8*, i32)*, %struct.__sbuf, %struct.__sFILEX*, i32, [3 x i8], [1 x i8], %struct.__sbuf, i32, i64 }
%struct.__sFILEX = type opaque
%struct.__sbuf = type { i8*, i32 }

@.str.openfile = private unnamed_addr constant [9 x i8] c"test.txt\00", align 1
@.str.write = private unnamed_addr constant [3 x i8] c"w+\00", align 1

;비교를 위한 전역변수 선언
;int tempint;
;float tempfloat;
@tempint = global i32 0, align 4
@tempfloat = global float 0.000000e+00, align 4

;변수명 출력
@__const.main.var_1_name = private unnamed_addr constant [5 x i8] c"xxxx\00", align 1

;op type
@.str.op_declare = private unnamed_addr constant [9 x i8] c"declare\0A\00", align 1
@.str.op_sum = private unnamed_addr constant [5 x i8] c"sum\0A\00", align 1
@.str.op_mul = private unnamed_addr constant [5 x i8] c"mul\0A\00", align 1
@.str.op_sub = private unnamed_addr constant [5 x i8] c"sub\0A\00", align 1


;출력문 형식
@.str.print_str = private unnamed_addr constant [4 x i8] c"%s\0A\00", align 1
@.str.print_int = private unnamed_addr constant [4 x i8] c"%d\0A\00", align 1
@.str.print_ptr = private unnamed_addr constant [4 x i8] c"%p\0A\00", align 1

;typeinfo 
%"class.std::type_info" = type { i32 (...)**, i64 }
@_ZTIi = external constant i8*

@.str.int = private unnamed_addr constant [5 x i8] c"int\0A\00", align 1
@.str.float = private unnamed_addr constant [7 x i8] c"float\0A\00", align 1
@.str.char = private unnamed_addr constant [6 x i8] c"char\0A\00", align 1

;======================================================================
;======================================================================

; Function Attrs: noinline norecurse optnone ssp uwtable
define i32 @main() #0 !dbg !2726 {
entry:
  %retval = alloca i32, align 4
  store i32 0, i32* %retval, align 4
  %call = call nonnull align 8 dereferenceable(8) %"class.std::__1::basic_ostream"* @_ZNSt3__1lsINS_11char_traitsIcEEEERNS_13basic_ostreamIcT_EES6_PKc(%"class.std::__1::basic_ostream"* nonnull align 8 dereferenceable(8) @_ZNSt3__14coutE, i8* getelementptr inbounds ([7 x i8], [7 x i8]* @.str, i64 0, i64 0)), !dbg !2727

  ; open file ============================================
  %file = alloca %struct.__sFILE*, align 8
  store i32 0, i32* %retval, align 4
  %callfile = call %struct.__sFILE* @"\01_fopen"(i8* getelementptr inbounds ([9 x i8], [9 x i8]* @.str.openfile, i64 0, i64 0), i8* getelementptr inbounds ([3 x i8], [3 x i8]* @.str.write, i64 0, i64 0))
  store %struct.__sFILE* %callfile, %struct.__sFILE** %file, align 8
  %loadfile = load %struct.__sFILE*, %struct.__sFILE** %file, align 8, !dbg !85


  ;함수 선언
  ;int xxxx = 5;
  %xxxx = alloca i32, align 4
  store i32 5, i32* %xxxx, align 4

  ;;op 
  call i32 (%struct.__sFILE*, i8*, ...) @fprintf(%struct.__sFILE* %loadfile, i8* getelementptr inbounds ([9 x i8], [9 x i8]* @.str.op_declare, i64 0, i64 0))

  ;char str222[] = GET_NAME(xxxx);
  %var_1_name = alloca [5 x i8], align 1
  %temp_var_1_name = bitcast [5 x i8]* %var_1_name to i8*
  call void @llvm.memcpy.p0i8.p0i8.i64(i8* align 1 %temp_var_1_name, i8* align 1 getelementptr inbounds ([5 x i8], [5 x i8]* @__const.main.var_1_name, i32 0, i32 0), i64 5, i1 false)

  ;fprintf(file, "%s\n", str222);
  %arraydecay = getelementptr inbounds [5 x i8], [5 x i8]* %var_1_name, i64 0, i64 0
  call i32 (%struct.__sFILE*, i8*, ...) @fprintf(%struct.__sFILE* %loadfile, i8* getelementptr inbounds ([4 x i8], [4 x i8]* @.str.print_str, i64 0, i64 0), i8* %arraydecay)

  ;if(typeid(xxxx).name() == typeid(tempint).name())
  ;  {
  ;      cout << "int" << "\n";
  ;      fprintf(file, "%s\n", typeid(xxxx).name());
  ;  }

  ; typeid(xxxx).name();
  ;%temp_val_1_type = call i8* @_ZNKSt9type_info4nameB6v15006Ev(%"class.std::type_info"* bitcast (i8** @_ZTIi to %"class.std::type_info"*)) #7 
  ;%val_1_type = call nonnull align 8 dereferenceable(8) %"class.std::__1::basic_ostream"* @_ZNSt3__1lsINS_11char_traitsIcEEEERNS_13basic_ostreamIcT_EES6_PKc(%"class.std::__1::basic_ostream"* nonnull align 8 dereferenceable(8) @_ZNSt3__14coutE, i8* %temp_val_1_type)

  ;if(typeid(xxxx).name() == typeid(tempint).name())
  %call11 = call i8* @_ZNKSt9type_info4nameB6v15006Ev(%"class.std::type_info"* bitcast (i8** @_ZTIi to %"class.std::type_info"*)) #8
  %call22 = call i8* @_ZNKSt9type_info4nameB6v15006Ev(%"class.std::type_info"* bitcast (i8** @_ZTIi to %"class.std::type_info"*)) #8

  %cmptype = icmp eq i8* %call11, %call22
  br i1 %cmptype, label %if.then, label %if.end

  ;      cout << "int" << "\n";
  ;      fprintf(file, "%s\n", typeid(xxxx).name());
if.then:                                          ; preds = %entry
  ;%printInt = call nonnull align 8 dereferenceable(8) %"class.std::__1::basic_ostream"* @_ZNSt3__1lsINS_11char_traitsIcEEEERNS_13basic_ostreamIcT_EES6_PKc(%"class.std::__1::basic_ostream"* nonnull align 8 dereferenceable(8) @_ZNSt3__14coutE, i8* getelementptr inbounds ([5 x i8], [5 x i8]* @.str.int, i64 0, i64 0))
  %var_1_type = call i8* @_ZNKSt9type_info4nameB6v15006Ev(%"class.std::type_info"* bitcast (i8** @_ZTIi to %"class.std::type_info"*)) #8
  call i32 (%struct.__sFILE*, i8*, ...) @fprintf(%struct.__sFILE* %loadfile, i8* getelementptr inbounds ([4 x i8], [4 x i8]* @.str.print_str, i64 0, i64 0), i8* %var_1_type)
  br label %if.end

if.end:    

  ;fprintf(file, "%d\n", xxxx);
  %var_1_value = load i32, i32* %xxxx, align 4
  %call_var_1_value = call i32 (%struct.__sFILE*, i8*, ...) @fprintf(%struct.__sFILE* %loadfile, i8* getelementptr inbounds ([4 x i8], [4 x i8]* @.str.print_int, i64 0, i64 0), i32 %var_1_value)

  ;fprintf(file, "%p\n", &xxxx);
  %call_var_1_ptr = call i32 (%struct.__sFILE*, i8*, ...) @fprintf(%struct.__sFILE* %loadfile, i8* getelementptr inbounds ([4 x i8], [4 x i8]* @.str.print_ptr, i64 0, i64 0), i32* %xxxx)

  ret i32 0, !dbg !2728
}

; Function Attrs: noinline optnone ssp uwtable
define linkonce_odr nonnull align 8 dereferenceable(8) %"class.std::__1::basic_ostream"* @_ZNSt3__1lsINS_11char_traitsIcEEEERNS_13basic_ostreamIcT_EES6_PKc(%"class.std::__1::basic_ostream"* nonnull align 8 dereferenceable(8) %__os, i8* %__str) #1 !dbg !2729 {
entry:
  %__os.addr = alloca %"class.std::__1::basic_ostream"*, align 8
  %__str.addr = alloca i8*, align 8
  store %"class.std::__1::basic_ostream"* %__os, %"class.std::__1::basic_ostream"** %__os.addr, align 8
  call void @llvm.dbg.declare(metadata %"class.std::__1::basic_ostream"** %__os.addr, metadata !2733, metadata !DIExpression()), !dbg !2734
  store i8* %__str, i8** %__str.addr, align 8
  call void @llvm.dbg.declare(metadata i8** %__str.addr, metadata !2735, metadata !DIExpression()), !dbg !2736
  %0 = load %"class.std::__1::basic_ostream"*, %"class.std::__1::basic_ostream"** %__os.addr, align 8, !dbg !2737
  %1 = load i8*, i8** %__str.addr, align 8, !dbg !2738
  %2 = load i8*, i8** %__str.addr, align 8, !dbg !2739
  %call = call i64 @_ZNSt3__111char_traitsIcE6lengthEPKc(i8* %2) #8, !dbg !2740
  %call1 = call nonnull align 8 dereferenceable(8) %"class.std::__1::basic_ostream"* @_ZNSt3__124__put_character_sequenceIcNS_11char_traitsIcEEEERNS_13basic_ostreamIT_T0_EES7_PKS4_m(%"class.std::__1::basic_ostream"* nonnull align 8 dereferenceable(8) %0, i8* %1, i64 %call), !dbg !2741
  ret %"class.std::__1::basic_ostream"* %call1, !dbg !2742
}

;======================================================================
;======================================================================
declare %struct.__sFILE* @"\01_fopen"(i8*, i8*) #4
declare i32 @fprintf(%struct.__sFILE*, i8*, ...) #4

; Function Attrs: noinline nounwind optnone ssp uwtable
define linkonce_odr hidden i8* @_ZNKSt9type_info4nameB6v15006Ev(%"class.std::type_info"* %this) #3 align 2 {
entry:
  %__v.addr.i = alloca i64, align 8
  %this.addr = alloca %"class.std::type_info"*, align 8
  store %"class.std::type_info"* %this, %"class.std::type_info"** %this.addr, align 8
  %this1 = load %"class.std::type_info"*, %"class.std::type_info"** %this.addr, align 8
  %__type_name = getelementptr inbounds %"class.std::type_info", %"class.std::type_info"* %this1, i32 0, i32 1
  %0 = load i64, i64* %__type_name, align 8
  store i64 %0, i64* %__v.addr.i, align 8
  %1 = load i64, i64* %__v.addr.i, align 8
  %and.i = and i64 %1, 9223372036854775807
  %2 = inttoptr i64 %and.i to i8*
  ret i8* %2
}
;======================================================================
;======================================================================
; Function Attrs: nofree nosync nounwind readnone speculatable willreturn
declare void @llvm.dbg.declare(metadata, metadata, metadata) #2



; Function Attrs: noinline optnone ssp uwtable
define linkonce_odr nonnull align 8 dereferenceable(8) %"class.std::__1::basic_ostream"* @_ZNSt3__124__put_character_sequenceIcNS_11char_traitsIcEEEERNS_13basic_ostreamIT_T0_EES7_PKS4_m(%"class.std::__1::basic_ostream"* nonnull align 8 dereferenceable(8) %__os, i8* %__str, i64 %__len) #1 personality i8* bitcast (i32 (...)* @__gxx_personality_v0 to i8*) !dbg !1144 {
entry:
  %__os.addr = alloca %"class.std::__1::basic_ostream"*, align 8
  %__str.addr = alloca i8*, align 8
  %__len.addr = alloca i64, align 8
  %__s = alloca %"class.std::__1::basic_ostream<char>::sentry", align 8
  %exn.slot = alloca i8*, align 8
  %ehselector.slot = alloca i32, align 4
  %ref.tmp = alloca %"class.std::__1::ostreambuf_iterator", align 8
  %agg.tmp = alloca %"class.std::__1::ostreambuf_iterator", align 8
  store %"class.std::__1::basic_ostream"* %__os, %"class.std::__1::basic_ostream"** %__os.addr, align 8
  call void @llvm.dbg.declare(metadata %"class.std::__1::basic_ostream"** %__os.addr, metadata !2743, metadata !DIExpression()), !dbg !2744
  store i8* %__str, i8** %__str.addr, align 8
  call void @llvm.dbg.declare(metadata i8** %__str.addr, metadata !2745, metadata !DIExpression()), !dbg !2746
  store i64 %__len, i64* %__len.addr, align 8
  call void @llvm.dbg.declare(metadata i64* %__len.addr, metadata !2747, metadata !DIExpression()), !dbg !2748
  call void @llvm.dbg.declare(metadata %"class.std::__1::basic_ostream<char>::sentry"* %__s, metadata !2749, metadata !DIExpression()), !dbg !2775
  %0 = load %"class.std::__1::basic_ostream"*, %"class.std::__1::basic_ostream"** %__os.addr, align 8, !dbg !2776
  %call = invoke %"class.std::__1::basic_ostream<char>::sentry"* @_ZNSt3__113basic_ostreamIcNS_11char_traitsIcEEE6sentryC1ERS3_(%"class.std::__1::basic_ostream<char>::sentry"* %__s, %"class.std::__1::basic_ostream"* nonnull align 8 dereferenceable(8) %0)
          to label %invoke.cont unwind label %lpad, !dbg !2775

invoke.cont:                                      ; preds = %entry
  %call3 = invoke zeroext i1 @_ZNKSt3__113basic_ostreamIcNS_11char_traitsIcEEE6sentrycvbB6v15006Ev(%"class.std::__1::basic_ostream<char>::sentry"* %__s)
          to label %invoke.cont2 unwind label %lpad1, !dbg !2777

invoke.cont2:                                     ; preds = %invoke.cont
  br i1 %call3, label %if.then, label %if.end29, !dbg !2779

if.then:                                          ; preds = %invoke.cont2
  %1 = load %"class.std::__1::basic_ostream"*, %"class.std::__1::basic_ostream"** %__os.addr, align 8, !dbg !2780
  %call4 = call %"class.std::__1::ostreambuf_iterator"* @_ZNSt3__119ostreambuf_iteratorIcNS_11char_traitsIcEEEC1B6v15006ERNS_13basic_ostreamIcS2_EE(%"class.std::__1::ostreambuf_iterator"* %agg.tmp, %"class.std::__1::basic_ostream"* nonnull align 8 dereferenceable(8) %1) #8, !dbg !2783
  %2 = load i8*, i8** %__str.addr, align 8, !dbg !2784
  %3 = load %"class.std::__1::basic_ostream"*, %"class.std::__1::basic_ostream"** %__os.addr, align 8, !dbg !2785
  %4 = bitcast %"class.std::__1::basic_ostream"* %3 to i8**, !dbg !2785
  %vtable = load i8*, i8** %4, align 8, !dbg !2785
  %vbase.offset.ptr = getelementptr i8, i8* %vtable, i64 -24, !dbg !2785
  %5 = bitcast i8* %vbase.offset.ptr to i64*, !dbg !2785
  %vbase.offset = load i64, i64* %5, align 8, !dbg !2785
  %6 = bitcast %"class.std::__1::basic_ostream"* %3 to i8*, !dbg !2785
  %add.ptr = getelementptr inbounds i8, i8* %6, i64 %vbase.offset, !dbg !2785
  %7 = bitcast i8* %add.ptr to %"class.std::__1::ios_base"*, !dbg !2785
  %call6 = invoke i32 @_ZNKSt3__18ios_base5flagsB6v15006Ev(%"class.std::__1::ios_base"* %7)
          to label %invoke.cont5 unwind label %lpad1, !dbg !2786

invoke.cont5:                                     ; preds = %if.then
  %and = and i32 %call6, 176, !dbg !2787
  %cmp = icmp eq i32 %and, 32, !dbg !2788
  br i1 %cmp, label %cond.true, label %cond.false, !dbg !2789

cond.true:                                        ; preds = %invoke.cont5
  %8 = load i8*, i8** %__str.addr, align 8, !dbg !2790
  %9 = load i64, i64* %__len.addr, align 8, !dbg !2791
  %add.ptr7 = getelementptr inbounds i8, i8* %8, i64 %9, !dbg !2792
  br label %cond.end, !dbg !2789

cond.false:                                       ; preds = %invoke.cont5
  %10 = load i8*, i8** %__str.addr, align 8, !dbg !2793
  br label %cond.end, !dbg !2789

cond.end:                                         ; preds = %cond.false, %cond.true
  %cond = phi i8* [ %add.ptr7, %cond.true ], [ %10, %cond.false ], !dbg !2789
  %11 = load i8*, i8** %__str.addr, align 8, !dbg !2794
  %12 = load i64, i64* %__len.addr, align 8, !dbg !2795
  %add.ptr8 = getelementptr inbounds i8, i8* %11, i64 %12, !dbg !2796
  %13 = load %"class.std::__1::basic_ostream"*, %"class.std::__1::basic_ostream"** %__os.addr, align 8, !dbg !2797
  %14 = bitcast %"class.std::__1::basic_ostream"* %13 to i8**, !dbg !2797
  %vtable9 = load i8*, i8** %14, align 8, !dbg !2797
  %vbase.offset.ptr10 = getelementptr i8, i8* %vtable9, i64 -24, !dbg !2797
  %15 = bitcast i8* %vbase.offset.ptr10 to i64*, !dbg !2797
  %vbase.offset11 = load i64, i64* %15, align 8, !dbg !2797
  %16 = bitcast %"class.std::__1::basic_ostream"* %13 to i8*, !dbg !2797
  %add.ptr12 = getelementptr inbounds i8, i8* %16, i64 %vbase.offset11, !dbg !2797
  %17 = bitcast i8* %add.ptr12 to %"class.std::__1::ios_base"*, !dbg !2797
  %18 = load %"class.std::__1::basic_ostream"*, %"class.std::__1::basic_ostream"** %__os.addr, align 8, !dbg !2798
  %19 = bitcast %"class.std::__1::basic_ostream"* %18 to i8**, !dbg !2798
  %vtable13 = load i8*, i8** %19, align 8, !dbg !2798
  %vbase.offset.ptr14 = getelementptr i8, i8* %vtable13, i64 -24, !dbg !2798
  %20 = bitcast i8* %vbase.offset.ptr14 to i64*, !dbg !2798
  %vbase.offset15 = load i64, i64* %20, align 8, !dbg !2798
  %21 = bitcast %"class.std::__1::basic_ostream"* %18 to i8*, !dbg !2798
  %add.ptr16 = getelementptr inbounds i8, i8* %21, i64 %vbase.offset15, !dbg !2798
  %22 = bitcast i8* %add.ptr16 to %"class.std::__1::basic_ios"*, !dbg !2798
  %call18 = invoke signext i8 @_ZNKSt3__19basic_iosIcNS_11char_traitsIcEEE4fillB6v15006Ev(%"class.std::__1::basic_ios"* %22)
          to label %invoke.cont17 unwind label %lpad1, !dbg !2799

invoke.cont17:                                    ; preds = %cond.end
  %coerce.dive = getelementptr inbounds %"class.std::__1::ostreambuf_iterator", %"class.std::__1::ostreambuf_iterator"* %agg.tmp, i32 0, i32 0, !dbg !2800
  %23 = load %"class.std::__1::basic_streambuf"*, %"class.std::__1::basic_streambuf"** %coerce.dive, align 8, !dbg !2800
  %coerce.val.pi = ptrtoint %"class.std::__1::basic_streambuf"* %23 to i64, !dbg !2800
  %call20 = invoke i64 @_ZNSt3__116__pad_and_outputIcNS_11char_traitsIcEEEENS_19ostreambuf_iteratorIT_T0_EES6_PKS4_S8_S8_RNS_8ios_baseES4_(i64 %coerce.val.pi, i8* %2, i8* %cond, i8* %add.ptr8, %"class.std::__1::ios_base"* nonnull align 8 dereferenceable(136) %17, i8 signext %call18)
          to label %invoke.cont19 unwind label %lpad1, !dbg !2800

invoke.cont19:                                    ; preds = %invoke.cont17
  %coerce.dive21 = getelementptr inbounds %"class.std::__1::ostreambuf_iterator", %"class.std::__1::ostreambuf_iterator"* %ref.tmp, i32 0, i32 0, !dbg !2800
  %coerce.val.ip = inttoptr i64 %call20 to %"class.std::__1::basic_streambuf"*, !dbg !2800
  store %"class.std::__1::basic_streambuf"* %coerce.val.ip, %"class.std::__1::basic_streambuf"** %coerce.dive21, align 8, !dbg !2800
  %call22 = call zeroext i1 @_ZNKSt3__119ostreambuf_iteratorIcNS_11char_traitsIcEEE6failedB6v15006Ev(%"class.std::__1::ostreambuf_iterator"* %ref.tmp) #8, !dbg !2801
  br i1 %call22, label %if.then23, label %if.end, !dbg !2802

if.then23:                                        ; preds = %invoke.cont19
  %24 = load %"class.std::__1::basic_ostream"*, %"class.std::__1::basic_ostream"** %__os.addr, align 8, !dbg !2803
  %25 = bitcast %"class.std::__1::basic_ostream"* %24 to i8**, !dbg !2803
  %vtable24 = load i8*, i8** %25, align 8, !dbg !2803
  %vbase.offset.ptr25 = getelementptr i8, i8* %vtable24, i64 -24, !dbg !2803
  %26 = bitcast i8* %vbase.offset.ptr25 to i64*, !dbg !2803
  %vbase.offset26 = load i64, i64* %26, align 8, !dbg !2803
  %27 = bitcast %"class.std::__1::basic_ostream"* %24 to i8*, !dbg !2803
  %add.ptr27 = getelementptr inbounds i8, i8* %27, i64 %vbase.offset26, !dbg !2803
  %28 = bitcast i8* %add.ptr27 to %"class.std::__1::basic_ios"*, !dbg !2803
  invoke void @_ZNSt3__19basic_iosIcNS_11char_traitsIcEEE8setstateB6v15006Ej(%"class.std::__1::basic_ios"* %28, i32 5)
          to label %invoke.cont28 unwind label %lpad1, !dbg !2804

invoke.cont28:                                    ; preds = %if.then23
  br label %if.end, !dbg !2803

lpad:                                             ; preds = %if.end29, %entry
  %29 = landingpad { i8*, i32 }
          catch i8* null, !dbg !2805
  %30 = extractvalue { i8*, i32 } %29, 0, !dbg !2805
  store i8* %30, i8** %exn.slot, align 8, !dbg !2805
  %31 = extractvalue { i8*, i32 } %29, 1, !dbg !2805
  store i32 %31, i32* %ehselector.slot, align 4, !dbg !2805
  br label %catch, !dbg !2805

lpad1:                                            ; preds = %if.then23, %invoke.cont17, %cond.end, %if.then, %invoke.cont
  %32 = landingpad { i8*, i32 }
          catch i8* null, !dbg !2806
  %33 = extractvalue { i8*, i32 } %32, 0, !dbg !2806
  store i8* %33, i8** %exn.slot, align 8, !dbg !2806
  %34 = extractvalue { i8*, i32 } %32, 1, !dbg !2806
  store i32 %34, i32* %ehselector.slot, align 4, !dbg !2806
  %call33 = invoke %"class.std::__1::basic_ostream<char>::sentry"* @_ZNSt3__113basic_ostreamIcNS_11char_traitsIcEEE6sentryD1Ev(%"class.std::__1::basic_ostream<char>::sentry"* %__s)
          to label %invoke.cont32 unwind label %terminate.lpad, !dbg !2807

if.end:                                           ; preds = %invoke.cont28, %invoke.cont19
  br label %if.end29, !dbg !2808

if.end29:                                         ; preds = %if.end, %invoke.cont2
  %call31 = invoke %"class.std::__1::basic_ostream<char>::sentry"* @_ZNSt3__113basic_ostreamIcNS_11char_traitsIcEEE6sentryD1Ev(%"class.std::__1::basic_ostream<char>::sentry"* %__s)
          to label %invoke.cont30 unwind label %lpad, !dbg !2807

invoke.cont30:                                    ; preds = %if.end29
  br label %try.cont, !dbg !2809

invoke.cont32:                                    ; preds = %lpad1
  br label %catch, !dbg !2807

catch:                                            ; preds = %invoke.cont32, %lpad
  %exn = load i8*, i8** %exn.slot, align 8, !dbg !2809
  %35 = call i8* @__cxa_begin_catch(i8* %exn) #8, !dbg !2809
  %36 = load %"class.std::__1::basic_ostream"*, %"class.std::__1::basic_ostream"** %__os.addr, align 8, !dbg !2810
  %37 = bitcast %"class.std::__1::basic_ostream"* %36 to i8**, !dbg !2810
  %vtable34 = load i8*, i8** %37, align 8, !dbg !2810
  %vbase.offset.ptr35 = getelementptr i8, i8* %vtable34, i64 -24, !dbg !2810
  %38 = bitcast i8* %vbase.offset.ptr35 to i64*, !dbg !2810
  %vbase.offset36 = load i64, i64* %38, align 8, !dbg !2810
  %39 = bitcast %"class.std::__1::basic_ostream"* %36 to i8*, !dbg !2810
  %add.ptr37 = getelementptr inbounds i8, i8* %39, i64 %vbase.offset36, !dbg !2810
  %40 = bitcast i8* %add.ptr37 to %"class.std::__1::ios_base"*, !dbg !2810
  invoke void @_ZNSt3__18ios_base33__set_badbit_and_consider_rethrowEv(%"class.std::__1::ios_base"* %40)
          to label %invoke.cont39 unwind label %lpad38, !dbg !2812

invoke.cont39:                                    ; preds = %catch
  call void @__cxa_end_catch(), !dbg !2813
  br label %try.cont, !dbg !2813

try.cont:                                         ; preds = %invoke.cont39, %invoke.cont30
  %41 = load %"class.std::__1::basic_ostream"*, %"class.std::__1::basic_ostream"** %__os.addr, align 8, !dbg !2814
  ret %"class.std::__1::basic_ostream"* %41, !dbg !2815

lpad38:                                           ; preds = %catch
  %42 = landingpad { i8*, i32 }
          cleanup, !dbg !2816
  %43 = extractvalue { i8*, i32 } %42, 0, !dbg !2816
  store i8* %43, i8** %exn.slot, align 8, !dbg !2816
  %44 = extractvalue { i8*, i32 } %42, 1, !dbg !2816
  store i32 %44, i32* %ehselector.slot, align 4, !dbg !2816
  invoke void @__cxa_end_catch()
          to label %invoke.cont40 unwind label %terminate.lpad, !dbg !2813

invoke.cont40:                                    ; preds = %lpad38
  br label %eh.resume, !dbg !2813

eh.resume:                                        ; preds = %invoke.cont40
  %exn41 = load i8*, i8** %exn.slot, align 8, !dbg !2813
  %sel = load i32, i32* %ehselector.slot, align 4, !dbg !2813
  %lpad.val = insertvalue { i8*, i32 } undef, i8* %exn41, 0, !dbg !2813
  %lpad.val42 = insertvalue { i8*, i32 } %lpad.val, i32 %sel, 1, !dbg !2813
  resume { i8*, i32 } %lpad.val42, !dbg !2813

terminate.lpad:                                   ; preds = %lpad38, %lpad1
  %45 = landingpad { i8*, i32 }
          catch i8* null, !dbg !2807
  %46 = extractvalue { i8*, i32 } %45, 0, !dbg !2807
  call void @__clang_call_terminate(i8* %46) #9, !dbg !2807
  unreachable, !dbg !2807
}

; Function Attrs: noinline nounwind optnone ssp uwtable
define linkonce_odr i64 @_ZNSt3__111char_traitsIcE6lengthEPKc(i8* %__s) #3 align 2 !dbg !2817 {
entry:
  %__s.addr = alloca i8*, align 8
  store i8* %__s, i8** %__s.addr, align 8
  call void @llvm.dbg.declare(metadata i8** %__s.addr, metadata !2818, metadata !DIExpression()), !dbg !2819
  %0 = load i8*, i8** %__s.addr, align 8, !dbg !2820
  %call = call i64 @strlen(i8* %0) #8, !dbg !2821
  ret i64 %call, !dbg !2822
}

declare %"class.std::__1::basic_ostream<char>::sentry"* @_ZNSt3__113basic_ostreamIcNS_11char_traitsIcEEE6sentryC1ERS3_(%"class.std::__1::basic_ostream<char>::sentry"* returned, %"class.std::__1::basic_ostream"* nonnull align 8 dereferenceable(8)) unnamed_addr #4

declare i32 @__gxx_personality_v0(...)

; Function Attrs: noinline nounwind optnone ssp uwtable
define linkonce_odr hidden zeroext i1 @_ZNKSt3__113basic_ostreamIcNS_11char_traitsIcEEE6sentrycvbB6v15006Ev(%"class.std::__1::basic_ostream<char>::sentry"* %this) #3 align 2 !dbg !2823 {
entry:
  %this.addr = alloca %"class.std::__1::basic_ostream<char>::sentry"*, align 8
  store %"class.std::__1::basic_ostream<char>::sentry"* %this, %"class.std::__1::basic_ostream<char>::sentry"** %this.addr, align 8
  call void @llvm.dbg.declare(metadata %"class.std::__1::basic_ostream<char>::sentry"** %this.addr, metadata !2824, metadata !DIExpression()), !dbg !2826
  %this1 = load %"class.std::__1::basic_ostream<char>::sentry"*, %"class.std::__1::basic_ostream<char>::sentry"** %this.addr, align 8
  %__ok_ = getelementptr inbounds %"class.std::__1::basic_ostream<char>::sentry", %"class.std::__1::basic_ostream<char>::sentry"* %this1, i32 0, i32 0, !dbg !2827
  %0 = load i8, i8* %__ok_, align 8, !dbg !2827
  %tobool = trunc i8 %0 to i1, !dbg !2827
  ret i1 %tobool, !dbg !2828
}

; Function Attrs: noinline optnone ssp uwtable
define linkonce_odr hidden i64 @_ZNSt3__116__pad_and_outputIcNS_11char_traitsIcEEEENS_19ostreambuf_iteratorIT_T0_EES6_PKS4_S8_S8_RNS_8ios_baseES4_(i64 %__s.coerce, i8* %__ob, i8* %__op, i8* %__oe, %"class.std::__1::ios_base"* nonnull align 8 dereferenceable(136) %__iob, i8 signext %__fl) #1 personality i8* bitcast (i32 (...)* @__gxx_personality_v0 to i8*) !dbg !2829 {
entry:
  %retval = alloca %"class.std::__1::ostreambuf_iterator", align 8
  %__s = alloca %"class.std::__1::ostreambuf_iterator", align 8
  %__ob.addr = alloca i8*, align 8
  %__op.addr = alloca i8*, align 8
  %__oe.addr = alloca i8*, align 8
  %__iob.addr = alloca %"class.std::__1::ios_base"*, align 8
  %__fl.addr = alloca i8, align 1
  %__sz = alloca i64, align 8
  %__ns = alloca i64, align 8
  %__np = alloca i64, align 8
  %__sp = alloca %"class.std::__1::basic_string", align 8
  %exn.slot = alloca i8*, align 8
  %ehselector.slot = alloca i32, align 4
  %cleanup.dest.slot = alloca i32, align 4
  %coerce.dive = getelementptr inbounds %"class.std::__1::ostreambuf_iterator", %"class.std::__1::ostreambuf_iterator"* %__s, i32 0, i32 0
  %coerce.val.ip = inttoptr i64 %__s.coerce to %"class.std::__1::basic_streambuf"*
  store %"class.std::__1::basic_streambuf"* %coerce.val.ip, %"class.std::__1::basic_streambuf"** %coerce.dive, align 8
  call void @llvm.dbg.declare(metadata %"class.std::__1::ostreambuf_iterator"* %__s, metadata !2833, metadata !DIExpression()), !dbg !2834
  store i8* %__ob, i8** %__ob.addr, align 8
  call void @llvm.dbg.declare(metadata i8** %__ob.addr, metadata !2835, metadata !DIExpression()), !dbg !2836
  store i8* %__op, i8** %__op.addr, align 8
  call void @llvm.dbg.declare(metadata i8** %__op.addr, metadata !2837, metadata !DIExpression()), !dbg !2838
  store i8* %__oe, i8** %__oe.addr, align 8
  call void @llvm.dbg.declare(metadata i8** %__oe.addr, metadata !2839, metadata !DIExpression()), !dbg !2840
  store %"class.std::__1::ios_base"* %__iob, %"class.std::__1::ios_base"** %__iob.addr, align 8
  call void @llvm.dbg.declare(metadata %"class.std::__1::ios_base"** %__iob.addr, metadata !2841, metadata !DIExpression()), !dbg !2842
  store i8 %__fl, i8* %__fl.addr, align 1
  call void @llvm.dbg.declare(metadata i8* %__fl.addr, metadata !2843, metadata !DIExpression()), !dbg !2844
  %__sbuf_ = getelementptr inbounds %"class.std::__1::ostreambuf_iterator", %"class.std::__1::ostreambuf_iterator"* %__s, i32 0, i32 0, !dbg !2845
  %0 = load %"class.std::__1::basic_streambuf"*, %"class.std::__1::basic_streambuf"** %__sbuf_, align 8, !dbg !2845
  %cmp = icmp eq %"class.std::__1::basic_streambuf"* %0, null, !dbg !2847
  br i1 %cmp, label %if.then, label %if.end, !dbg !2848

if.then:                                          ; preds = %entry
  %1 = bitcast %"class.std::__1::ostreambuf_iterator"* %retval to i8*, !dbg !2849
  %2 = bitcast %"class.std::__1::ostreambuf_iterator"* %__s to i8*, !dbg !2849
  call void @llvm.memcpy.p0i8.p0i8.i64(i8* align 8 %1, i8* align 8 %2, i64 8, i1 false), !dbg !2849
  br label %return, !dbg !2850

if.end:                                           ; preds = %entry
  call void @llvm.dbg.declare(metadata i64* %__sz, metadata !2851, metadata !DIExpression()), !dbg !2852
  %3 = load i8*, i8** %__oe.addr, align 8, !dbg !2853
  %4 = load i8*, i8** %__ob.addr, align 8, !dbg !2854
  %sub.ptr.lhs.cast = ptrtoint i8* %3 to i64, !dbg !2855
  %sub.ptr.rhs.cast = ptrtoint i8* %4 to i64, !dbg !2855
  %sub.ptr.sub = sub i64 %sub.ptr.lhs.cast, %sub.ptr.rhs.cast, !dbg !2855
  store i64 %sub.ptr.sub, i64* %__sz, align 8, !dbg !2852
  call void @llvm.dbg.declare(metadata i64* %__ns, metadata !2856, metadata !DIExpression()), !dbg !2857
  %5 = load %"class.std::__1::ios_base"*, %"class.std::__1::ios_base"** %__iob.addr, align 8, !dbg !2858
  %call = call i64 @_ZNKSt3__18ios_base5widthB6v15006Ev(%"class.std::__1::ios_base"* %5), !dbg !2859
  store i64 %call, i64* %__ns, align 8, !dbg !2857
  %6 = load i64, i64* %__ns, align 8, !dbg !2860
  %7 = load i64, i64* %__sz, align 8, !dbg !2862
  %cmp1 = icmp sgt i64 %6, %7, !dbg !2863
  br i1 %cmp1, label %if.then2, label %if.else, !dbg !2864

if.then2:                                         ; preds = %if.end
  %8 = load i64, i64* %__sz, align 8, !dbg !2865
  %9 = load i64, i64* %__ns, align 8, !dbg !2866
  %sub = sub nsw i64 %9, %8, !dbg !2866
  store i64 %sub, i64* %__ns, align 8, !dbg !2866
  br label %if.end3, !dbg !2867

if.else:                                          ; preds = %if.end
  store i64 0, i64* %__ns, align 8, !dbg !2868
  br label %if.end3

if.end3:                                          ; preds = %if.else, %if.then2
  call void @llvm.dbg.declare(metadata i64* %__np, metadata !2869, metadata !DIExpression()), !dbg !2870
  %10 = load i8*, i8** %__op.addr, align 8, !dbg !2871
  %11 = load i8*, i8** %__ob.addr, align 8, !dbg !2872
  %sub.ptr.lhs.cast4 = ptrtoint i8* %10 to i64, !dbg !2873
  %sub.ptr.rhs.cast5 = ptrtoint i8* %11 to i64, !dbg !2873
  %sub.ptr.sub6 = sub i64 %sub.ptr.lhs.cast4, %sub.ptr.rhs.cast5, !dbg !2873
  store i64 %sub.ptr.sub6, i64* %__np, align 8, !dbg !2870
  %12 = load i64, i64* %__np, align 8, !dbg !2874
  %cmp7 = icmp sgt i64 %12, 0, !dbg !2876
  br i1 %cmp7, label %if.then8, label %if.end15, !dbg !2877

if.then8:                                         ; preds = %if.end3
  %__sbuf_9 = getelementptr inbounds %"class.std::__1::ostreambuf_iterator", %"class.std::__1::ostreambuf_iterator"* %__s, i32 0, i32 0, !dbg !2878
  %13 = load %"class.std::__1::basic_streambuf"*, %"class.std::__1::basic_streambuf"** %__sbuf_9, align 8, !dbg !2878
  %14 = load i8*, i8** %__ob.addr, align 8, !dbg !2881
  %15 = load i64, i64* %__np, align 8, !dbg !2882
  %call10 = call i64 @_ZNSt3__115basic_streambufIcNS_11char_traitsIcEEE5sputnB6v15006EPKcl(%"class.std::__1::basic_streambuf"* %13, i8* %14, i64 %15), !dbg !2883
  %16 = load i64, i64* %__np, align 8, !dbg !2884
  %cmp11 = icmp ne i64 %call10, %16, !dbg !2885
  br i1 %cmp11, label %if.then12, label %if.end14, !dbg !2886

if.then12:                                        ; preds = %if.then8
  %__sbuf_13 = getelementptr inbounds %"class.std::__1::ostreambuf_iterator", %"class.std::__1::ostreambuf_iterator"* %__s, i32 0, i32 0, !dbg !2887
  store %"class.std::__1::basic_streambuf"* null, %"class.std::__1::basic_streambuf"** %__sbuf_13, align 8, !dbg !2889
  %17 = bitcast %"class.std::__1::ostreambuf_iterator"* %retval to i8*, !dbg !2890
  %18 = bitcast %"class.std::__1::ostreambuf_iterator"* %__s to i8*, !dbg !2890
  call void @llvm.memcpy.p0i8.p0i8.i64(i8* align 8 %17, i8* align 8 %18, i64 8, i1 false), !dbg !2890
  br label %return, !dbg !2891

if.end14:                                         ; preds = %if.then8
  br label %if.end15, !dbg !2892

if.end15:                                         ; preds = %if.end14, %if.end3
  %19 = load i64, i64* %__ns, align 8, !dbg !2893
  %cmp16 = icmp sgt i64 %19, 0, !dbg !2895
  br i1 %cmp16, label %if.then17, label %if.end29, !dbg !2896

if.then17:                                        ; preds = %if.end15
  call void @llvm.dbg.declare(metadata %"class.std::__1::basic_string"* %__sp, metadata !2897, metadata !DIExpression()), !dbg !2899
  %20 = load i64, i64* %__ns, align 8, !dbg !2900
  %21 = load i8, i8* %__fl.addr, align 1, !dbg !2901
  %call18 = call %"class.std::__1::basic_string"* @_ZNSt3__112basic_stringIcNS_11char_traitsIcEENS_9allocatorIcEEEC1B6v15006Emc(%"class.std::__1::basic_string"* %__sp, i64 %20, i8 signext %21), !dbg !2899
  %__sbuf_19 = getelementptr inbounds %"class.std::__1::ostreambuf_iterator", %"class.std::__1::ostreambuf_iterator"* %__s, i32 0, i32 0, !dbg !2902
  %22 = load %"class.std::__1::basic_streambuf"*, %"class.std::__1::basic_streambuf"** %__sbuf_19, align 8, !dbg !2902
  %call20 = call i8* @_ZNKSt3__112basic_stringIcNS_11char_traitsIcEENS_9allocatorIcEEE4dataB6v15006Ev(%"class.std::__1::basic_string"* %__sp) #8, !dbg !2904
  %23 = load i64, i64* %__ns, align 8, !dbg !2905
  %call21 = invoke i64 @_ZNSt3__115basic_streambufIcNS_11char_traitsIcEEE5sputnB6v15006EPKcl(%"class.std::__1::basic_streambuf"* %22, i8* %call20, i64 %23)
          to label %invoke.cont unwind label %lpad, !dbg !2906

invoke.cont:                                      ; preds = %if.then17
  %24 = load i64, i64* %__ns, align 8, !dbg !2907
  %cmp22 = icmp ne i64 %call21, %24, !dbg !2908
  br i1 %cmp22, label %if.then23, label %if.end25, !dbg !2909

if.then23:                                        ; preds = %invoke.cont
  %__sbuf_24 = getelementptr inbounds %"class.std::__1::ostreambuf_iterator", %"class.std::__1::ostreambuf_iterator"* %__s, i32 0, i32 0, !dbg !2910
  store %"class.std::__1::basic_streambuf"* null, %"class.std::__1::basic_streambuf"** %__sbuf_24, align 8, !dbg !2912
  %25 = bitcast %"class.std::__1::ostreambuf_iterator"* %retval to i8*, !dbg !2913
  %26 = bitcast %"class.std::__1::ostreambuf_iterator"* %__s to i8*, !dbg !2913
  call void @llvm.memcpy.p0i8.p0i8.i64(i8* align 8 %25, i8* align 8 %26, i64 8, i1 false), !dbg !2913
  store i32 1, i32* %cleanup.dest.slot, align 4
  br label %cleanup, !dbg !2914

lpad:                                             ; preds = %if.then17
  %27 = landingpad { i8*, i32 }
          cleanup, !dbg !2915
  %28 = extractvalue { i8*, i32 } %27, 0, !dbg !2915
  store i8* %28, i8** %exn.slot, align 8, !dbg !2915
  %29 = extractvalue { i8*, i32 } %27, 1, !dbg !2915
  store i32 %29, i32* %ehselector.slot, align 4, !dbg !2915
  %call28 = invoke %"class.std::__1::basic_string"* @_ZNSt3__112basic_stringIcNS_11char_traitsIcEENS_9allocatorIcEEED1Ev(%"class.std::__1::basic_string"* %__sp)
          to label %invoke.cont27 unwind label %terminate.lpad, !dbg !2916

if.end25:                                         ; preds = %invoke.cont
  store i32 0, i32* %cleanup.dest.slot, align 4, !dbg !2916
  br label %cleanup, !dbg !2916

cleanup:                                          ; preds = %if.end25, %if.then23
  %call26 = call %"class.std::__1::basic_string"* @_ZNSt3__112basic_stringIcNS_11char_traitsIcEENS_9allocatorIcEEED1Ev(%"class.std::__1::basic_string"* %__sp), !dbg !2916
  %cleanup.dest = load i32, i32* %cleanup.dest.slot, align 4
  switch i32 %cleanup.dest, label %unreachable [
    i32 0, label %cleanup.cont
    i32 1, label %return
  ]

cleanup.cont:                                     ; preds = %cleanup
  br label %if.end29, !dbg !2917

invoke.cont27:                                    ; preds = %lpad
  br label %eh.resume, !dbg !2916

if.end29:                                         ; preds = %cleanup.cont, %if.end15
  %30 = load i8*, i8** %__oe.addr, align 8, !dbg !2918
  %31 = load i8*, i8** %__op.addr, align 8, !dbg !2919
  %sub.ptr.lhs.cast30 = ptrtoint i8* %30 to i64, !dbg !2920
  %sub.ptr.rhs.cast31 = ptrtoint i8* %31 to i64, !dbg !2920
  %sub.ptr.sub32 = sub i64 %sub.ptr.lhs.cast30, %sub.ptr.rhs.cast31, !dbg !2920
  store i64 %sub.ptr.sub32, i64* %__np, align 8, !dbg !2921
  %32 = load i64, i64* %__np, align 8, !dbg !2922
  %cmp33 = icmp sgt i64 %32, 0, !dbg !2924
  br i1 %cmp33, label %if.then34, label %if.end41, !dbg !2925

if.then34:                                        ; preds = %if.end29
  %__sbuf_35 = getelementptr inbounds %"class.std::__1::ostreambuf_iterator", %"class.std::__1::ostreambuf_iterator"* %__s, i32 0, i32 0, !dbg !2926
  %33 = load %"class.std::__1::basic_streambuf"*, %"class.std::__1::basic_streambuf"** %__sbuf_35, align 8, !dbg !2926
  %34 = load i8*, i8** %__op.addr, align 8, !dbg !2929
  %35 = load i64, i64* %__np, align 8, !dbg !2930
  %call36 = call i64 @_ZNSt3__115basic_streambufIcNS_11char_traitsIcEEE5sputnB6v15006EPKcl(%"class.std::__1::basic_streambuf"* %33, i8* %34, i64 %35), !dbg !2931
  %36 = load i64, i64* %__np, align 8, !dbg !2932
  %cmp37 = icmp ne i64 %call36, %36, !dbg !2933
  br i1 %cmp37, label %if.then38, label %if.end40, !dbg !2934

if.then38:                                        ; preds = %if.then34
  %__sbuf_39 = getelementptr inbounds %"class.std::__1::ostreambuf_iterator", %"class.std::__1::ostreambuf_iterator"* %__s, i32 0, i32 0, !dbg !2935
  store %"class.std::__1::basic_streambuf"* null, %"class.std::__1::basic_streambuf"** %__sbuf_39, align 8, !dbg !2937
  %37 = bitcast %"class.std::__1::ostreambuf_iterator"* %retval to i8*, !dbg !2938
  %38 = bitcast %"class.std::__1::ostreambuf_iterator"* %__s to i8*, !dbg !2938
  call void @llvm.memcpy.p0i8.p0i8.i64(i8* align 8 %37, i8* align 8 %38, i64 8, i1 false), !dbg !2938
  br label %return, !dbg !2939

if.end40:                                         ; preds = %if.then34
  br label %if.end41, !dbg !2940

if.end41:                                         ; preds = %if.end40, %if.end29
  %39 = load %"class.std::__1::ios_base"*, %"class.std::__1::ios_base"** %__iob.addr, align 8, !dbg !2941
  %call42 = call i64 @_ZNSt3__18ios_base5widthB6v15006El(%"class.std::__1::ios_base"* %39, i64 0), !dbg !2942
  %40 = bitcast %"class.std::__1::ostreambuf_iterator"* %retval to i8*, !dbg !2943
  %41 = bitcast %"class.std::__1::ostreambuf_iterator"* %__s to i8*, !dbg !2943
  call void @llvm.memcpy.p0i8.p0i8.i64(i8* align 8 %40, i8* align 8 %41, i64 8, i1 false), !dbg !2943
  br label %return, !dbg !2944

return:                                           ; preds = %if.end41, %if.then38, %cleanup, %if.then12, %if.then
  %coerce.dive43 = getelementptr inbounds %"class.std::__1::ostreambuf_iterator", %"class.std::__1::ostreambuf_iterator"* %retval, i32 0, i32 0, !dbg !2945
  %42 = load %"class.std::__1::basic_streambuf"*, %"class.std::__1::basic_streambuf"** %coerce.dive43, align 8, !dbg !2945
  %coerce.val.pi = ptrtoint %"class.std::__1::basic_streambuf"* %42 to i64, !dbg !2945
  ret i64 %coerce.val.pi, !dbg !2945

eh.resume:                                        ; preds = %invoke.cont27
  %exn = load i8*, i8** %exn.slot, align 8, !dbg !2916
  %sel = load i32, i32* %ehselector.slot, align 4, !dbg !2916
  %lpad.val = insertvalue { i8*, i32 } undef, i8* %exn, 0, !dbg !2916
  %lpad.val44 = insertvalue { i8*, i32 } %lpad.val, i32 %sel, 1, !dbg !2916
  resume { i8*, i32 } %lpad.val44, !dbg !2916

terminate.lpad:                                   ; preds = %lpad
  %43 = landingpad { i8*, i32 }
          catch i8* null, !dbg !2916
  %44 = extractvalue { i8*, i32 } %43, 0, !dbg !2916
  call void @__clang_call_terminate(i8* %44) #9, !dbg !2916
  unreachable, !dbg !2916

unreachable:                                      ; preds = %cleanup
  unreachable
}

; Function Attrs: noinline nounwind optnone ssp uwtable
define linkonce_odr hidden %"class.std::__1::ostreambuf_iterator"* @_ZNSt3__119ostreambuf_iteratorIcNS_11char_traitsIcEEEC1B6v15006ERNS_13basic_ostreamIcS2_EE(%"class.std::__1::ostreambuf_iterator"* returned %this, %"class.std::__1::basic_ostream"* nonnull align 8 dereferenceable(8) %__s) unnamed_addr #3 align 2 !dbg !2946 {
entry:
  %this.addr = alloca %"class.std::__1::ostreambuf_iterator"*, align 8
  %__s.addr = alloca %"class.std::__1::basic_ostream"*, align 8
  store %"class.std::__1::ostreambuf_iterator"* %this, %"class.std::__1::ostreambuf_iterator"** %this.addr, align 8
  call void @llvm.dbg.declare(metadata %"class.std::__1::ostreambuf_iterator"** %this.addr, metadata !2947, metadata !DIExpression()), !dbg !2949
  store %"class.std::__1::basic_ostream"* %__s, %"class.std::__1::basic_ostream"** %__s.addr, align 8
  call void @llvm.dbg.declare(metadata %"class.std::__1::basic_ostream"** %__s.addr, metadata !2950, metadata !DIExpression()), !dbg !2951
  %this1 = load %"class.std::__1::ostreambuf_iterator"*, %"class.std::__1::ostreambuf_iterator"** %this.addr, align 8
  %0 = load %"class.std::__1::basic_ostream"*, %"class.std::__1::basic_ostream"** %__s.addr, align 8, !dbg !2952
  %call = call %"class.std::__1::ostreambuf_iterator"* @_ZNSt3__119ostreambuf_iteratorIcNS_11char_traitsIcEEEC2B6v15006ERNS_13basic_ostreamIcS2_EE(%"class.std::__1::ostreambuf_iterator"* %this1, %"class.std::__1::basic_ostream"* nonnull align 8 dereferenceable(8) %0) #8, !dbg !2952
  ret %"class.std::__1::ostreambuf_iterator"* %this1, !dbg !2953
}

; Function Attrs: noinline nounwind optnone ssp uwtable
define linkonce_odr hidden i32 @_ZNKSt3__18ios_base5flagsB6v15006Ev(%"class.std::__1::ios_base"* %this) #3 align 2 !dbg !2954 {
entry:
  %this.addr = alloca %"class.std::__1::ios_base"*, align 8
  store %"class.std::__1::ios_base"* %this, %"class.std::__1::ios_base"** %this.addr, align 8
  call void @llvm.dbg.declare(metadata %"class.std::__1::ios_base"** %this.addr, metadata !2955, metadata !DIExpression()), !dbg !2957
  %this1 = load %"class.std::__1::ios_base"*, %"class.std::__1::ios_base"** %this.addr, align 8
  %__fmtflags_ = getelementptr inbounds %"class.std::__1::ios_base", %"class.std::__1::ios_base"* %this1, i32 0, i32 1, !dbg !2958
  %0 = load i32, i32* %__fmtflags_, align 8, !dbg !2958
  ret i32 %0, !dbg !2959
}

; Function Attrs: noinline optnone ssp uwtable
define linkonce_odr hidden signext i8 @_ZNKSt3__19basic_iosIcNS_11char_traitsIcEEE4fillB6v15006Ev(%"class.std::__1::basic_ios"* %this) #1 align 2 !dbg !2960 {
entry:
  %this.addr = alloca %"class.std::__1::basic_ios"*, align 8
  store %"class.std::__1::basic_ios"* %this, %"class.std::__1::basic_ios"** %this.addr, align 8
  call void @llvm.dbg.declare(metadata %"class.std::__1::basic_ios"** %this.addr, metadata !2961, metadata !DIExpression()), !dbg !2963
  %this1 = load %"class.std::__1::basic_ios"*, %"class.std::__1::basic_ios"** %this.addr, align 8
  %call = call i32 @_ZNSt3__111char_traitsIcE3eofEv() #8, !dbg !2964
  %__fill_ = getelementptr inbounds %"class.std::__1::basic_ios", %"class.std::__1::basic_ios"* %this1, i32 0, i32 2, !dbg !2966
  %0 = load i32, i32* %__fill_, align 8, !dbg !2966
  %call2 = call zeroext i1 @_ZNSt3__111char_traitsIcE11eq_int_typeEii(i32 %call, i32 %0) #8, !dbg !2967
  br i1 %call2, label %if.then, label %if.end, !dbg !2968

if.then:                                          ; preds = %entry
  %call3 = call signext i8 @_ZNKSt3__19basic_iosIcNS_11char_traitsIcEEE5widenB6v15006Ec(%"class.std::__1::basic_ios"* %this1, i8 signext 32), !dbg !2969
  %conv = sext i8 %call3 to i32, !dbg !2969
  %__fill_4 = getelementptr inbounds %"class.std::__1::basic_ios", %"class.std::__1::basic_ios"* %this1, i32 0, i32 2, !dbg !2970
  store i32 %conv, i32* %__fill_4, align 8, !dbg !2971
  br label %if.end, !dbg !2970

if.end:                                           ; preds = %if.then, %entry
  %__fill_5 = getelementptr inbounds %"class.std::__1::basic_ios", %"class.std::__1::basic_ios"* %this1, i32 0, i32 2, !dbg !2972
  %1 = load i32, i32* %__fill_5, align 8, !dbg !2972
  %conv6 = trunc i32 %1 to i8, !dbg !2972
  ret i8 %conv6, !dbg !2973
}

; Function Attrs: noinline nounwind optnone ssp uwtable
define linkonce_odr hidden zeroext i1 @_ZNKSt3__119ostreambuf_iteratorIcNS_11char_traitsIcEEE6failedB6v15006Ev(%"class.std::__1::ostreambuf_iterator"* %this) #3 align 2 !dbg !2974 {
entry:
  %this.addr = alloca %"class.std::__1::ostreambuf_iterator"*, align 8
  store %"class.std::__1::ostreambuf_iterator"* %this, %"class.std::__1::ostreambuf_iterator"** %this.addr, align 8
  call void @llvm.dbg.declare(metadata %"class.std::__1::ostreambuf_iterator"** %this.addr, metadata !2975, metadata !DIExpression()), !dbg !2977
  %this1 = load %"class.std::__1::ostreambuf_iterator"*, %"class.std::__1::ostreambuf_iterator"** %this.addr, align 8
  %__sbuf_ = getelementptr inbounds %"class.std::__1::ostreambuf_iterator", %"class.std::__1::ostreambuf_iterator"* %this1, i32 0, i32 0, !dbg !2978
  %0 = load %"class.std::__1::basic_streambuf"*, %"class.std::__1::basic_streambuf"** %__sbuf_, align 8, !dbg !2978
  %cmp = icmp eq %"class.std::__1::basic_streambuf"* %0, null, !dbg !2979
  ret i1 %cmp, !dbg !2980
}

; Function Attrs: noinline optnone ssp uwtable
define linkonce_odr hidden void @_ZNSt3__19basic_iosIcNS_11char_traitsIcEEE8setstateB6v15006Ej(%"class.std::__1::basic_ios"* %this, i32 %__state) #1 align 2 !dbg !2981 {
entry:
  %this.addr = alloca %"class.std::__1::basic_ios"*, align 8
  %__state.addr = alloca i32, align 4
  store %"class.std::__1::basic_ios"* %this, %"class.std::__1::basic_ios"** %this.addr, align 8
  call void @llvm.dbg.declare(metadata %"class.std::__1::basic_ios"** %this.addr, metadata !2982, metadata !DIExpression()), !dbg !2984
  store i32 %__state, i32* %__state.addr, align 4
  call void @llvm.dbg.declare(metadata i32* %__state.addr, metadata !2985, metadata !DIExpression()), !dbg !2986
  %this1 = load %"class.std::__1::basic_ios"*, %"class.std::__1::basic_ios"** %this.addr, align 8
  %0 = bitcast %"class.std::__1::basic_ios"* %this1 to %"class.std::__1::ios_base"*, !dbg !2987
  %1 = load i32, i32* %__state.addr, align 4, !dbg !2988
  call void @_ZNSt3__18ios_base8setstateB6v15006Ej(%"class.std::__1::ios_base"* %0, i32 %1), !dbg !2987
  ret void, !dbg !2989
}

declare %"class.std::__1::basic_ostream<char>::sentry"* @_ZNSt3__113basic_ostreamIcNS_11char_traitsIcEEE6sentryD1Ev(%"class.std::__1::basic_ostream<char>::sentry"* returned) unnamed_addr #4

; Function Attrs: noinline noreturn nounwind
define linkonce_odr hidden void @__clang_call_terminate(i8* %0) #5 {
  %2 = call i8* @__cxa_begin_catch(i8* %0) #8
  call void @_ZSt9terminatev() #9
  unreachable
}

declare i8* @__cxa_begin_catch(i8*)

declare void @_ZSt9terminatev()

declare void @_ZNSt3__18ios_base33__set_badbit_and_consider_rethrowEv(%"class.std::__1::ios_base"*) #4

declare void @__cxa_end_catch()

; Function Attrs: argmemonly nofree nounwind willreturn
declare void @llvm.memcpy.p0i8.p0i8.i64(i8* noalias nocapture writeonly, i8* noalias nocapture readonly, i64, i1 immarg) #6

; Function Attrs: noinline nounwind optnone ssp uwtable
define linkonce_odr hidden i64 @_ZNKSt3__18ios_base5widthB6v15006Ev(%"class.std::__1::ios_base"* %this) #3 align 2 !dbg !2990 {
entry:
  %this.addr = alloca %"class.std::__1::ios_base"*, align 8
  store %"class.std::__1::ios_base"* %this, %"class.std::__1::ios_base"** %this.addr, align 8
  call void @llvm.dbg.declare(metadata %"class.std::__1::ios_base"** %this.addr, metadata !2991, metadata !DIExpression()), !dbg !2992
  %this1 = load %"class.std::__1::ios_base"*, %"class.std::__1::ios_base"** %this.addr, align 8
  %__width_ = getelementptr inbounds %"class.std::__1::ios_base", %"class.std::__1::ios_base"* %this1, i32 0, i32 3, !dbg !2993
  %0 = load i64, i64* %__width_, align 8, !dbg !2993
  ret i64 %0, !dbg !2994
}

; Function Attrs: noinline optnone ssp uwtable
define linkonce_odr hidden i64 @_ZNSt3__115basic_streambufIcNS_11char_traitsIcEEE5sputnB6v15006EPKcl(%"class.std::__1::basic_streambuf"* %this, i8* %__s, i64 %__n) #1 align 2 !dbg !2995 {
entry:
  %this.addr = alloca %"class.std::__1::basic_streambuf"*, align 8
  %__s.addr = alloca i8*, align 8
  %__n.addr = alloca i64, align 8
  store %"class.std::__1::basic_streambuf"* %this, %"class.std::__1::basic_streambuf"** %this.addr, align 8
  call void @llvm.dbg.declare(metadata %"class.std::__1::basic_streambuf"** %this.addr, metadata !2996, metadata !DIExpression()), !dbg !2997
  store i8* %__s, i8** %__s.addr, align 8
  call void @llvm.dbg.declare(metadata i8** %__s.addr, metadata !2998, metadata !DIExpression()), !dbg !2999
  store i64 %__n, i64* %__n.addr, align 8
  call void @llvm.dbg.declare(metadata i64* %__n.addr, metadata !3000, metadata !DIExpression()), !dbg !3001
  %this1 = load %"class.std::__1::basic_streambuf"*, %"class.std::__1::basic_streambuf"** %this.addr, align 8
  %0 = load i8*, i8** %__s.addr, align 8, !dbg !3002
  %1 = load i64, i64* %__n.addr, align 8, !dbg !3003
  %2 = bitcast %"class.std::__1::basic_streambuf"* %this1 to i64 (%"class.std::__1::basic_streambuf"*, i8*, i64)***, !dbg !3004
  %vtable = load i64 (%"class.std::__1::basic_streambuf"*, i8*, i64)**, i64 (%"class.std::__1::basic_streambuf"*, i8*, i64)*** %2, align 8, !dbg !3004
  %vfn = getelementptr inbounds i64 (%"class.std::__1::basic_streambuf"*, i8*, i64)*, i64 (%"class.std::__1::basic_streambuf"*, i8*, i64)** %vtable, i64 12, !dbg !3004
  %3 = load i64 (%"class.std::__1::basic_streambuf"*, i8*, i64)*, i64 (%"class.std::__1::basic_streambuf"*, i8*, i64)** %vfn, align 8, !dbg !3004
  %call = call i64 %3(%"class.std::__1::basic_streambuf"* %this1, i8* %0, i64 %1), !dbg !3004
  ret i64 %call, !dbg !3005
}

; Function Attrs: noinline optnone ssp uwtable
define linkonce_odr hidden %"class.std::__1::basic_string"* @_ZNSt3__112basic_stringIcNS_11char_traitsIcEENS_9allocatorIcEEEC1B6v15006Emc(%"class.std::__1::basic_string"* returned %this, i64 %__n, i8 signext %__c) unnamed_addr #1 align 2 !dbg !3006 {
entry:
  %this.addr = alloca %"class.std::__1::basic_string"*, align 8
  %__n.addr = alloca i64, align 8
  %__c.addr = alloca i8, align 1
  store %"class.std::__1::basic_string"* %this, %"class.std::__1::basic_string"** %this.addr, align 8
  call void @llvm.dbg.declare(metadata %"class.std::__1::basic_string"** %this.addr, metadata !3007, metadata !DIExpression()), !dbg !3009
  store i64 %__n, i64* %__n.addr, align 8
  call void @llvm.dbg.declare(metadata i64* %__n.addr, metadata !3010, metadata !DIExpression()), !dbg !3011
  store i8 %__c, i8* %__c.addr, align 1
  call void @llvm.dbg.declare(metadata i8* %__c.addr, metadata !3012, metadata !DIExpression()), !dbg !3013
  %this1 = load %"class.std::__1::basic_string"*, %"class.std::__1::basic_string"** %this.addr, align 8
  %0 = load i64, i64* %__n.addr, align 8, !dbg !3014
  %1 = load i8, i8* %__c.addr, align 1, !dbg !3014
  %call = call %"class.std::__1::basic_string"* @_ZNSt3__112basic_stringIcNS_11char_traitsIcEENS_9allocatorIcEEEC2B6v15006Emc(%"class.std::__1::basic_string"* %this1, i64 %0, i8 signext %1), !dbg !3014
  ret %"class.std::__1::basic_string"* %this1, !dbg !3015
}

; Function Attrs: noinline nounwind optnone ssp uwtable
define linkonce_odr hidden i8* @_ZNKSt3__112basic_stringIcNS_11char_traitsIcEENS_9allocatorIcEEE4dataB6v15006Ev(%"class.std::__1::basic_string"* %this) #3 align 2 !dbg !3016 {
entry:
  %this.addr = alloca %"class.std::__1::basic_string"*, align 8
  store %"class.std::__1::basic_string"* %this, %"class.std::__1::basic_string"** %this.addr, align 8
  call void @llvm.dbg.declare(metadata %"class.std::__1::basic_string"** %this.addr, metadata !3017, metadata !DIExpression()), !dbg !3019
  %this1 = load %"class.std::__1::basic_string"*, %"class.std::__1::basic_string"** %this.addr, align 8
  %call = call i8* @_ZNKSt3__112basic_stringIcNS_11char_traitsIcEENS_9allocatorIcEEE13__get_pointerB6v15006Ev(%"class.std::__1::basic_string"* %this1) #8, !dbg !3020
  %call2 = call i8* @_ZNSt3__112__to_addressB6v15006IKcEEPT_S3_(i8* %call) #8, !dbg !3021
  ret i8* %call2, !dbg !3022
}

declare %"class.std::__1::basic_string"* @_ZNSt3__112basic_stringIcNS_11char_traitsIcEENS_9allocatorIcEEED1Ev(%"class.std::__1::basic_string"* returned) unnamed_addr #4

; Function Attrs: noinline nounwind optnone ssp uwtable
define linkonce_odr hidden i64 @_ZNSt3__18ios_base5widthB6v15006El(%"class.std::__1::ios_base"* %this, i64 %__wide) #3 align 2 !dbg !3023 {
entry:
  %this.addr = alloca %"class.std::__1::ios_base"*, align 8
  %__wide.addr = alloca i64, align 8
  %__r = alloca i64, align 8
  store %"class.std::__1::ios_base"* %this, %"class.std::__1::ios_base"** %this.addr, align 8
  call void @llvm.dbg.declare(metadata %"class.std::__1::ios_base"** %this.addr, metadata !3024, metadata !DIExpression()), !dbg !3026
  store i64 %__wide, i64* %__wide.addr, align 8
  call void @llvm.dbg.declare(metadata i64* %__wide.addr, metadata !3027, metadata !DIExpression()), !dbg !3028
  %this1 = load %"class.std::__1::ios_base"*, %"class.std::__1::ios_base"** %this.addr, align 8
  call void @llvm.dbg.declare(metadata i64* %__r, metadata !3029, metadata !DIExpression()), !dbg !3030
  %__width_ = getelementptr inbounds %"class.std::__1::ios_base", %"class.std::__1::ios_base"* %this1, i32 0, i32 3, !dbg !3031
  %0 = load i64, i64* %__width_, align 8, !dbg !3031
  store i64 %0, i64* %__r, align 8, !dbg !3030
  %1 = load i64, i64* %__wide.addr, align 8, !dbg !3032
  %__width_2 = getelementptr inbounds %"class.std::__1::ios_base", %"class.std::__1::ios_base"* %this1, i32 0, i32 3, !dbg !3033
  store i64 %1, i64* %__width_2, align 8, !dbg !3034
  %2 = load i64, i64* %__r, align 8, !dbg !3035
  ret i64 %2, !dbg !3036
}

; Function Attrs: noinline optnone ssp uwtable
define linkonce_odr hidden %"class.std::__1::basic_string"* @_ZNSt3__112basic_stringIcNS_11char_traitsIcEENS_9allocatorIcEEEC2B6v15006Emc(%"class.std::__1::basic_string"* returned %this, i64 %__n, i8 signext %__c) unnamed_addr #1 align 2 !dbg !3037 {
entry:
  %this.addr = alloca %"class.std::__1::basic_string"*, align 8
  %__n.addr = alloca i64, align 8
  %__c.addr = alloca i8, align 1
  %ref.tmp = alloca %"struct.std::__1::__default_init_tag", align 1
  %ref.tmp2 = alloca %"struct.std::__1::__default_init_tag", align 1
  store %"class.std::__1::basic_string"* %this, %"class.std::__1::basic_string"** %this.addr, align 8
  call void @llvm.dbg.declare(metadata %"class.std::__1::basic_string"** %this.addr, metadata !3038, metadata !DIExpression()), !dbg !3039
  store i64 %__n, i64* %__n.addr, align 8
  call void @llvm.dbg.declare(metadata i64* %__n.addr, metadata !3040, metadata !DIExpression()), !dbg !3041
  store i8 %__c, i8* %__c.addr, align 1
  call void @llvm.dbg.declare(metadata i8* %__c.addr, metadata !3042, metadata !DIExpression()), !dbg !3043
  %this1 = load %"class.std::__1::basic_string"*, %"class.std::__1::basic_string"** %this.addr, align 8
  %__r_ = getelementptr inbounds %"class.std::__1::basic_string", %"class.std::__1::basic_string"* %this1, i32 0, i32 0, !dbg !3044
  %call = call %"class.std::__1::__compressed_pair"* @_ZNSt3__117__compressed_pairINS_12basic_stringIcNS_11char_traitsIcEENS_9allocatorIcEEE5__repES5_EC1B6v15006INS_18__default_init_tagESA_EEOT_OT0_(%"class.std::__1::__compressed_pair"* %__r_, %"struct.std::__1::__default_init_tag"* nonnull align 1 dereferenceable(1) %ref.tmp, %"struct.std::__1::__default_init_tag"* nonnull align 1 dereferenceable(1) %ref.tmp2), !dbg !3044
  %0 = load i64, i64* %__n.addr, align 8, !dbg !3045
  %1 = load i8, i8* %__c.addr, align 1, !dbg !3047
  call void @_ZNSt3__112basic_stringIcNS_11char_traitsIcEENS_9allocatorIcEEE6__initEmc(%"class.std::__1::basic_string"* %this1, i64 %0, i8 signext %1), !dbg !3048
  call void @_ZNSt3__119__debug_db_insert_cB6v15006INS_12basic_stringIcNS_11char_traitsIcEENS_9allocatorIcEEEEEEvPT_(%"class.std::__1::basic_string"* %this1), !dbg !3049
  ret %"class.std::__1::basic_string"* %this1, !dbg !3050
}

; Function Attrs: noinline optnone ssp uwtable
define linkonce_odr %"class.std::__1::__compressed_pair"* @_ZNSt3__117__compressed_pairINS_12basic_stringIcNS_11char_traitsIcEENS_9allocatorIcEEE5__repES5_EC1B6v15006INS_18__default_init_tagESA_EEOT_OT0_(%"class.std::__1::__compressed_pair"* returned %this, %"struct.std::__1::__default_init_tag"* nonnull align 1 dereferenceable(1) %__t1, %"struct.std::__1::__default_init_tag"* nonnull align 1 dereferenceable(1) %__t2) unnamed_addr #1 align 2 !dbg !3051 {
entry:
  %this.addr = alloca %"class.std::__1::__compressed_pair"*, align 8
  %__t1.addr = alloca %"struct.std::__1::__default_init_tag"*, align 8
  %__t2.addr = alloca %"struct.std::__1::__default_init_tag"*, align 8
  store %"class.std::__1::__compressed_pair"* %this, %"class.std::__1::__compressed_pair"** %this.addr, align 8
  call void @llvm.dbg.declare(metadata %"class.std::__1::__compressed_pair"** %this.addr, metadata !3059, metadata !DIExpression()), !dbg !3060
  store %"struct.std::__1::__default_init_tag"* %__t1, %"struct.std::__1::__default_init_tag"** %__t1.addr, align 8
  call void @llvm.dbg.declare(metadata %"struct.std::__1::__default_init_tag"** %__t1.addr, metadata !3061, metadata !DIExpression()), !dbg !3062
  store %"struct.std::__1::__default_init_tag"* %__t2, %"struct.std::__1::__default_init_tag"** %__t2.addr, align 8
  call void @llvm.dbg.declare(metadata %"struct.std::__1::__default_init_tag"** %__t2.addr, metadata !3063, metadata !DIExpression()), !dbg !3064
  %this1 = load %"class.std::__1::__compressed_pair"*, %"class.std::__1::__compressed_pair"** %this.addr, align 8
  %0 = load %"struct.std::__1::__default_init_tag"*, %"struct.std::__1::__default_init_tag"** %__t1.addr, align 8, !dbg !3065
  %1 = load %"struct.std::__1::__default_init_tag"*, %"struct.std::__1::__default_init_tag"** %__t2.addr, align 8, !dbg !3065
  %call = call %"class.std::__1::__compressed_pair"* @_ZNSt3__117__compressed_pairINS_12basic_stringIcNS_11char_traitsIcEENS_9allocatorIcEEE5__repES5_EC2B6v15006INS_18__default_init_tagESA_EEOT_OT0_(%"class.std::__1::__compressed_pair"* %this1, %"struct.std::__1::__default_init_tag"* nonnull align 1 dereferenceable(1) %0, %"struct.std::__1::__default_init_tag"* nonnull align 1 dereferenceable(1) %1), !dbg !3065
  ret %"class.std::__1::__compressed_pair"* %this1, !dbg !3066
}

declare void @_ZNSt3__112basic_stringIcNS_11char_traitsIcEENS_9allocatorIcEEE6__initEmc(%"class.std::__1::basic_string"*, i64, i8 signext) #4

; Function Attrs: noinline nounwind optnone ssp uwtable
define linkonce_odr hidden void @_ZNSt3__119__debug_db_insert_cB6v15006INS_12basic_stringIcNS_11char_traitsIcEENS_9allocatorIcEEEEEEvPT_(%"class.std::__1::basic_string"* %__c) #3 !dbg !3067 {
entry:
  %__c.addr = alloca %"class.std::__1::basic_string"*, align 8
  store %"class.std::__1::basic_string"* %__c, %"class.std::__1::basic_string"** %__c.addr, align 8
  call void @llvm.dbg.declare(metadata %"class.std::__1::basic_string"** %__c.addr, metadata !3073, metadata !DIExpression()), !dbg !3074
  ret void, !dbg !3075
}

; Function Attrs: noinline optnone ssp uwtable
define linkonce_odr %"class.std::__1::__compressed_pair"* @_ZNSt3__117__compressed_pairINS_12basic_stringIcNS_11char_traitsIcEENS_9allocatorIcEEE5__repES5_EC2B6v15006INS_18__default_init_tagESA_EEOT_OT0_(%"class.std::__1::__compressed_pair"* returned %this, %"struct.std::__1::__default_init_tag"* nonnull align 1 dereferenceable(1) %__t1, %"struct.std::__1::__default_init_tag"* nonnull align 1 dereferenceable(1) %__t2) unnamed_addr #1 align 2 !dbg !3076 {
entry:
  %this.addr = alloca %"class.std::__1::__compressed_pair"*, align 8
  %__t1.addr = alloca %"struct.std::__1::__default_init_tag"*, align 8
  %__t2.addr = alloca %"struct.std::__1::__default_init_tag"*, align 8
  %agg.tmp = alloca %"struct.std::__1::__default_init_tag", align 1
  %agg.tmp3 = alloca %"struct.std::__1::__default_init_tag", align 1
  store %"class.std::__1::__compressed_pair"* %this, %"class.std::__1::__compressed_pair"** %this.addr, align 8
  call void @llvm.dbg.declare(metadata %"class.std::__1::__compressed_pair"** %this.addr, metadata !3077, metadata !DIExpression()), !dbg !3078
  store %"struct.std::__1::__default_init_tag"* %__t1, %"struct.std::__1::__default_init_tag"** %__t1.addr, align 8
  call void @llvm.dbg.declare(metadata %"struct.std::__1::__default_init_tag"** %__t1.addr, metadata !3079, metadata !DIExpression()), !dbg !3080
  store %"struct.std::__1::__default_init_tag"* %__t2, %"struct.std::__1::__default_init_tag"** %__t2.addr, align 8
  call void @llvm.dbg.declare(metadata %"struct.std::__1::__default_init_tag"** %__t2.addr, metadata !3081, metadata !DIExpression()), !dbg !3082
  %this1 = load %"class.std::__1::__compressed_pair"*, %"class.std::__1::__compressed_pair"** %this.addr, align 8
  %0 = bitcast %"class.std::__1::__compressed_pair"* %this1 to %"struct.std::__1::__compressed_pair_elem"*, !dbg !3083
  %1 = load %"struct.std::__1::__default_init_tag"*, %"struct.std::__1::__default_init_tag"** %__t1.addr, align 8, !dbg !3084
  %call = call nonnull align 1 dereferenceable(1) %"struct.std::__1::__default_init_tag"* @_ZNSt3__17forwardB6v15006INS_18__default_init_tagEEEOT_RNS_16remove_referenceIS2_E4typeE(%"struct.std::__1::__default_init_tag"* nonnull align 1 dereferenceable(1) %1) #8, !dbg !3085
  %call2 = call %"struct.std::__1::__compressed_pair_elem"* @_ZNSt3__122__compressed_pair_elemINS_12basic_stringIcNS_11char_traitsIcEENS_9allocatorIcEEE5__repELi0ELb0EEC2B6v15006ENS_18__default_init_tagE(%"struct.std::__1::__compressed_pair_elem"* %0), !dbg !3086
  %2 = bitcast %"class.std::__1::__compressed_pair"* %this1 to %"struct.std::__1::__compressed_pair_elem.0"*, !dbg !3083
  %3 = load %"struct.std::__1::__default_init_tag"*, %"struct.std::__1::__default_init_tag"** %__t2.addr, align 8, !dbg !3087
  %call4 = call nonnull align 1 dereferenceable(1) %"struct.std::__1::__default_init_tag"* @_ZNSt3__17forwardB6v15006INS_18__default_init_tagEEEOT_RNS_16remove_referenceIS2_E4typeE(%"struct.std::__1::__default_init_tag"* nonnull align 1 dereferenceable(1) %3) #8, !dbg !3088
  %call5 = call %"struct.std::__1::__compressed_pair_elem.0"* @_ZNSt3__122__compressed_pair_elemINS_9allocatorIcEELi1ELb1EEC2B6v15006ENS_18__default_init_tagE(%"struct.std::__1::__compressed_pair_elem.0"* %2), !dbg !3089
  ret %"class.std::__1::__compressed_pair"* %this1, !dbg !3090
}

; Function Attrs: noinline nounwind optnone ssp uwtable
define linkonce_odr hidden nonnull align 1 dereferenceable(1) %"struct.std::__1::__default_init_tag"* @_ZNSt3__17forwardB6v15006INS_18__default_init_tagEEEOT_RNS_16remove_referenceIS2_E4typeE(%"struct.std::__1::__default_init_tag"* nonnull align 1 dereferenceable(1) %__t) #3 !dbg !3091 {
entry:
  %__t.addr = alloca %"struct.std::__1::__default_init_tag"*, align 8
  store %"struct.std::__1::__default_init_tag"* %__t, %"struct.std::__1::__default_init_tag"** %__t.addr, align 8
  call void @llvm.dbg.declare(metadata %"struct.std::__1::__default_init_tag"** %__t.addr, metadata !3098, metadata !DIExpression()), !dbg !3099
  %0 = load %"struct.std::__1::__default_init_tag"*, %"struct.std::__1::__default_init_tag"** %__t.addr, align 8, !dbg !3100
  ret %"struct.std::__1::__default_init_tag"* %0, !dbg !3101
}

; Function Attrs: noinline nounwind optnone ssp uwtable
define linkonce_odr hidden %"struct.std::__1::__compressed_pair_elem"* @_ZNSt3__122__compressed_pair_elemINS_12basic_stringIcNS_11char_traitsIcEENS_9allocatorIcEEE5__repELi0ELb0EEC2B6v15006ENS_18__default_init_tagE(%"struct.std::__1::__compressed_pair_elem"* returned %this) unnamed_addr #3 align 2 !dbg !3102 {
entry:
  %0 = alloca %"struct.std::__1::__default_init_tag", align 1
  %this.addr = alloca %"struct.std::__1::__compressed_pair_elem"*, align 8
  store %"struct.std::__1::__compressed_pair_elem"* %this, %"struct.std::__1::__compressed_pair_elem"** %this.addr, align 8
  call void @llvm.dbg.declare(metadata %"struct.std::__1::__compressed_pair_elem"** %this.addr, metadata !3103, metadata !DIExpression()), !dbg !3104
  call void @llvm.dbg.declare(metadata %"struct.std::__1::__default_init_tag"* %0, metadata !3105, metadata !DIExpression()), !dbg !3106
  %this1 = load %"struct.std::__1::__compressed_pair_elem"*, %"struct.std::__1::__compressed_pair_elem"** %this.addr, align 8
  %__value_ = getelementptr inbounds %"struct.std::__1::__compressed_pair_elem", %"struct.std::__1::__compressed_pair_elem"* %this1, i32 0, i32 0, !dbg !3107
  ret %"struct.std::__1::__compressed_pair_elem"* %this1, !dbg !3108
}

; Function Attrs: noinline nounwind optnone ssp uwtable
define linkonce_odr hidden %"struct.std::__1::__compressed_pair_elem.0"* @_ZNSt3__122__compressed_pair_elemINS_9allocatorIcEELi1ELb1EEC2B6v15006ENS_18__default_init_tagE(%"struct.std::__1::__compressed_pair_elem.0"* returned %this) unnamed_addr #3 align 2 !dbg !3109 {
entry:
  %0 = alloca %"struct.std::__1::__default_init_tag", align 1
  %this.addr = alloca %"struct.std::__1::__compressed_pair_elem.0"*, align 8
  store %"struct.std::__1::__compressed_pair_elem.0"* %this, %"struct.std::__1::__compressed_pair_elem.0"** %this.addr, align 8
  call void @llvm.dbg.declare(metadata %"struct.std::__1::__compressed_pair_elem.0"** %this.addr, metadata !3110, metadata !DIExpression()), !dbg !3111
  call void @llvm.dbg.declare(metadata %"struct.std::__1::__default_init_tag"* %0, metadata !3112, metadata !DIExpression()), !dbg !3113
  %this1 = load %"struct.std::__1::__compressed_pair_elem.0"*, %"struct.std::__1::__compressed_pair_elem.0"** %this.addr, align 8
  %1 = bitcast %"struct.std::__1::__compressed_pair_elem.0"* %this1 to %"class.std::__1::allocator"*, !dbg !3114
  %call = call %"class.std::__1::allocator"* @_ZNSt3__19allocatorIcEC2B6v15006Ev(%"class.std::__1::allocator"* %1) #8, !dbg !3115
  ret %"struct.std::__1::__compressed_pair_elem.0"* %this1, !dbg !3116
}

; Function Attrs: noinline nounwind optnone ssp uwtable
define linkonce_odr hidden %"class.std::__1::allocator"* @_ZNSt3__19allocatorIcEC2B6v15006Ev(%"class.std::__1::allocator"* returned %this) unnamed_addr #3 align 2 !dbg !3117 {
entry:
  %this.addr = alloca %"class.std::__1::allocator"*, align 8
  store %"class.std::__1::allocator"* %this, %"class.std::__1::allocator"** %this.addr, align 8
  call void @llvm.dbg.declare(metadata %"class.std::__1::allocator"** %this.addr, metadata !3118, metadata !DIExpression()), !dbg !3120
  %this1 = load %"class.std::__1::allocator"*, %"class.std::__1::allocator"** %this.addr, align 8
  %0 = bitcast %"class.std::__1::allocator"* %this1 to %"struct.std::__1::__non_trivial_if"*, !dbg !3121
  %call = call %"struct.std::__1::__non_trivial_if"* @_ZNSt3__116__non_trivial_ifILb1ENS_9allocatorIcEEEC2B6v15006Ev(%"struct.std::__1::__non_trivial_if"* %0) #8, !dbg !3122
  ret %"class.std::__1::allocator"* %this1, !dbg !3121
}

; Function Attrs: noinline nounwind optnone ssp uwtable
define linkonce_odr hidden %"struct.std::__1::__non_trivial_if"* @_ZNSt3__116__non_trivial_ifILb1ENS_9allocatorIcEEEC2B6v15006Ev(%"struct.std::__1::__non_trivial_if"* returned %this) unnamed_addr #3 align 2 !dbg !3123 {
entry:
  %this.addr = alloca %"struct.std::__1::__non_trivial_if"*, align 8
  store %"struct.std::__1::__non_trivial_if"* %this, %"struct.std::__1::__non_trivial_if"** %this.addr, align 8
  call void @llvm.dbg.declare(metadata %"struct.std::__1::__non_trivial_if"** %this.addr, metadata !3124, metadata !DIExpression()), !dbg !3126
  %this1 = load %"struct.std::__1::__non_trivial_if"*, %"struct.std::__1::__non_trivial_if"** %this.addr, align 8
  ret %"struct.std::__1::__non_trivial_if"* %this1, !dbg !3127
}

; Function Attrs: noinline nounwind optnone ssp uwtable
define linkonce_odr hidden i8* @_ZNSt3__112__to_addressB6v15006IKcEEPT_S3_(i8* %__p) #3 !dbg !3128 {
entry:
  %__p.addr = alloca i8*, align 8
  store i8* %__p, i8** %__p.addr, align 8
  call void @llvm.dbg.declare(metadata i8** %__p.addr, metadata !3134, metadata !DIExpression()), !dbg !3135
  %0 = load i8*, i8** %__p.addr, align 8, !dbg !3136
  ret i8* %0, !dbg !3137
}

; Function Attrs: noinline nounwind optnone ssp uwtable
define linkonce_odr hidden i8* @_ZNKSt3__112basic_stringIcNS_11char_traitsIcEENS_9allocatorIcEEE13__get_pointerB6v15006Ev(%"class.std::__1::basic_string"* %this) #3 align 2 !dbg !3138 {
entry:
  %this.addr = alloca %"class.std::__1::basic_string"*, align 8
  store %"class.std::__1::basic_string"* %this, %"class.std::__1::basic_string"** %this.addr, align 8
  call void @llvm.dbg.declare(metadata %"class.std::__1::basic_string"** %this.addr, metadata !3139, metadata !DIExpression()), !dbg !3140
  %this1 = load %"class.std::__1::basic_string"*, %"class.std::__1::basic_string"** %this.addr, align 8
  %call = call zeroext i1 @_ZNKSt3__112basic_stringIcNS_11char_traitsIcEENS_9allocatorIcEEE9__is_longB6v15006Ev(%"class.std::__1::basic_string"* %this1) #8, !dbg !3141
  br i1 %call, label %cond.true, label %cond.false, !dbg !3141

cond.true:                                        ; preds = %entry
  %call2 = call i8* @_ZNKSt3__112basic_stringIcNS_11char_traitsIcEENS_9allocatorIcEEE18__get_long_pointerB6v15006Ev(%"class.std::__1::basic_string"* %this1) #8, !dbg !3142
  br label %cond.end, !dbg !3141

cond.false:                                       ; preds = %entry
  %call3 = call i8* @_ZNKSt3__112basic_stringIcNS_11char_traitsIcEENS_9allocatorIcEEE19__get_short_pointerB6v15006Ev(%"class.std::__1::basic_string"* %this1) #8, !dbg !3143
  br label %cond.end, !dbg !3141

cond.end:                                         ; preds = %cond.false, %cond.true
  %cond = phi i8* [ %call2, %cond.true ], [ %call3, %cond.false ], !dbg !3141
  ret i8* %cond, !dbg !3144
}

; Function Attrs: noinline nounwind optnone ssp uwtable
define linkonce_odr hidden zeroext i1 @_ZNKSt3__112basic_stringIcNS_11char_traitsIcEENS_9allocatorIcEEE9__is_longB6v15006Ev(%"class.std::__1::basic_string"* %this) #3 align 2 !dbg !3145 {
entry:
  %retval = alloca i1, align 1
  %this.addr = alloca %"class.std::__1::basic_string"*, align 8
  store %"class.std::__1::basic_string"* %this, %"class.std::__1::basic_string"** %this.addr, align 8
  call void @llvm.dbg.declare(metadata %"class.std::__1::basic_string"** %this.addr, metadata !3146, metadata !DIExpression()), !dbg !3147
  %this1 = load %"class.std::__1::basic_string"*, %"class.std::__1::basic_string"** %this.addr, align 8
  %call = call zeroext i1 @_ZNSt3__130__libcpp_is_constant_evaluatedEv() #8, !dbg !3148
  br i1 %call, label %if.then, label %if.end, !dbg !3150

if.then:                                          ; preds = %entry
  store i1 true, i1* %retval, align 1, !dbg !3151
  br label %return, !dbg !3151

if.end:                                           ; preds = %entry
  %__r_ = getelementptr inbounds %"class.std::__1::basic_string", %"class.std::__1::basic_string"* %this1, i32 0, i32 0, !dbg !3152
  %call2 = call nonnull align 8 dereferenceable(24) %"struct.std::__1::basic_string<char>::__rep"* @_ZNKSt3__117__compressed_pairINS_12basic_stringIcNS_11char_traitsIcEENS_9allocatorIcEEE5__repES5_E5firstB6v15006Ev(%"class.std::__1::__compressed_pair"* %__r_) #8, !dbg !3153
  %0 = getelementptr inbounds %"struct.std::__1::basic_string<char>::__rep", %"struct.std::__1::basic_string<char>::__rep"* %call2, i32 0, i32 0, !dbg !3154
  %__s = bitcast %union.anon* %0 to %"struct.std::__1::basic_string<char>::__short"*, !dbg !3154
  %__is_long_ = getelementptr inbounds %"struct.std::__1::basic_string<char>::__short", %"struct.std::__1::basic_string<char>::__short"* %__s, i32 0, i32 2, !dbg !3155
  %bf.load = load i8, i8* %__is_long_, align 1, !dbg !3155
  %bf.lshr = lshr i8 %bf.load, 7, !dbg !3155
  %tobool = icmp ne i8 %bf.lshr, 0, !dbg !3152
  store i1 %tobool, i1* %retval, align 1, !dbg !3156
  br label %return, !dbg !3156

return:                                           ; preds = %if.end, %if.then
  %1 = load i1, i1* %retval, align 1, !dbg !3157
  ret i1 %1, !dbg !3157
}

; Function Attrs: noinline nounwind optnone ssp uwtable
define linkonce_odr hidden i8* @_ZNKSt3__112basic_stringIcNS_11char_traitsIcEENS_9allocatorIcEEE18__get_long_pointerB6v15006Ev(%"class.std::__1::basic_string"* %this) #3 align 2 !dbg !3158 {
entry:
  %this.addr = alloca %"class.std::__1::basic_string"*, align 8
  store %"class.std::__1::basic_string"* %this, %"class.std::__1::basic_string"** %this.addr, align 8
  call void @llvm.dbg.declare(metadata %"class.std::__1::basic_string"** %this.addr, metadata !3159, metadata !DIExpression()), !dbg !3160
  %this1 = load %"class.std::__1::basic_string"*, %"class.std::__1::basic_string"** %this.addr, align 8
  %__r_ = getelementptr inbounds %"class.std::__1::basic_string", %"class.std::__1::basic_string"* %this1, i32 0, i32 0, !dbg !3161
  %call = call nonnull align 8 dereferenceable(24) %"struct.std::__1::basic_string<char>::__rep"* @_ZNKSt3__117__compressed_pairINS_12basic_stringIcNS_11char_traitsIcEENS_9allocatorIcEEE5__repES5_E5firstB6v15006Ev(%"class.std::__1::__compressed_pair"* %__r_) #8, !dbg !3162
  %0 = getelementptr inbounds %"struct.std::__1::basic_string<char>::__rep", %"struct.std::__1::basic_string<char>::__rep"* %call, i32 0, i32 0, !dbg !3163
  %__l = bitcast %union.anon* %0 to %"struct.std::__1::basic_string<char>::__long"*, !dbg !3163
  %__data_ = getelementptr inbounds %"struct.std::__1::basic_string<char>::__long", %"struct.std::__1::basic_string<char>::__long"* %__l, i32 0, i32 0, !dbg !3164
  %1 = load i8*, i8** %__data_, align 8, !dbg !3164
  ret i8* %1, !dbg !3165
}

; Function Attrs: noinline nounwind optnone ssp uwtable
define linkonce_odr hidden i8* @_ZNKSt3__112basic_stringIcNS_11char_traitsIcEENS_9allocatorIcEEE19__get_short_pointerB6v15006Ev(%"class.std::__1::basic_string"* %this) #3 align 2 !dbg !3166 {
entry:
  %this.addr = alloca %"class.std::__1::basic_string"*, align 8
  store %"class.std::__1::basic_string"* %this, %"class.std::__1::basic_string"** %this.addr, align 8
  call void @llvm.dbg.declare(metadata %"class.std::__1::basic_string"** %this.addr, metadata !3167, metadata !DIExpression()), !dbg !3168
  %this1 = load %"class.std::__1::basic_string"*, %"class.std::__1::basic_string"** %this.addr, align 8
  %__r_ = getelementptr inbounds %"class.std::__1::basic_string", %"class.std::__1::basic_string"* %this1, i32 0, i32 0, !dbg !3169
  %call = call nonnull align 8 dereferenceable(24) %"struct.std::__1::basic_string<char>::__rep"* @_ZNKSt3__117__compressed_pairINS_12basic_stringIcNS_11char_traitsIcEENS_9allocatorIcEEE5__repES5_E5firstB6v15006Ev(%"class.std::__1::__compressed_pair"* %__r_) #8, !dbg !3170
  %0 = getelementptr inbounds %"struct.std::__1::basic_string<char>::__rep", %"struct.std::__1::basic_string<char>::__rep"* %call, i32 0, i32 0, !dbg !3171
  %__s = bitcast %union.anon* %0 to %"struct.std::__1::basic_string<char>::__short"*, !dbg !3171
  %__data_ = getelementptr inbounds %"struct.std::__1::basic_string<char>::__short", %"struct.std::__1::basic_string<char>::__short"* %__s, i32 0, i32 0, !dbg !3172
  %arrayidx = getelementptr inbounds [23 x i8], [23 x i8]* %__data_, i64 0, i64 0, !dbg !3169
  %call2 = call i8* @_ZNSt3__114pointer_traitsIPKcE10pointer_toB6v15006ERS1_(i8* nonnull align 1 dereferenceable(1) %arrayidx) #8, !dbg !3173
  ret i8* %call2, !dbg !3174
}

; Function Attrs: noinline nounwind optnone ssp uwtable
define linkonce_odr zeroext i1 @_ZNSt3__130__libcpp_is_constant_evaluatedEv() #3 !dbg !3175 {
entry:
  ret i1 false, !dbg !3179
}

; Function Attrs: noinline nounwind optnone ssp uwtable
define linkonce_odr hidden nonnull align 8 dereferenceable(24) %"struct.std::__1::basic_string<char>::__rep"* @_ZNKSt3__117__compressed_pairINS_12basic_stringIcNS_11char_traitsIcEENS_9allocatorIcEEE5__repES5_E5firstB6v15006Ev(%"class.std::__1::__compressed_pair"* %this) #3 align 2 !dbg !3180 {
entry:
  %this.addr = alloca %"class.std::__1::__compressed_pair"*, align 8
  store %"class.std::__1::__compressed_pair"* %this, %"class.std::__1::__compressed_pair"** %this.addr, align 8
  call void @llvm.dbg.declare(metadata %"class.std::__1::__compressed_pair"** %this.addr, metadata !3181, metadata !DIExpression()), !dbg !3183
  %this1 = load %"class.std::__1::__compressed_pair"*, %"class.std::__1::__compressed_pair"** %this.addr, align 8
  %0 = bitcast %"class.std::__1::__compressed_pair"* %this1 to %"struct.std::__1::__compressed_pair_elem"*, !dbg !3184
  %call = call nonnull align 8 dereferenceable(24) %"struct.std::__1::basic_string<char>::__rep"* @_ZNKSt3__122__compressed_pair_elemINS_12basic_stringIcNS_11char_traitsIcEENS_9allocatorIcEEE5__repELi0ELb0EE5__getB6v15006Ev(%"struct.std::__1::__compressed_pair_elem"* %0) #8, !dbg !3185
  ret %"struct.std::__1::basic_string<char>::__rep"* %call, !dbg !3186
}

; Function Attrs: noinline nounwind optnone ssp uwtable
define linkonce_odr hidden nonnull align 8 dereferenceable(24) %"struct.std::__1::basic_string<char>::__rep"* @_ZNKSt3__122__compressed_pair_elemINS_12basic_stringIcNS_11char_traitsIcEENS_9allocatorIcEEE5__repELi0ELb0EE5__getB6v15006Ev(%"struct.std::__1::__compressed_pair_elem"* %this) #3 align 2 !dbg !3187 {
entry:
  %this.addr = alloca %"struct.std::__1::__compressed_pair_elem"*, align 8
  store %"struct.std::__1::__compressed_pair_elem"* %this, %"struct.std::__1::__compressed_pair_elem"** %this.addr, align 8
  call void @llvm.dbg.declare(metadata %"struct.std::__1::__compressed_pair_elem"** %this.addr, metadata !3188, metadata !DIExpression()), !dbg !3190
  %this1 = load %"struct.std::__1::__compressed_pair_elem"*, %"struct.std::__1::__compressed_pair_elem"** %this.addr, align 8
  %__value_ = getelementptr inbounds %"struct.std::__1::__compressed_pair_elem", %"struct.std::__1::__compressed_pair_elem"* %this1, i32 0, i32 0, !dbg !3191
  ret %"struct.std::__1::basic_string<char>::__rep"* %__value_, !dbg !3192
}

; Function Attrs: noinline nounwind optnone ssp uwtable
define linkonce_odr hidden i8* @_ZNSt3__114pointer_traitsIPKcE10pointer_toB6v15006ERS1_(i8* nonnull align 1 dereferenceable(1) %__r) #3 align 2 !dbg !3193 {
entry:
  %__r.addr = alloca i8*, align 8
  store i8* %__r, i8** %__r.addr, align 8
  call void @llvm.dbg.declare(metadata i8** %__r.addr, metadata !3211, metadata !DIExpression()), !dbg !3212
  %0 = load i8*, i8** %__r.addr, align 8, !dbg !3213
  %call = call i8* @_ZNSt3__19addressofB6v15006IKcEEPT_RS2_(i8* nonnull align 1 dereferenceable(1) %0) #8, !dbg !3214
  ret i8* %call, !dbg !3215
}

; Function Attrs: noinline nounwind optnone ssp uwtable
define linkonce_odr hidden i8* @_ZNSt3__19addressofB6v15006IKcEEPT_RS2_(i8* nonnull align 1 dereferenceable(1) %__x) #3 !dbg !3216 {
entry:
  %__x.addr = alloca i8*, align 8
  store i8* %__x, i8** %__x.addr, align 8
  call void @llvm.dbg.declare(metadata i8** %__x.addr, metadata !3220, metadata !DIExpression()), !dbg !3221
  %0 = load i8*, i8** %__x.addr, align 8, !dbg !3222
  ret i8* %0, !dbg !3223
}

; Function Attrs: noinline nounwind optnone ssp uwtable
define linkonce_odr hidden %"class.std::__1::ostreambuf_iterator"* @_ZNSt3__119ostreambuf_iteratorIcNS_11char_traitsIcEEEC2B6v15006ERNS_13basic_ostreamIcS2_EE(%"class.std::__1::ostreambuf_iterator"* returned %this, %"class.std::__1::basic_ostream"* nonnull align 8 dereferenceable(8) %__s) unnamed_addr #3 align 2 personality i8* bitcast (i32 (...)* @__gxx_personality_v0 to i8*) !dbg !3224 {
entry:
  %this.addr = alloca %"class.std::__1::ostreambuf_iterator"*, align 8
  %__s.addr = alloca %"class.std::__1::basic_ostream"*, align 8
  %exn.slot = alloca i8*, align 8
  %ehselector.slot = alloca i32, align 4
  store %"class.std::__1::ostreambuf_iterator"* %this, %"class.std::__1::ostreambuf_iterator"** %this.addr, align 8
  call void @llvm.dbg.declare(metadata %"class.std::__1::ostreambuf_iterator"** %this.addr, metadata !3225, metadata !DIExpression()), !dbg !3226
  store %"class.std::__1::basic_ostream"* %__s, %"class.std::__1::basic_ostream"** %__s.addr, align 8
  call void @llvm.dbg.declare(metadata %"class.std::__1::basic_ostream"** %__s.addr, metadata !3227, metadata !DIExpression()), !dbg !3228
  %this1 = load %"class.std::__1::ostreambuf_iterator"*, %"class.std::__1::ostreambuf_iterator"** %this.addr, align 8
  %0 = bitcast %"class.std::__1::ostreambuf_iterator"* %this1 to %"struct.std::__1::iterator"*, !dbg !3229
  %__sbuf_ = getelementptr inbounds %"class.std::__1::ostreambuf_iterator", %"class.std::__1::ostreambuf_iterator"* %this1, i32 0, i32 0, !dbg !3230
  %1 = load %"class.std::__1::basic_ostream"*, %"class.std::__1::basic_ostream"** %__s.addr, align 8, !dbg !3231
  %2 = bitcast %"class.std::__1::basic_ostream"* %1 to i8**, !dbg !3231
  %vtable = load i8*, i8** %2, align 8, !dbg !3231
  %vbase.offset.ptr = getelementptr i8, i8* %vtable, i64 -24, !dbg !3231
  %3 = bitcast i8* %vbase.offset.ptr to i64*, !dbg !3231
  %vbase.offset = load i64, i64* %3, align 8, !dbg !3231
  %4 = bitcast %"class.std::__1::basic_ostream"* %1 to i8*, !dbg !3231
  %add.ptr = getelementptr inbounds i8, i8* %4, i64 %vbase.offset, !dbg !3231
  %5 = bitcast i8* %add.ptr to %"class.std::__1::basic_ios"*, !dbg !3231
  %call = invoke %"class.std::__1::basic_streambuf"* @_ZNKSt3__19basic_iosIcNS_11char_traitsIcEEE5rdbufB6v15006Ev(%"class.std::__1::basic_ios"* %5)
          to label %invoke.cont unwind label %lpad, !dbg !3232

invoke.cont:                                      ; preds = %entry
  store %"class.std::__1::basic_streambuf"* %call, %"class.std::__1::basic_streambuf"** %__sbuf_, align 8, !dbg !3230
  ret %"class.std::__1::ostreambuf_iterator"* %this1, !dbg !3233

lpad:                                             ; preds = %entry
  %6 = landingpad { i8*, i32 }
          filter [0 x i8*] zeroinitializer, !dbg !3233
  %7 = extractvalue { i8*, i32 } %6, 0, !dbg !3233
  store i8* %7, i8** %exn.slot, align 8, !dbg !3233
  %8 = extractvalue { i8*, i32 } %6, 1, !dbg !3233
  store i32 %8, i32* %ehselector.slot, align 4, !dbg !3233
  br label %filter.dispatch, !dbg !3233

filter.dispatch:                                  ; preds = %lpad
  %exn = load i8*, i8** %exn.slot, align 8, !dbg !3233
  call void @__cxa_call_unexpected(i8* %exn) #10, !dbg !3233
  unreachable, !dbg !3233
}

; Function Attrs: noinline optnone ssp uwtable
define linkonce_odr hidden %"class.std::__1::basic_streambuf"* @_ZNKSt3__19basic_iosIcNS_11char_traitsIcEEE5rdbufB6v15006Ev(%"class.std::__1::basic_ios"* %this) #1 align 2 !dbg !3234 {
entry:
  %this.addr = alloca %"class.std::__1::basic_ios"*, align 8
  store %"class.std::__1::basic_ios"* %this, %"class.std::__1::basic_ios"** %this.addr, align 8
  call void @llvm.dbg.declare(metadata %"class.std::__1::basic_ios"** %this.addr, metadata !3235, metadata !DIExpression()), !dbg !3236
  %this1 = load %"class.std::__1::basic_ios"*, %"class.std::__1::basic_ios"** %this.addr, align 8
  %0 = bitcast %"class.std::__1::basic_ios"* %this1 to %"class.std::__1::ios_base"*, !dbg !3237
  %call = call i8* @_ZNKSt3__18ios_base5rdbufB6v15006Ev(%"class.std::__1::ios_base"* %0), !dbg !3237
  %1 = bitcast i8* %call to %"class.std::__1::basic_streambuf"*, !dbg !3238
  ret %"class.std::__1::basic_streambuf"* %1, !dbg !3239
}

declare void @__cxa_call_unexpected(i8*)

; Function Attrs: noinline nounwind optnone ssp uwtable
define linkonce_odr hidden i8* @_ZNKSt3__18ios_base5rdbufB6v15006Ev(%"class.std::__1::ios_base"* %this) #3 align 2 !dbg !3240 {
entry:
  %this.addr = alloca %"class.std::__1::ios_base"*, align 8
  store %"class.std::__1::ios_base"* %this, %"class.std::__1::ios_base"** %this.addr, align 8
  call void @llvm.dbg.declare(metadata %"class.std::__1::ios_base"** %this.addr, metadata !3241, metadata !DIExpression()), !dbg !3242
  %this1 = load %"class.std::__1::ios_base"*, %"class.std::__1::ios_base"** %this.addr, align 8
  %__rdbuf_ = getelementptr inbounds %"class.std::__1::ios_base", %"class.std::__1::ios_base"* %this1, i32 0, i32 6, !dbg !3243
  %0 = load i8*, i8** %__rdbuf_, align 8, !dbg !3243
  ret i8* %0, !dbg !3244
}

; Function Attrs: noinline nounwind optnone ssp uwtable
define linkonce_odr zeroext i1 @_ZNSt3__111char_traitsIcE11eq_int_typeEii(i32 %__c1, i32 %__c2) #3 align 2 !dbg !3245 {
entry:
  %__c1.addr = alloca i32, align 4
  %__c2.addr = alloca i32, align 4
  store i32 %__c1, i32* %__c1.addr, align 4
  call void @llvm.dbg.declare(metadata i32* %__c1.addr, metadata !3246, metadata !DIExpression()), !dbg !3247
  store i32 %__c2, i32* %__c2.addr, align 4
  call void @llvm.dbg.declare(metadata i32* %__c2.addr, metadata !3248, metadata !DIExpression()), !dbg !3249
  %0 = load i32, i32* %__c1.addr, align 4, !dbg !3250
  %1 = load i32, i32* %__c2.addr, align 4, !dbg !3251
  %cmp = icmp eq i32 %0, %1, !dbg !3252
  ret i1 %cmp, !dbg !3253
}

; Function Attrs: noinline nounwind optnone ssp uwtable
define linkonce_odr i32 @_ZNSt3__111char_traitsIcE3eofEv() #3 align 2 !dbg !3254 {
entry:
  ret i32 -1, !dbg !3255
}

; Function Attrs: noinline optnone ssp uwtable
define linkonce_odr hidden signext i8 @_ZNKSt3__19basic_iosIcNS_11char_traitsIcEEE5widenB6v15006Ec(%"class.std::__1::basic_ios"* %this, i8 signext %__c) #1 align 2 personality i8* bitcast (i32 (...)* @__gxx_personality_v0 to i8*) !dbg !3256 {
entry:
  %this.addr = alloca %"class.std::__1::basic_ios"*, align 8
  %__c.addr = alloca i8, align 1
  %ref.tmp = alloca %"class.std::__1::locale", align 8
  %exn.slot = alloca i8*, align 8
  %ehselector.slot = alloca i32, align 4
  store %"class.std::__1::basic_ios"* %this, %"class.std::__1::basic_ios"** %this.addr, align 8
  call void @llvm.dbg.declare(metadata %"class.std::__1::basic_ios"** %this.addr, metadata !3257, metadata !DIExpression()), !dbg !3258
  store i8 %__c, i8* %__c.addr, align 1
  call void @llvm.dbg.declare(metadata i8* %__c.addr, metadata !3259, metadata !DIExpression()), !dbg !3260
  %this1 = load %"class.std::__1::basic_ios"*, %"class.std::__1::basic_ios"** %this.addr, align 8
  %0 = bitcast %"class.std::__1::basic_ios"* %this1 to %"class.std::__1::ios_base"*, !dbg !3261
  call void @_ZNKSt3__18ios_base6getlocEv(%"class.std::__1::locale"* sret(%"class.std::__1::locale") align 8 %ref.tmp, %"class.std::__1::ios_base"* %0), !dbg !3261
  %call = invoke nonnull align 8 dereferenceable(25) %"class.std::__1::ctype"* @_ZNSt3__19use_facetB6v15006INS_5ctypeIcEEEERKT_RKNS_6localeE(%"class.std::__1::locale"* nonnull align 8 dereferenceable(8) %ref.tmp)
          to label %invoke.cont unwind label %lpad, !dbg !3262

invoke.cont:                                      ; preds = %entry
  %1 = load i8, i8* %__c.addr, align 1, !dbg !3263
  %call3 = invoke signext i8 @_ZNKSt3__15ctypeIcE5widenB6v15006Ec(%"class.std::__1::ctype"* %call, i8 signext %1)
          to label %invoke.cont2 unwind label %lpad, !dbg !3264

invoke.cont2:                                     ; preds = %invoke.cont
  %call4 = call %"class.std::__1::locale"* @_ZNSt3__16localeD1Ev(%"class.std::__1::locale"* %ref.tmp), !dbg !3265
  ret i8 %call3, !dbg !3265

lpad:                                             ; preds = %invoke.cont, %entry
  %2 = landingpad { i8*, i32 }
          cleanup, !dbg !3266
  %3 = extractvalue { i8*, i32 } %2, 0, !dbg !3266
  store i8* %3, i8** %exn.slot, align 8, !dbg !3266
  %4 = extractvalue { i8*, i32 } %2, 1, !dbg !3266
  store i32 %4, i32* %ehselector.slot, align 4, !dbg !3266
  %call6 = invoke %"class.std::__1::locale"* @_ZNSt3__16localeD1Ev(%"class.std::__1::locale"* %ref.tmp)
          to label %invoke.cont5 unwind label %terminate.lpad, !dbg !3265

invoke.cont5:                                     ; preds = %lpad
  br label %eh.resume, !dbg !3265

eh.resume:                                        ; preds = %invoke.cont5
  %exn = load i8*, i8** %exn.slot, align 8, !dbg !3265
  %sel = load i32, i32* %ehselector.slot, align 4, !dbg !3265
  %lpad.val = insertvalue { i8*, i32 } undef, i8* %exn, 0, !dbg !3265
  %lpad.val7 = insertvalue { i8*, i32 } %lpad.val, i32 %sel, 1, !dbg !3265
  resume { i8*, i32 } %lpad.val7, !dbg !3265

terminate.lpad:                                   ; preds = %lpad
  %5 = landingpad { i8*, i32 }
          catch i8* null, !dbg !3265
  %6 = extractvalue { i8*, i32 } %5, 0, !dbg !3265
  call void @__clang_call_terminate(i8* %6) #9, !dbg !3265
  unreachable, !dbg !3265
}

; Function Attrs: noinline optnone ssp uwtable
define linkonce_odr hidden nonnull align 8 dereferenceable(25) %"class.std::__1::ctype"* @_ZNSt3__19use_facetB6v15006INS_5ctypeIcEEEERKT_RKNS_6localeE(%"class.std::__1::locale"* nonnull align 8 dereferenceable(8) %__l) #1 !dbg !3267 {
entry:
  %__l.addr = alloca %"class.std::__1::locale"*, align 8
  store %"class.std::__1::locale"* %__l, %"class.std::__1::locale"** %__l.addr, align 8
  call void @llvm.dbg.declare(metadata %"class.std::__1::locale"** %__l.addr, metadata !3362, metadata !DIExpression()), !dbg !3363
  %0 = load %"class.std::__1::locale"*, %"class.std::__1::locale"** %__l.addr, align 8, !dbg !3364
  %call = call %"class.std::__1::locale::facet"* @_ZNKSt3__16locale9use_facetERNS0_2idE(%"class.std::__1::locale"* %0, %"class.std::__1::locale::id"* nonnull align 8 dereferenceable(12) @_ZNSt3__15ctypeIcE2idE), !dbg !3365
  %1 = bitcast %"class.std::__1::locale::facet"* %call to %"class.std::__1::ctype"*, !dbg !3366
  ret %"class.std::__1::ctype"* %1, !dbg !3367
}

declare void @_ZNKSt3__18ios_base6getlocEv(%"class.std::__1::locale"* sret(%"class.std::__1::locale") align 8, %"class.std::__1::ios_base"*) #4

; Function Attrs: noinline optnone ssp uwtable
define linkonce_odr hidden signext i8 @_ZNKSt3__15ctypeIcE5widenB6v15006Ec(%"class.std::__1::ctype"* %this, i8 signext %__c) #1 align 2 !dbg !3368 {
entry:
  %this.addr = alloca %"class.std::__1::ctype"*, align 8
  %__c.addr = alloca i8, align 1
  store %"class.std::__1::ctype"* %this, %"class.std::__1::ctype"** %this.addr, align 8
  call void @llvm.dbg.declare(metadata %"class.std::__1::ctype"** %this.addr, metadata !3369, metadata !DIExpression()), !dbg !3371
  store i8 %__c, i8* %__c.addr, align 1
  call void @llvm.dbg.declare(metadata i8* %__c.addr, metadata !3372, metadata !DIExpression()), !dbg !3373
  %this1 = load %"class.std::__1::ctype"*, %"class.std::__1::ctype"** %this.addr, align 8
  %0 = load i8, i8* %__c.addr, align 1, !dbg !3374
  %1 = bitcast %"class.std::__1::ctype"* %this1 to i8 (%"class.std::__1::ctype"*, i8)***, !dbg !3375
  %vtable = load i8 (%"class.std::__1::ctype"*, i8)**, i8 (%"class.std::__1::ctype"*, i8)*** %1, align 8, !dbg !3375
  %vfn = getelementptr inbounds i8 (%"class.std::__1::ctype"*, i8)*, i8 (%"class.std::__1::ctype"*, i8)** %vtable, i64 7, !dbg !3375
  %2 = load i8 (%"class.std::__1::ctype"*, i8)*, i8 (%"class.std::__1::ctype"*, i8)** %vfn, align 8, !dbg !3375
  %call = call signext i8 %2(%"class.std::__1::ctype"* %this1, i8 signext %0), !dbg !3375
  ret i8 %call, !dbg !3376
}

declare %"class.std::__1::locale"* @_ZNSt3__16localeD1Ev(%"class.std::__1::locale"* returned) unnamed_addr #4

declare %"class.std::__1::locale::facet"* @_ZNKSt3__16locale9use_facetERNS0_2idE(%"class.std::__1::locale"*, %"class.std::__1::locale::id"* nonnull align 8 dereferenceable(12)) #4

; Function Attrs: noinline optnone ssp uwtable
define linkonce_odr hidden void @_ZNSt3__18ios_base8setstateB6v15006Ej(%"class.std::__1::ios_base"* %this, i32 %__state) #1 align 2 !dbg !3377 {
entry:
  %this.addr = alloca %"class.std::__1::ios_base"*, align 8
  %__state.addr = alloca i32, align 4
  store %"class.std::__1::ios_base"* %this, %"class.std::__1::ios_base"** %this.addr, align 8
  call void @llvm.dbg.declare(metadata %"class.std::__1::ios_base"** %this.addr, metadata !3378, metadata !DIExpression()), !dbg !3379
  store i32 %__state, i32* %__state.addr, align 4
  call void @llvm.dbg.declare(metadata i32* %__state.addr, metadata !3380, metadata !DIExpression()), !dbg !3381
  %this1 = load %"class.std::__1::ios_base"*, %"class.std::__1::ios_base"** %this.addr, align 8
  %__rdstate_ = getelementptr inbounds %"class.std::__1::ios_base", %"class.std::__1::ios_base"* %this1, i32 0, i32 4, !dbg !3382
  %0 = load i32, i32* %__rdstate_, align 8, !dbg !3382
  %1 = load i32, i32* %__state.addr, align 4, !dbg !3383
  %or = or i32 %0, %1, !dbg !3384
  call void @_ZNSt3__18ios_base5clearEj(%"class.std::__1::ios_base"* %this1, i32 %or), !dbg !3385
  ret void, !dbg !3386
}

declare void @_ZNSt3__18ios_base5clearEj(%"class.std::__1::ios_base"*, i32) #4

; Function Attrs: nounwind
declare i64 @strlen(i8*) #7

attributes #0 = { noinline norecurse optnone ssp uwtable "frame-pointer"="non-leaf" "min-legal-vector-width"="0" "no-trapping-math"="true" "probe-stack"="__chkstk_darwin" "stack-protector-buffer-size"="8" "target-cpu"="apple-m1" "target-features"="+aes,+crc,+crypto,+dotprod,+fp-armv8,+fp16fml,+fullfp16,+lse,+neon,+ras,+rcpc,+rdm,+sha2,+sha3,+sm4,+v8.5a,+zcm,+zcz" }
attributes #1 = { noinline optnone ssp uwtable "frame-pointer"="non-leaf" "min-legal-vector-width"="0" "no-trapping-math"="true" "probe-stack"="__chkstk_darwin" "stack-protector-buffer-size"="8" "target-cpu"="apple-m1" "target-features"="+aes,+crc,+crypto,+dotprod,+fp-armv8,+fp16fml,+fullfp16,+lse,+neon,+ras,+rcpc,+rdm,+sha2,+sha3,+sm4,+v8.5a,+zcm,+zcz" }
attributes #2 = { nofree nosync nounwind readnone speculatable willreturn }
attributes #3 = { noinline nounwind optnone ssp uwtable "frame-pointer"="non-leaf" "min-legal-vector-width"="0" "no-trapping-math"="true" "probe-stack"="__chkstk_darwin" "stack-protector-buffer-size"="8" "target-cpu"="apple-m1" "target-features"="+aes,+crc,+crypto,+dotprod,+fp-armv8,+fp16fml,+fullfp16,+lse,+neon,+ras,+rcpc,+rdm,+sha2,+sha3,+sm4,+v8.5a,+zcm,+zcz" }
attributes #4 = { "frame-pointer"="non-leaf" "no-trapping-math"="true" "probe-stack"="__chkstk_darwin" "stack-protector-buffer-size"="8" "target-cpu"="apple-m1" "target-features"="+aes,+crc,+crypto,+dotprod,+fp-armv8,+fp16fml,+fullfp16,+lse,+neon,+ras,+rcpc,+rdm,+sha2,+sha3,+sm4,+v8.5a,+zcm,+zcz" }
attributes #5 = { noinline noreturn nounwind }
attributes #6 = { argmemonly nofree nounwind willreturn }
attributes #7 = { nounwind "frame-pointer"="non-leaf" "no-trapping-math"="true" "probe-stack"="__chkstk_darwin" "stack-protector-buffer-size"="8" "target-cpu"="apple-m1" "target-features"="+aes,+crc,+crypto,+dotprod,+fp-armv8,+fp16fml,+fullfp16,+lse,+neon,+ras,+rcpc,+rdm,+sha2,+sha3,+sm4,+v8.5a,+zcm,+zcz" }
attributes #8 = { nounwind }
attributes #9 = { noreturn nounwind }
attributes #10 = { noreturn }

!llvm.module.flags = !{!0, !1, !2, !3, !4, !5, !6, !7, !8, !9, !10}
!llvm.dbg.cu = !{!11}
!llvm.ident = !{!2725}

!0 = !{i32 2, !"SDK Version", [2 x i32] [i32 13, i32 3]}
!1 = !{i32 7, !"Dwarf Version", i32 4}
!2 = !{i32 2, !"Debug Info Version", i32 3}
!3 = !{i32 1, !"wchar_size", i32 4}
!4 = !{i32 1, !"branch-target-enforcement", i32 0}
!5 = !{i32 1, !"sign-return-address", i32 0}
!6 = !{i32 1, !"sign-return-address-all", i32 0}
!7 = !{i32 1, !"sign-return-address-with-bkey", i32 0}
!8 = !{i32 7, !"PIC Level", i32 2}
!9 = !{i32 7, !"uwtable", i32 1}
!10 = !{i32 7, !"frame-pointer", i32 1}
!11 = distinct !DICompileUnit(language: DW_LANG_C_plus_plus, file: !12, producer: "Apple clang version 14.0.0 (clang-1400.0.29.102)", isOptimized: false, runtimeVersion: 0, emissionKind: FullDebug, enums: !13, retainedTypes: !1141, imports: !1505, splitDebugInlining: false, nameTableKind: None, sysroot: "/Library/Developer/CommandLineTools/SDKs/MacOSX.sdk", sdk: "MacOSX.sdk")
!12 = !DIFile(filename: "main.cc", directory: "/Users/han/GitHub/llvm-project/build/tests/Wtest")
!13 = !{!14, !1136}
!14 = !DICompositeType(tag: DW_TAG_enumeration_type, name: "event", scope: !16, file: !15, line: 318, baseType: !29, size: 32, elements: !1132, identifier: "_ZTSNSt3__18ios_base5eventE")
!15 = !DIFile(filename: "/Library/Developer/CommandLineTools/SDKs/MacOSX.sdk/usr/include/c++/v1/ios", directory: "")
!16 = distinct !DICompositeType(tag: DW_TAG_class_type, name: "ios_base", scope: !17, file: !15, line: 241, size: 1088, flags: DIFlagTypePassByReference | DIFlagNonTrivial, elements: !19, vtableHolder: !16)
!17 = !DINamespace(name: "__1", scope: !18, exportSymbols: true)
!18 = !DINamespace(name: "std", scope: null)
!19 = !{!20, !26, !30, !31, !32, !33, !34, !35, !36, !37, !38, !39, !40, !41, !42, !43, !44, !45, !46, !47, !50, !51, !52, !53, !56, !57, !58, !59, !60, !61, !62, !67, !68, !69, !70, !72, !73, !80, !82, !88, !89, !92, !94, !95, !96, !98, !99, !100, !105, !109, !110, !113, !116, !119, !122, !123, !124, !1069, !1072, !1073, !1077, !1081, !1084, !1087, !1091, !1094, !1097, !1100, !1103, !1104, !1107, !1108, !1109, !1110, !1111, !1112, !1113, !1114, !1115, !1116, !1119, !1122, !1123, !1126, !1127, !1130, !1131}
!20 = !DIDerivedType(tag: DW_TAG_member, name: "_vptr$ios_base", scope: !15, file: !15, baseType: !21, size: 64, flags: DIFlagArtificial)
!21 = !DIDerivedType(tag: DW_TAG_pointer_type, baseType: !22, size: 64)
!22 = !DIDerivedType(tag: DW_TAG_pointer_type, name: "__vtbl_ptr_type", baseType: !23, size: 64)
!23 = !DISubroutineType(types: !24)
!24 = !{!25}
!25 = !DIBasicType(name: "int", size: 32, encoding: DW_ATE_signed)
!26 = !DIDerivedType(tag: DW_TAG_member, name: "boolalpha", scope: !16, file: !15, line: 247, baseType: !27, flags: DIFlagPublic | DIFlagStaticMember, extraData: i32 1)
!27 = !DIDerivedType(tag: DW_TAG_const_type, baseType: !28)
!28 = !DIDerivedType(tag: DW_TAG_typedef, name: "fmtflags", scope: !16, file: !15, line: 246, baseType: !29)
!29 = !DIBasicType(name: "unsigned int", size: 32, encoding: DW_ATE_unsigned)
!30 = !DIDerivedType(tag: DW_TAG_member, name: "dec", scope: !16, file: !15, line: 248, baseType: !27, flags: DIFlagPublic | DIFlagStaticMember, extraData: i32 2)
!31 = !DIDerivedType(tag: DW_TAG_member, name: "fixed", scope: !16, file: !15, line: 249, baseType: !27, flags: DIFlagPublic | DIFlagStaticMember, extraData: i32 4)
!32 = !DIDerivedType(tag: DW_TAG_member, name: "hex", scope: !16, file: !15, line: 250, baseType: !27, flags: DIFlagPublic | DIFlagStaticMember, extraData: i32 8)
!33 = !DIDerivedType(tag: DW_TAG_member, name: "internal", scope: !16, file: !15, line: 251, baseType: !27, flags: DIFlagPublic | DIFlagStaticMember, extraData: i32 16)
!34 = !DIDerivedType(tag: DW_TAG_member, name: "left", scope: !16, file: !15, line: 252, baseType: !27, flags: DIFlagPublic | DIFlagStaticMember, extraData: i32 32)
!35 = !DIDerivedType(tag: DW_TAG_member, name: "oct", scope: !16, file: !15, line: 253, baseType: !27, flags: DIFlagPublic | DIFlagStaticMember, extraData: i32 64)
!36 = !DIDerivedType(tag: DW_TAG_member, name: "right", scope: !16, file: !15, line: 254, baseType: !27, flags: DIFlagPublic | DIFlagStaticMember, extraData: i32 128)
!37 = !DIDerivedType(tag: DW_TAG_member, name: "scientific", scope: !16, file: !15, line: 255, baseType: !27, flags: DIFlagPublic | DIFlagStaticMember, extraData: i32 256)
!38 = !DIDerivedType(tag: DW_TAG_member, name: "showbase", scope: !16, file: !15, line: 256, baseType: !27, flags: DIFlagPublic | DIFlagStaticMember, extraData: i32 512)
!39 = !DIDerivedType(tag: DW_TAG_member, name: "showpoint", scope: !16, file: !15, line: 257, baseType: !27, flags: DIFlagPublic | DIFlagStaticMember, extraData: i32 1024)
!40 = !DIDerivedType(tag: DW_TAG_member, name: "showpos", scope: !16, file: !15, line: 258, baseType: !27, flags: DIFlagPublic | DIFlagStaticMember, extraData: i32 2048)
!41 = !DIDerivedType(tag: DW_TAG_member, name: "skipws", scope: !16, file: !15, line: 259, baseType: !27, flags: DIFlagPublic | DIFlagStaticMember, extraData: i32 4096)
!42 = !DIDerivedType(tag: DW_TAG_member, name: "unitbuf", scope: !16, file: !15, line: 260, baseType: !27, flags: DIFlagPublic | DIFlagStaticMember, extraData: i32 8192)
!43 = !DIDerivedType(tag: DW_TAG_member, name: "uppercase", scope: !16, file: !15, line: 261, baseType: !27, flags: DIFlagPublic | DIFlagStaticMember, extraData: i32 16384)
!44 = !DIDerivedType(tag: DW_TAG_member, name: "adjustfield", scope: !16, file: !15, line: 262, baseType: !27, flags: DIFlagPublic | DIFlagStaticMember, extraData: i32 176)
!45 = !DIDerivedType(tag: DW_TAG_member, name: "basefield", scope: !16, file: !15, line: 263, baseType: !27, flags: DIFlagPublic | DIFlagStaticMember, extraData: i32 74)
!46 = !DIDerivedType(tag: DW_TAG_member, name: "floatfield", scope: !16, file: !15, line: 264, baseType: !27, flags: DIFlagPublic | DIFlagStaticMember, extraData: i32 260)
!47 = !DIDerivedType(tag: DW_TAG_member, name: "badbit", scope: !16, file: !15, line: 267, baseType: !48, flags: DIFlagPublic | DIFlagStaticMember, extraData: i32 1)
!48 = !DIDerivedType(tag: DW_TAG_const_type, baseType: !49)
!49 = !DIDerivedType(tag: DW_TAG_typedef, name: "iostate", scope: !16, file: !15, line: 266, baseType: !29)
!50 = !DIDerivedType(tag: DW_TAG_member, name: "eofbit", scope: !16, file: !15, line: 268, baseType: !48, flags: DIFlagPublic | DIFlagStaticMember, extraData: i32 2)
!51 = !DIDerivedType(tag: DW_TAG_member, name: "failbit", scope: !16, file: !15, line: 269, baseType: !48, flags: DIFlagPublic | DIFlagStaticMember, extraData: i32 4)
!52 = !DIDerivedType(tag: DW_TAG_member, name: "goodbit", scope: !16, file: !15, line: 270, baseType: !48, flags: DIFlagPublic | DIFlagStaticMember, extraData: i32 0)
!53 = !DIDerivedType(tag: DW_TAG_member, name: "app", scope: !16, file: !15, line: 273, baseType: !54, flags: DIFlagPublic | DIFlagStaticMember, extraData: i32 1)
!54 = !DIDerivedType(tag: DW_TAG_const_type, baseType: !55)
!55 = !DIDerivedType(tag: DW_TAG_typedef, name: "openmode", scope: !16, file: !15, line: 272, baseType: !29)
!56 = !DIDerivedType(tag: DW_TAG_member, name: "ate", scope: !16, file: !15, line: 274, baseType: !54, flags: DIFlagPublic | DIFlagStaticMember, extraData: i32 2)
!57 = !DIDerivedType(tag: DW_TAG_member, name: "binary", scope: !16, file: !15, line: 275, baseType: !54, flags: DIFlagPublic | DIFlagStaticMember, extraData: i32 4)
!58 = !DIDerivedType(tag: DW_TAG_member, name: "in", scope: !16, file: !15, line: 276, baseType: !54, flags: DIFlagPublic | DIFlagStaticMember, extraData: i32 8)
!59 = !DIDerivedType(tag: DW_TAG_member, name: "out", scope: !16, file: !15, line: 277, baseType: !54, flags: DIFlagPublic | DIFlagStaticMember, extraData: i32 16)
!60 = !DIDerivedType(tag: DW_TAG_member, name: "trunc", scope: !16, file: !15, line: 278, baseType: !54, flags: DIFlagPublic | DIFlagStaticMember, extraData: i32 32)
!61 = !DIDerivedType(tag: DW_TAG_member, name: "__fmtflags_", scope: !16, file: !15, line: 379, baseType: !28, size: 32, offset: 64)
!62 = !DIDerivedType(tag: DW_TAG_member, name: "__precision_", scope: !16, file: !15, line: 380, baseType: !63, size: 64, offset: 128)
!63 = !DIDerivedType(tag: DW_TAG_typedef, name: "streamsize", scope: !17, file: !15, line: 239, baseType: !64)
!64 = !DIDerivedType(tag: DW_TAG_typedef, name: "ptrdiff_t", file: !65, line: 35, baseType: !66)
!65 = !DIFile(filename: "/Applications/Xcode.app/Contents/Developer/Toolchains/XcodeDefault.xctoolchain/usr/lib/clang/14.0.0/include/stddef.h", directory: "")
!66 = !DIBasicType(name: "long", size: 64, encoding: DW_ATE_signed)
!67 = !DIDerivedType(tag: DW_TAG_member, name: "__width_", scope: !16, file: !15, line: 381, baseType: !63, size: 64, offset: 192)
!68 = !DIDerivedType(tag: DW_TAG_member, name: "__rdstate_", scope: !16, file: !15, line: 382, baseType: !49, size: 32, offset: 256)
!69 = !DIDerivedType(tag: DW_TAG_member, name: "__exceptions_", scope: !16, file: !15, line: 383, baseType: !49, size: 32, offset: 288)
!70 = !DIDerivedType(tag: DW_TAG_member, name: "__rdbuf_", scope: !16, file: !15, line: 384, baseType: !71, size: 64, offset: 320)
!71 = !DIDerivedType(tag: DW_TAG_pointer_type, baseType: null, size: 64)
!72 = !DIDerivedType(tag: DW_TAG_member, name: "__loc_", scope: !16, file: !15, line: 385, baseType: !71, size: 64, offset: 384)
!73 = !DIDerivedType(tag: DW_TAG_member, name: "__fn_", scope: !16, file: !15, line: 386, baseType: !74, size: 64, offset: 448)
!74 = !DIDerivedType(tag: DW_TAG_pointer_type, baseType: !75, size: 64)
!75 = !DIDerivedType(tag: DW_TAG_typedef, name: "event_callback", scope: !16, file: !15, line: 319, baseType: !76)
!76 = !DIDerivedType(tag: DW_TAG_pointer_type, baseType: !77, size: 64)
!77 = !DISubroutineType(types: !78)
!78 = !{null, !14, !79, !25}
!79 = !DIDerivedType(tag: DW_TAG_reference_type, baseType: !16, size: 64)
!80 = !DIDerivedType(tag: DW_TAG_member, name: "__index_", scope: !16, file: !15, line: 387, baseType: !81, size: 64, offset: 512)
!81 = !DIDerivedType(tag: DW_TAG_pointer_type, baseType: !25, size: 64)
!82 = !DIDerivedType(tag: DW_TAG_member, name: "__event_size_", scope: !16, file: !15, line: 388, baseType: !83, size: 64, offset: 576)
!83 = !DIDerivedType(tag: DW_TAG_typedef, name: "size_t", file: !84, line: 31, baseType: !85)
!84 = !DIFile(filename: "/Library/Developer/CommandLineTools/SDKs/MacOSX.sdk/usr/include/sys/_types/_size_t.h", directory: "")
!85 = !DIDerivedType(tag: DW_TAG_typedef, name: "__darwin_size_t", file: !86, line: 70, baseType: !87)
!86 = !DIFile(filename: "/Library/Developer/CommandLineTools/SDKs/MacOSX.sdk/usr/include/arm/_types.h", directory: "")
!87 = !DIBasicType(name: "unsigned long", size: 64, encoding: DW_ATE_unsigned)
!88 = !DIDerivedType(tag: DW_TAG_member, name: "__event_cap_", scope: !16, file: !15, line: 389, baseType: !83, size: 64, offset: 640)
!89 = !DIDerivedType(tag: DW_TAG_member, name: "__xindex_", scope: !16, file: !15, line: 393, baseType: !90, flags: DIFlagStaticMember)
!90 = !DICompositeType(tag: DW_TAG_structure_type, name: "atomic<int>", scope: !17, file: !91, line: 1726, flags: DIFlagFwdDecl | DIFlagNonTrivial, identifier: "_ZTSNSt3__16atomicIiEE")
!91 = !DIFile(filename: "/Library/Developer/CommandLineTools/SDKs/MacOSX.sdk/usr/include/c++/v1/atomic", directory: "")
!92 = !DIDerivedType(tag: DW_TAG_member, name: "__iarray_", scope: !16, file: !15, line: 397, baseType: !93, size: 64, offset: 704)
!93 = !DIDerivedType(tag: DW_TAG_pointer_type, baseType: !66, size: 64)
!94 = !DIDerivedType(tag: DW_TAG_member, name: "__iarray_size_", scope: !16, file: !15, line: 398, baseType: !83, size: 64, offset: 768)
!95 = !DIDerivedType(tag: DW_TAG_member, name: "__iarray_cap_", scope: !16, file: !15, line: 399, baseType: !83, size: 64, offset: 832)
!96 = !DIDerivedType(tag: DW_TAG_member, name: "__parray_", scope: !16, file: !15, line: 400, baseType: !97, size: 64, offset: 896)
!97 = !DIDerivedType(tag: DW_TAG_pointer_type, baseType: !71, size: 64)
!98 = !DIDerivedType(tag: DW_TAG_member, name: "__parray_size_", scope: !16, file: !15, line: 401, baseType: !83, size: 64, offset: 960)
!99 = !DIDerivedType(tag: DW_TAG_member, name: "__parray_cap_", scope: !16, file: !15, line: 402, baseType: !83, size: 64, offset: 1024)
!100 = !DISubprogram(name: "flags", linkageName: "_ZNKSt3__18ios_base5flagsB6v15006Ev", scope: !16, file: !15, line: 294, type: !101, scopeLine: 294, flags: DIFlagPublic | DIFlagPrototyped, spFlags: 0)
!101 = !DISubroutineType(types: !102)
!102 = !{!28, !103}
!103 = !DIDerivedType(tag: DW_TAG_pointer_type, baseType: !104, size: 64, flags: DIFlagArtificial | DIFlagObjectPointer)
!104 = !DIDerivedType(tag: DW_TAG_const_type, baseType: !16)
!105 = !DISubprogram(name: "flags", linkageName: "_ZNSt3__18ios_base5flagsB6v15006Ej", scope: !16, file: !15, line: 295, type: !106, scopeLine: 295, flags: DIFlagPublic | DIFlagPrototyped, spFlags: 0)
!106 = !DISubroutineType(types: !107)
!107 = !{!28, !108, !28}
!108 = !DIDerivedType(tag: DW_TAG_pointer_type, baseType: !16, size: 64, flags: DIFlagArtificial | DIFlagObjectPointer)
!109 = !DISubprogram(name: "setf", linkageName: "_ZNSt3__18ios_base4setfB6v15006Ej", scope: !16, file: !15, line: 296, type: !106, scopeLine: 296, flags: DIFlagPublic | DIFlagPrototyped, spFlags: 0)
!110 = !DISubprogram(name: "setf", linkageName: "_ZNSt3__18ios_base4setfB6v15006Ejj", scope: !16, file: !15, line: 297, type: !111, scopeLine: 297, flags: DIFlagPublic | DIFlagPrototyped, spFlags: 0)
!111 = !DISubroutineType(types: !112)
!112 = !{!28, !108, !28, !28}
!113 = !DISubprogram(name: "unsetf", linkageName: "_ZNSt3__18ios_base6unsetfB6v15006Ej", scope: !16, file: !15, line: 298, type: !114, scopeLine: 298, flags: DIFlagPublic | DIFlagPrototyped, spFlags: 0)
!114 = !DISubroutineType(types: !115)
!115 = !{null, !108, !28}
!116 = !DISubprogram(name: "precision", linkageName: "_ZNKSt3__18ios_base9precisionB6v15006Ev", scope: !16, file: !15, line: 300, type: !117, scopeLine: 300, flags: DIFlagPublic | DIFlagPrototyped, spFlags: 0)
!117 = !DISubroutineType(types: !118)
!118 = !{!63, !103}
!119 = !DISubprogram(name: "precision", linkageName: "_ZNSt3__18ios_base9precisionB6v15006El", scope: !16, file: !15, line: 301, type: !120, scopeLine: 301, flags: DIFlagPublic | DIFlagPrototyped, spFlags: 0)
!120 = !DISubroutineType(types: !121)
!121 = !{!63, !108, !63}
!122 = !DISubprogram(name: "width", linkageName: "_ZNKSt3__18ios_base5widthB6v15006Ev", scope: !16, file: !15, line: 302, type: !117, scopeLine: 302, flags: DIFlagPublic | DIFlagPrototyped, spFlags: 0)
!123 = !DISubprogram(name: "width", linkageName: "_ZNSt3__18ios_base5widthB6v15006El", scope: !16, file: !15, line: 303, type: !120, scopeLine: 303, flags: DIFlagPublic | DIFlagPrototyped, spFlags: 0)
!124 = !DISubprogram(name: "imbue", linkageName: "_ZNSt3__18ios_base5imbueERKNS_6localeE", scope: !16, file: !15, line: 306, type: !125, scopeLine: 306, flags: DIFlagPublic | DIFlagPrototyped, spFlags: 0)
!125 = !DISubroutineType(types: !126)
!126 = !{!127, !108, !150}
!127 = distinct !DICompositeType(tag: DW_TAG_class_type, name: "locale", scope: !17, file: !128, line: 122, size: 64, flags: DIFlagTypePassByReference | DIFlagNonTrivial, elements: !129, identifier: "_ZTSNSt3__16localeE")
!128 = !DIFile(filename: "/Library/Developer/CommandLineTools/SDKs/MacOSX.sdk/usr/include/c++/v1/__locale", directory: "")
!129 = !{!130, !133, !134, !135, !136, !137, !138, !139, !140, !143, !147, !152, !158, !945, !948, !951, !954, !955, !958, !962, !965, !966, !969, !972, !1017, !1021, !1064}
!130 = !DIDerivedType(tag: DW_TAG_member, name: "none", scope: !127, file: !128, line: 132, baseType: !131, flags: DIFlagPublic | DIFlagStaticMember, extraData: i32 0)
!131 = !DIDerivedType(tag: DW_TAG_const_type, baseType: !132)
!132 = !DIDerivedType(tag: DW_TAG_typedef, name: "category", scope: !127, file: !128, line: 129, baseType: !25)
!133 = !DIDerivedType(tag: DW_TAG_member, name: "collate", scope: !127, file: !128, line: 133, baseType: !131, flags: DIFlagPublic | DIFlagStaticMember, extraData: i32 1)
!134 = !DIDerivedType(tag: DW_TAG_member, name: "ctype", scope: !127, file: !128, line: 134, baseType: !131, flags: DIFlagPublic | DIFlagStaticMember, extraData: i32 2)
!135 = !DIDerivedType(tag: DW_TAG_member, name: "monetary", scope: !127, file: !128, line: 135, baseType: !131, flags: DIFlagPublic | DIFlagStaticMember, extraData: i32 8)
!136 = !DIDerivedType(tag: DW_TAG_member, name: "numeric", scope: !127, file: !128, line: 136, baseType: !131, flags: DIFlagPublic | DIFlagStaticMember, extraData: i32 16)
!137 = !DIDerivedType(tag: DW_TAG_member, name: "time", scope: !127, file: !128, line: 137, baseType: !131, flags: DIFlagPublic | DIFlagStaticMember, extraData: i32 32)
!138 = !DIDerivedType(tag: DW_TAG_member, name: "messages", scope: !127, file: !128, line: 138, baseType: !131, flags: DIFlagPublic | DIFlagStaticMember, extraData: i32 4)
!139 = !DIDerivedType(tag: DW_TAG_member, name: "all", scope: !127, file: !128, line: 139, baseType: !131, flags: DIFlagPublic | DIFlagStaticMember, extraData: i32 63)
!140 = !DIDerivedType(tag: DW_TAG_member, name: "__locale_", scope: !127, file: !128, line: 175, baseType: !141, size: 64)
!141 = !DIDerivedType(tag: DW_TAG_pointer_type, baseType: !142, size: 64)
!142 = !DICompositeType(tag: DW_TAG_class_type, name: "__imp", scope: !127, file: !128, line: 174, flags: DIFlagFwdDecl | DIFlagNonTrivial, identifier: "_ZTSNSt3__16locale5__impE")
!143 = !DISubprogram(name: "locale", scope: !127, file: !128, line: 142, type: !144, scopeLine: 142, flags: DIFlagPublic | DIFlagPrototyped, spFlags: 0)
!144 = !DISubroutineType(types: !145)
!145 = !{null, !146}
!146 = !DIDerivedType(tag: DW_TAG_pointer_type, baseType: !127, size: 64, flags: DIFlagArtificial | DIFlagObjectPointer)
!147 = !DISubprogram(name: "locale", scope: !127, file: !128, line: 143, type: !148, scopeLine: 143, flags: DIFlagPublic | DIFlagPrototyped, spFlags: 0)
!148 = !DISubroutineType(types: !149)
!149 = !{null, !146, !150}
!150 = !DIDerivedType(tag: DW_TAG_reference_type, baseType: !151, size: 64)
!151 = !DIDerivedType(tag: DW_TAG_const_type, baseType: !127)
!152 = !DISubprogram(name: "locale", scope: !127, file: !128, line: 144, type: !153, scopeLine: 144, flags: DIFlagPublic | DIFlagExplicit | DIFlagPrototyped, spFlags: 0)
!153 = !DISubroutineType(types: !154)
!154 = !{null, !146, !155}
!155 = !DIDerivedType(tag: DW_TAG_pointer_type, baseType: !156, size: 64)
!156 = !DIDerivedType(tag: DW_TAG_const_type, baseType: !157)
!157 = !DIBasicType(name: "char", size: 8, encoding: DW_ATE_signed_char)
!158 = !DISubprogram(name: "locale", scope: !127, file: !128, line: 145, type: !159, scopeLine: 145, flags: DIFlagPublic | DIFlagExplicit | DIFlagPrototyped, spFlags: 0)
!159 = !DISubroutineType(types: !160)
!160 = !{null, !146, !161}
!161 = !DIDerivedType(tag: DW_TAG_reference_type, baseType: !162, size: 64)
!162 = !DIDerivedType(tag: DW_TAG_const_type, baseType: !163)
!163 = !DIDerivedType(tag: DW_TAG_typedef, name: "string", scope: !17, file: !164, line: 249, baseType: !165)
!164 = !DIFile(filename: "/Library/Developer/CommandLineTools/SDKs/MacOSX.sdk/usr/include/c++/v1/iosfwd", directory: "")
!165 = distinct !DICompositeType(tag: DW_TAG_class_type, name: "basic_string<char, std::__1::char_traits<char>, std::__1::allocator<char> >", scope: !17, file: !166, line: 655, size: 192, flags: DIFlagTypePassByReference | DIFlagNonTrivial, elements: !167, templateParams: !943, identifier: "_ZTSNSt3__112basic_stringIcNS_11char_traitsIcEENS_9allocatorIcEEEE")
!166 = !DIFile(filename: "/Library/Developer/CommandLineTools/SDKs/MacOSX.sdk/usr/include/c++/v1/string", directory: "")
!167 = !{!168, !240, !371, !372, !380, !383, !386, !391, !394, !397, !400, !403, !406, !409, !410, !599, !603, !608, !611, !617, !622, !623, !624, !629, !634, !635, !636, !637, !638, !639, !640, !643, !644, !645, !646, !649, !652, !653, !654, !655, !656, !657, !660, !665, !670, !671, !672, !673, !674, !675, !676, !679, !682, !683, !686, !687, !690, !691, !694, !697, !698, !699, !700, !701, !702, !703, !704, !707, !710, !713, !716, !719, !722, !725, !728, !731, !734, !737, !740, !743, !746, !749, !752, !755, !758, !761, !765, !768, !771, !774, !775, !778, !781, !784, !787, !790, !791, !792, !793, !794, !795, !796, !797, !798, !799, !800, !801, !802, !803, !804, !805, !806, !807, !808, !809, !810, !813, !816, !819, !822, !825, !828, !829, !830, !831, !832, !835, !836, !837, !840, !844, !847, !848, !849, !850, !851, !852, !853, !854, !857, !860, !865, !866, !867, !868, !869, !870, !873, !876, !879, !880, !881, !884, !887, !888, !891, !892, !910, !925, !926, !929, !932, !933, !934, !935, !938, !939, !942}
!168 = !DIDerivedType(tag: DW_TAG_member, name: "__endian_factor", scope: !165, file: !166, line: 724, baseType: !169, flags: DIFlagStaticMember, extraData: i64 1)
!169 = !DIDerivedType(tag: DW_TAG_const_type, baseType: !170)
!170 = !DIDerivedType(tag: DW_TAG_typedef, name: "size_type", scope: !165, file: !166, line: 664, baseType: !171)
!171 = !DIDerivedType(tag: DW_TAG_typedef, name: "size_type", scope: !173, file: !172, line: 238, baseType: !239)
!172 = !DIFile(filename: "/Library/Developer/CommandLineTools/SDKs/MacOSX.sdk/usr/include/c++/v1/__memory/allocator_traits.h", directory: "")
!173 = distinct !DICompositeType(tag: DW_TAG_structure_type, name: "allocator_traits<std::__1::allocator<char> >", scope: !17, file: !172, line: 229, size: 8, flags: DIFlagTypePassByValue, elements: !174, templateParams: !237, identifier: "_ZTSNSt3__116allocator_traitsINS_9allocatorIcEEEE")
!174 = !{!175, !234}
!175 = !DISubprogram(name: "allocate", linkageName: "_ZNSt3__116allocator_traitsINS_9allocatorIcEEE8allocateB6v15006ERS2_m", scope: !173, file: !172, line: 261, type: !176, scopeLine: 261, flags: DIFlagPrototyped | DIFlagStaticMember, spFlags: 0)
!176 = !DISubroutineType(types: !177)
!177 = !{!178, !232, !171}
!178 = !DIDerivedType(tag: DW_TAG_typedef, name: "pointer", scope: !173, file: !172, line: 233, baseType: !179)
!179 = !DIDerivedType(tag: DW_TAG_typedef, name: "pointer", scope: !181, file: !180, line: 134, baseType: !201)
!180 = !DIFile(filename: "/Library/Developer/CommandLineTools/SDKs/MacOSX.sdk/usr/include/c++/v1/__memory/allocator.h", directory: "")
!181 = distinct !DICompositeType(tag: DW_TAG_class_type, name: "allocator<char>", scope: !17, file: !180, line: 87, size: 8, flags: DIFlagTypePassByValue | DIFlagNonTrivial, elements: !182, templateParams: !230, identifier: "_ZTSNSt3__19allocatorIcEE")
!182 = !{!183, !194, !198, !202, !205, !212, !218, !223, !227}
!183 = !DIDerivedType(tag: DW_TAG_inheritance, scope: !181, baseType: !184, extraData: i32 0)
!184 = distinct !DICompositeType(tag: DW_TAG_structure_type, name: "__non_trivial_if<true, std::__1::allocator<char> >", scope: !17, file: !180, line: 76, size: 8, flags: DIFlagTypePassByValue | DIFlagNonTrivial, elements: !185, templateParams: !190, identifier: "_ZTSNSt3__116__non_trivial_ifILb1ENS_9allocatorIcEEEE")
!185 = !{!186}
!186 = !DISubprogram(name: "__non_trivial_if", scope: !184, file: !180, line: 78, type: !187, scopeLine: 78, flags: DIFlagPrototyped, spFlags: 0)
!187 = !DISubroutineType(types: !188)
!188 = !{null, !189}
!189 = !DIDerivedType(tag: DW_TAG_pointer_type, baseType: !184, size: 64, flags: DIFlagArtificial | DIFlagObjectPointer)
!190 = !{!191, !193}
!191 = !DITemplateValueParameter(name: "_Cond", type: !192, value: i8 1)
!192 = !DIBasicType(name: "bool", size: 8, encoding: DW_ATE_boolean)
!193 = !DITemplateTypeParameter(name: "_Unique", type: !181)
!194 = !DISubprogram(name: "allocator", scope: !181, file: !180, line: 99, type: !195, scopeLine: 99, flags: DIFlagPublic | DIFlagPrototyped, spFlags: 0)
!195 = !DISubroutineType(types: !196)
!196 = !{null, !197}
!197 = !DIDerivedType(tag: DW_TAG_pointer_type, baseType: !181, size: 64, flags: DIFlagArtificial | DIFlagObjectPointer)
!198 = !DISubprogram(name: "allocate", linkageName: "_ZNSt3__19allocatorIcE8allocateB6v15006Em", scope: !181, file: !180, line: 106, type: !199, scopeLine: 106, flags: DIFlagPublic | DIFlagPrototyped, spFlags: 0)
!199 = !DISubroutineType(types: !200)
!200 = !{!201, !197, !83}
!201 = !DIDerivedType(tag: DW_TAG_pointer_type, baseType: !157, size: 64)
!202 = !DISubprogram(name: "deallocate", linkageName: "_ZNSt3__19allocatorIcE10deallocateB6v15006EPcm", scope: !181, file: !180, line: 124, type: !203, scopeLine: 124, flags: DIFlagPublic | DIFlagPrototyped, spFlags: 0)
!203 = !DISubroutineType(types: !204)
!204 = !{null, !197, !201, !83}
!205 = !DISubprogram(name: "address", linkageName: "_ZNKSt3__19allocatorIcE7addressB6v15006ERc", scope: !181, file: !180, line: 145, type: !206, scopeLine: 145, flags: DIFlagPublic | DIFlagPrototyped, spFlags: 0)
!206 = !DISubroutineType(types: !207)
!207 = !{!179, !208, !210}
!208 = !DIDerivedType(tag: DW_TAG_pointer_type, baseType: !209, size: 64, flags: DIFlagArtificial | DIFlagObjectPointer)
!209 = !DIDerivedType(tag: DW_TAG_const_type, baseType: !181)
!210 = !DIDerivedType(tag: DW_TAG_typedef, name: "reference", scope: !181, file: !180, line: 136, baseType: !211)
!211 = !DIDerivedType(tag: DW_TAG_reference_type, baseType: !157, size: 64)
!212 = !DISubprogram(name: "address", linkageName: "_ZNKSt3__19allocatorIcE7addressB6v15006ERKc", scope: !181, file: !180, line: 149, type: !213, scopeLine: 149, flags: DIFlagPublic | DIFlagPrototyped, spFlags: 0)
!213 = !DISubroutineType(types: !214)
!214 = !{!215, !208, !216}
!215 = !DIDerivedType(tag: DW_TAG_typedef, name: "const_pointer", scope: !181, file: !180, line: 135, baseType: !155)
!216 = !DIDerivedType(tag: DW_TAG_typedef, name: "const_reference", scope: !181, file: !180, line: 137, baseType: !217)
!217 = !DIDerivedType(tag: DW_TAG_reference_type, baseType: !156, size: 64)
!218 = !DISubprogram(name: "allocate", linkageName: "_ZNSt3__19allocatorIcE8allocateB6v15006EmPKv", scope: !181, file: !180, line: 154, type: !219, scopeLine: 154, flags: DIFlagPublic | DIFlagPrototyped, spFlags: 0)
!219 = !DISubroutineType(types: !220)
!220 = !{!201, !197, !83, !221}
!221 = !DIDerivedType(tag: DW_TAG_pointer_type, baseType: !222, size: 64)
!222 = !DIDerivedType(tag: DW_TAG_const_type, baseType: null)
!223 = !DISubprogram(name: "max_size", linkageName: "_ZNKSt3__19allocatorIcE8max_sizeB6v15006Ev", scope: !181, file: !180, line: 158, type: !224, scopeLine: 158, flags: DIFlagPublic | DIFlagPrototyped, spFlags: 0)
!224 = !DISubroutineType(types: !225)
!225 = !{!226, !208}
!226 = !DIDerivedType(tag: DW_TAG_typedef, name: "size_type", file: !180, line: 92, baseType: !83)
!227 = !DISubprogram(name: "destroy", linkageName: "_ZNSt3__19allocatorIcE7destroyB6v15006EPc", scope: !181, file: !180, line: 169, type: !228, scopeLine: 169, flags: DIFlagPublic | DIFlagPrototyped, spFlags: 0)
!228 = !DISubroutineType(types: !229)
!229 = !{null, !197, !179}
!230 = !{!231}
!231 = !DITemplateTypeParameter(name: "_Tp", type: !157)
!232 = !DIDerivedType(tag: DW_TAG_reference_type, baseType: !233, size: 64)
!233 = !DIDerivedType(tag: DW_TAG_typedef, name: "allocator_type", scope: !173, file: !172, line: 231, baseType: !181)
!234 = !DISubprogram(name: "deallocate", linkageName: "_ZNSt3__116allocator_traitsINS_9allocatorIcEEE10deallocateB6v15006ERS2_Pcm", scope: !173, file: !172, line: 281, type: !235, scopeLine: 281, flags: DIFlagPrototyped | DIFlagStaticMember, spFlags: 0)
!235 = !DISubroutineType(types: !236)
!236 = !{null, !232, !178, !171}
!237 = !{!238}
!238 = !DITemplateTypeParameter(name: "_Alloc", type: !181)
!239 = !DIDerivedType(tag: DW_TAG_typedef, name: "size_type", scope: !181, file: !180, line: 92, baseType: !83)
!240 = !DIDerivedType(tag: DW_TAG_member, name: "__r_", scope: !165, file: !166, line: 785, baseType: !241, size: 192)
!241 = distinct !DICompositeType(tag: DW_TAG_class_type, name: "__compressed_pair<std::__1::basic_string<char, std::__1::char_traits<char>, std::__1::allocator<char> >::__rep, std::__1::allocator<char> >", scope: !17, file: !242, line: 83, size: 192, flags: DIFlagTypePassByValue | DIFlagNonTrivial, elements: !243, templateParams: !368, identifier: "_ZTSNSt3__117__compressed_pairINS_12basic_stringIcNS_11char_traitsIcEENS_9allocatorIcEEE5__repES5_EE")
!242 = !DIFile(filename: "/Library/Developer/CommandLineTools/SDKs/MacOSX.sdk/usr/include/c++/v1/__memory/compressed_pair.h", directory: "")
!243 = !{!244, !310, !340, !344, !349, !352, !355, !360, !364}
!244 = !DIDerivedType(tag: DW_TAG_inheritance, scope: !241, baseType: !245, extraData: i32 0)
!245 = distinct !DICompositeType(tag: DW_TAG_structure_type, name: "__compressed_pair_elem<std::__1::basic_string<char, std::__1::char_traits<char>, std::__1::allocator<char> >::__rep, 0, false>", scope: !17, file: !242, line: 30, size: 192, flags: DIFlagTypePassByValue | DIFlagNonTrivial, elements: !246, templateParams: !306, identifier: "_ZTSNSt3__122__compressed_pair_elemINS_12basic_stringIcNS_11char_traitsIcEENS_9allocatorIcEEE5__repELi0ELb0EEE")
!246 = !{!247, !283, !289, !293, !298}
!247 = !DIDerivedType(tag: DW_TAG_member, name: "__value_", scope: !245, file: !242, line: 53, baseType: !248, size: 192, flags: DIFlagPrivate)
!248 = distinct !DICompositeType(tag: DW_TAG_structure_type, name: "__rep", scope: !165, file: !166, line: 775, size: 192, flags: DIFlagTypePassByValue, elements: !249, identifier: "_ZTSNSt3__112basic_stringIcNS_11char_traitsIcEENS_9allocatorIcEEE5__repE")
!249 = !{!250}
!250 = !DIDerivedType(tag: DW_TAG_member, scope: !248, file: !166, line: 777, baseType: !251, size: 192)
!251 = distinct !DICompositeType(tag: DW_TAG_union_type, scope: !248, file: !166, line: 777, size: 192, flags: DIFlagExportSymbols | DIFlagTypePassByValue, elements: !252, identifier: "_ZTSNSt3__112basic_stringIcNS_11char_traitsIcEENS_9allocatorIcEEE5__repUt_E")
!252 = !{!253, !261, !276}
!253 = !DIDerivedType(tag: DW_TAG_member, name: "__l", scope: !251, file: !166, line: 779, baseType: !254, size: 192)
!254 = distinct !DICompositeType(tag: DW_TAG_structure_type, name: "__long", scope: !165, file: !166, line: 689, size: 192, flags: DIFlagTypePassByValue, elements: !255, identifier: "_ZTSNSt3__112basic_stringIcNS_11char_traitsIcEENS_9allocatorIcEEE6__longE")
!255 = !{!256, !258, !259, !260}
!256 = !DIDerivedType(tag: DW_TAG_member, name: "__data_", scope: !254, file: !166, line: 691, baseType: !257, size: 64)
!257 = !DIDerivedType(tag: DW_TAG_typedef, name: "pointer", scope: !165, file: !166, line: 668, baseType: !178)
!258 = !DIDerivedType(tag: DW_TAG_member, name: "__size_", scope: !254, file: !166, line: 692, baseType: !170, size: 64, offset: 64)
!259 = !DIDerivedType(tag: DW_TAG_member, name: "__cap_", scope: !254, file: !166, line: 693, baseType: !170, size: 63, offset: 128, flags: DIFlagBitField, extraData: i64 128)
!260 = !DIDerivedType(tag: DW_TAG_member, name: "__is_long_", scope: !254, file: !166, line: 694, baseType: !170, size: 1, offset: 191, flags: DIFlagBitField, extraData: i64 128)
!261 = !DIDerivedType(tag: DW_TAG_member, name: "__s", scope: !251, file: !166, line: 780, baseType: !262, size: 192)
!262 = distinct !DICompositeType(tag: DW_TAG_structure_type, name: "__short", scope: !165, file: !166, line: 700, size: 192, flags: DIFlagTypePassByValue, elements: !263, identifier: "_ZTSNSt3__112basic_stringIcNS_11char_traitsIcEENS_9allocatorIcEEE7__shortE")
!263 = !{!264, !269, !274, !275}
!264 = !DIDerivedType(tag: DW_TAG_member, name: "__data_", scope: !262, file: !166, line: 702, baseType: !265, size: 184)
!265 = !DICompositeType(tag: DW_TAG_array_type, baseType: !266, size: 184, elements: !267)
!266 = !DIDerivedType(tag: DW_TAG_typedef, name: "value_type", scope: !165, file: !166, line: 661, baseType: !157)
!267 = !{!268}
!268 = !DISubrange(count: 23)
!269 = !DIDerivedType(tag: DW_TAG_member, name: "__padding_", scope: !262, file: !166, line: 703, baseType: !270, offset: 184)
!270 = !DICompositeType(tag: DW_TAG_array_type, baseType: !271, elements: !272)
!271 = !DIBasicType(name: "unsigned char", size: 8, encoding: DW_ATE_unsigned_char)
!272 = !{!273}
!273 = !DISubrange(count: 0)
!274 = !DIDerivedType(tag: DW_TAG_member, name: "__size_", scope: !262, file: !166, line: 704, baseType: !271, size: 7, offset: 184, flags: DIFlagBitField, extraData: i64 184)
!275 = !DIDerivedType(tag: DW_TAG_member, name: "__is_long_", scope: !262, file: !166, line: 705, baseType: !271, size: 1, offset: 191, flags: DIFlagBitField, extraData: i64 184)
!276 = !DIDerivedType(tag: DW_TAG_member, name: "__r", scope: !251, file: !166, line: 781, baseType: !277, size: 192)
!277 = distinct !DICompositeType(tag: DW_TAG_structure_type, name: "__raw", scope: !165, file: !166, line: 770, size: 192, flags: DIFlagTypePassByValue, elements: !278, identifier: "_ZTSNSt3__112basic_stringIcNS_11char_traitsIcEENS_9allocatorIcEEE5__rawE")
!278 = !{!279}
!279 = !DIDerivedType(tag: DW_TAG_member, name: "__words", scope: !277, file: !166, line: 772, baseType: !280, size: 192)
!280 = !DICompositeType(tag: DW_TAG_array_type, baseType: !170, size: 192, elements: !281)
!281 = !{!282}
!282 = !DISubrange(count: 3)
!283 = !DISubprogram(name: "__compressed_pair_elem", scope: !245, file: !242, line: 35, type: !284, scopeLine: 35, flags: DIFlagExplicit | DIFlagPrototyped, spFlags: 0)
!284 = !DISubroutineType(types: !285)
!285 = !{null, !286, !287}
!286 = !DIDerivedType(tag: DW_TAG_pointer_type, baseType: !245, size: 64, flags: DIFlagArtificial | DIFlagObjectPointer)
!287 = distinct !DICompositeType(tag: DW_TAG_structure_type, name: "__default_init_tag", scope: !17, file: !242, line: 26, size: 8, flags: DIFlagTypePassByValue, elements: !288, identifier: "_ZTSNSt3__118__default_init_tagE")
!288 = !{}
!289 = !DISubprogram(name: "__compressed_pair_elem", scope: !245, file: !242, line: 36, type: !290, scopeLine: 36, flags: DIFlagExplicit | DIFlagPrototyped, spFlags: 0)
!290 = !DISubroutineType(types: !291)
!291 = !{null, !286, !292}
!292 = distinct !DICompositeType(tag: DW_TAG_structure_type, name: "__value_init_tag", scope: !17, file: !242, line: 27, size: 8, flags: DIFlagTypePassByValue, elements: !288, identifier: "_ZTSNSt3__116__value_init_tagE")
!293 = !DISubprogram(name: "__get", linkageName: "_ZNSt3__122__compressed_pair_elemINS_12basic_stringIcNS_11char_traitsIcEENS_9allocatorIcEEE5__repELi0ELb0EE5__getB6v15006Ev", scope: !245, file: !242, line: 49, type: !294, scopeLine: 49, flags: DIFlagPrototyped, spFlags: 0)
!294 = !DISubroutineType(types: !295)
!295 = !{!296, !286}
!296 = !DIDerivedType(tag: DW_TAG_typedef, name: "reference", scope: !245, file: !242, line: 32, baseType: !297)
!297 = !DIDerivedType(tag: DW_TAG_reference_type, baseType: !248, size: 64)
!298 = !DISubprogram(name: "__get", linkageName: "_ZNKSt3__122__compressed_pair_elemINS_12basic_stringIcNS_11char_traitsIcEENS_9allocatorIcEEE5__repELi0ELb0EE5__getB6v15006Ev", scope: !245, file: !242, line: 50, type: !299, scopeLine: 50, flags: DIFlagPrototyped, spFlags: 0)
!299 = !DISubroutineType(types: !300)
!300 = !{!301, !304}
!301 = !DIDerivedType(tag: DW_TAG_typedef, name: "const_reference", scope: !245, file: !242, line: 33, baseType: !302)
!302 = !DIDerivedType(tag: DW_TAG_reference_type, baseType: !303, size: 64)
!303 = !DIDerivedType(tag: DW_TAG_const_type, baseType: !248)
!304 = !DIDerivedType(tag: DW_TAG_pointer_type, baseType: !305, size: 64, flags: DIFlagArtificial | DIFlagObjectPointer)
!305 = !DIDerivedType(tag: DW_TAG_const_type, baseType: !245)
!306 = !{!307, !308, !309}
!307 = !DITemplateTypeParameter(name: "_Tp", type: !248)
!308 = !DITemplateValueParameter(name: "_Idx", type: !25, value: i32 0)
!309 = !DITemplateValueParameter(name: "_CanBeEmptyBase", type: !192, value: i8 0)
!310 = !DIDerivedType(tag: DW_TAG_inheritance, scope: !241, baseType: !311, extraData: i32 0)
!311 = distinct !DICompositeType(tag: DW_TAG_structure_type, name: "__compressed_pair_elem<std::__1::allocator<char>, 1, true>", scope: !17, file: !242, line: 57, size: 8, flags: DIFlagTypePassByValue | DIFlagNonTrivial, elements: !312, templateParams: !336, identifier: "_ZTSNSt3__122__compressed_pair_elemINS_9allocatorIcEELi1ELb1EEE")
!312 = !{!313, !314, !318, !321, !324, !329}
!313 = !DIDerivedType(tag: DW_TAG_inheritance, scope: !311, baseType: !181, flags: DIFlagPrivate, extraData: i32 0)
!314 = !DISubprogram(name: "__compressed_pair_elem", scope: !311, file: !242, line: 63, type: !315, scopeLine: 63, flags: DIFlagExplicit | DIFlagPrototyped, spFlags: 0)
!315 = !DISubroutineType(types: !316)
!316 = !{null, !317}
!317 = !DIDerivedType(tag: DW_TAG_pointer_type, baseType: !311, size: 64, flags: DIFlagArtificial | DIFlagObjectPointer)
!318 = !DISubprogram(name: "__compressed_pair_elem", scope: !311, file: !242, line: 64, type: !319, scopeLine: 64, flags: DIFlagExplicit | DIFlagPrototyped, spFlags: 0)
!319 = !DISubroutineType(types: !320)
!320 = !{null, !317, !287}
!321 = !DISubprogram(name: "__compressed_pair_elem", scope: !311, file: !242, line: 65, type: !322, scopeLine: 65, flags: DIFlagExplicit | DIFlagPrototyped, spFlags: 0)
!322 = !DISubroutineType(types: !323)
!323 = !{null, !317, !292}
!324 = !DISubprogram(name: "__get", linkageName: "_ZNSt3__122__compressed_pair_elemINS_9allocatorIcEELi1ELb1EE5__getB6v15006Ev", scope: !311, file: !242, line: 78, type: !325, scopeLine: 78, flags: DIFlagPrototyped, spFlags: 0)
!325 = !DISubroutineType(types: !326)
!326 = !{!327, !317}
!327 = !DIDerivedType(tag: DW_TAG_typedef, name: "reference", scope: !311, file: !242, line: 59, baseType: !328)
!328 = !DIDerivedType(tag: DW_TAG_reference_type, baseType: !181, size: 64)
!329 = !DISubprogram(name: "__get", linkageName: "_ZNKSt3__122__compressed_pair_elemINS_9allocatorIcEELi1ELb1EE5__getB6v15006Ev", scope: !311, file: !242, line: 79, type: !330, scopeLine: 79, flags: DIFlagPrototyped, spFlags: 0)
!330 = !DISubroutineType(types: !331)
!331 = !{!332, !334}
!332 = !DIDerivedType(tag: DW_TAG_typedef, name: "const_reference", scope: !311, file: !242, line: 60, baseType: !333)
!333 = !DIDerivedType(tag: DW_TAG_reference_type, baseType: !209, size: 64)
!334 = !DIDerivedType(tag: DW_TAG_pointer_type, baseType: !335, size: 64, flags: DIFlagArtificial | DIFlagObjectPointer)
!335 = !DIDerivedType(tag: DW_TAG_const_type, baseType: !311)
!336 = !{!337, !338, !339}
!337 = !DITemplateTypeParameter(name: "_Tp", type: !181)
!338 = !DITemplateValueParameter(name: "_Idx", type: !25, value: i32 1)
!339 = !DITemplateValueParameter(name: "_CanBeEmptyBase", type: !192, value: i8 1)
!340 = !DISubprogram(name: "first", linkageName: "_ZNSt3__117__compressed_pairINS_12basic_stringIcNS_11char_traitsIcEENS_9allocatorIcEEE5__repES5_E5firstB6v15006Ev", scope: !241, file: !242, line: 120, type: !341, scopeLine: 120, flags: DIFlagPublic | DIFlagPrototyped, spFlags: 0)
!341 = !DISubroutineType(types: !342)
!342 = !{!296, !343}
!343 = !DIDerivedType(tag: DW_TAG_pointer_type, baseType: !241, size: 64, flags: DIFlagArtificial | DIFlagObjectPointer)
!344 = !DISubprogram(name: "first", linkageName: "_ZNKSt3__117__compressed_pairINS_12basic_stringIcNS_11char_traitsIcEENS_9allocatorIcEEE5__repES5_E5firstB6v15006Ev", scope: !241, file: !242, line: 125, type: !345, scopeLine: 125, flags: DIFlagPublic | DIFlagPrototyped, spFlags: 0)
!345 = !DISubroutineType(types: !346)
!346 = !{!301, !347}
!347 = !DIDerivedType(tag: DW_TAG_pointer_type, baseType: !348, size: 64, flags: DIFlagArtificial | DIFlagObjectPointer)
!348 = !DIDerivedType(tag: DW_TAG_const_type, baseType: !241)
!349 = !DISubprogram(name: "second", linkageName: "_ZNSt3__117__compressed_pairINS_12basic_stringIcNS_11char_traitsIcEENS_9allocatorIcEEE5__repES5_E6secondB6v15006Ev", scope: !241, file: !242, line: 130, type: !350, scopeLine: 130, flags: DIFlagPublic | DIFlagPrototyped, spFlags: 0)
!350 = !DISubroutineType(types: !351)
!351 = !{!327, !343}
!352 = !DISubprogram(name: "second", linkageName: "_ZNKSt3__117__compressed_pairINS_12basic_stringIcNS_11char_traitsIcEENS_9allocatorIcEEE5__repES5_E6secondB6v15006Ev", scope: !241, file: !242, line: 135, type: !353, scopeLine: 135, flags: DIFlagPublic | DIFlagPrototyped, spFlags: 0)
!353 = !DISubroutineType(types: !354)
!354 = !{!332, !347}
!355 = !DISubprogram(name: "__get_first_base", linkageName: "_ZNSt3__117__compressed_pairINS_12basic_stringIcNS_11char_traitsIcEENS_9allocatorIcEEE5__repES5_E16__get_first_baseB6v15006EPS8_", scope: !241, file: !242, line: 140, type: !356, scopeLine: 140, flags: DIFlagPublic | DIFlagPrototyped | DIFlagStaticMember, spFlags: 0)
!356 = !DISubroutineType(types: !357)
!357 = !{!358, !359}
!358 = !DIDerivedType(tag: DW_TAG_pointer_type, baseType: !245, size: 64)
!359 = !DIDerivedType(tag: DW_TAG_pointer_type, baseType: !241, size: 64)
!360 = !DISubprogram(name: "__get_second_base", linkageName: "_ZNSt3__117__compressed_pairINS_12basic_stringIcNS_11char_traitsIcEENS_9allocatorIcEEE5__repES5_E17__get_second_baseB6v15006EPS8_", scope: !241, file: !242, line: 144, type: !361, scopeLine: 144, flags: DIFlagPublic | DIFlagPrototyped | DIFlagStaticMember, spFlags: 0)
!361 = !DISubroutineType(types: !362)
!362 = !{!363, !359}
!363 = !DIDerivedType(tag: DW_TAG_pointer_type, baseType: !311, size: 64)
!364 = !DISubprogram(name: "swap", linkageName: "_ZNSt3__117__compressed_pairINS_12basic_stringIcNS_11char_traitsIcEENS_9allocatorIcEEE5__repES5_E4swapB6v15006ERS8_", scope: !241, file: !242, line: 149, type: !365, scopeLine: 149, flags: DIFlagPublic | DIFlagPrototyped, spFlags: 0)
!365 = !DISubroutineType(types: !366)
!366 = !{null, !343, !367}
!367 = !DIDerivedType(tag: DW_TAG_reference_type, baseType: !241, size: 64)
!368 = !{!369, !370}
!369 = !DITemplateTypeParameter(name: "_T1", type: !248)
!370 = !DITemplateTypeParameter(name: "_T2", type: !181)
!371 = !DIDerivedType(tag: DW_TAG_member, name: "npos", scope: !165, file: !166, line: 811, baseType: !169, flags: DIFlagPublic | DIFlagStaticMember, extraData: i64 -1)
!372 = !DISubprogram(name: "basic_string", scope: !165, file: !166, line: 791, type: !373, scopeLine: 791, flags: DIFlagExplicit | DIFlagPrototyped, spFlags: 0)
!373 = !DISubroutineType(types: !374)
!374 = !{null, !375, !376, !170, !377}
!375 = !DIDerivedType(tag: DW_TAG_pointer_type, baseType: !165, size: 64, flags: DIFlagArtificial | DIFlagObjectPointer)
!376 = distinct !DICompositeType(tag: DW_TAG_structure_type, name: "__uninitialized_size_tag", scope: !17, file: !166, line: 645, size: 8, flags: DIFlagTypePassByValue, elements: !288, identifier: "_ZTSNSt3__124__uninitialized_size_tagE")
!377 = !DIDerivedType(tag: DW_TAG_reference_type, baseType: !378, size: 64)
!378 = !DIDerivedType(tag: DW_TAG_const_type, baseType: !379)
!379 = !DIDerivedType(tag: DW_TAG_typedef, name: "allocator_type", scope: !165, file: !166, line: 662, baseType: !181)
!380 = !DISubprogram(name: "basic_string", scope: !165, file: !166, line: 813, type: !381, scopeLine: 813, flags: DIFlagPublic | DIFlagPrototyped, spFlags: 0)
!381 = !DISubroutineType(types: !382)
!382 = !{null, !375}
!383 = !DISubprogram(name: "basic_string", scope: !165, file: !166, line: 816, type: !384, scopeLine: 816, flags: DIFlagPublic | DIFlagExplicit | DIFlagPrototyped, spFlags: 0)
!384 = !DISubroutineType(types: !385)
!385 = !{null, !375, !377}
!386 = !DISubprogram(name: "basic_string", scope: !165, file: !166, line: 823, type: !387, scopeLine: 823, flags: DIFlagPublic | DIFlagPrototyped, spFlags: 0)
!387 = !DISubroutineType(types: !388)
!388 = !{null, !375, !389}
!389 = !DIDerivedType(tag: DW_TAG_reference_type, baseType: !390, size: 64)
!390 = !DIDerivedType(tag: DW_TAG_const_type, baseType: !165)
!391 = !DISubprogram(name: "basic_string", scope: !165, file: !166, line: 824, type: !392, scopeLine: 824, flags: DIFlagPublic | DIFlagPrototyped, spFlags: 0)
!392 = !DISubroutineType(types: !393)
!393 = !{null, !375, !389, !377}
!394 = !DISubprogram(name: "basic_string", scope: !165, file: !166, line: 856, type: !395, scopeLine: 856, flags: DIFlagPublic | DIFlagPrototyped, spFlags: 0)
!395 = !DISubroutineType(types: !396)
!396 = !{null, !375, !155, !170}
!397 = !DISubprogram(name: "basic_string", scope: !165, file: !166, line: 858, type: !398, scopeLine: 858, flags: DIFlagPublic | DIFlagPrototyped, spFlags: 0)
!398 = !DISubroutineType(types: !399)
!399 = !{null, !375, !155, !170, !333}
!400 = !DISubprogram(name: "basic_string", scope: !165, file: !166, line: 860, type: !401, scopeLine: 860, flags: DIFlagPublic | DIFlagPrototyped, spFlags: 0)
!401 = !DISubroutineType(types: !402)
!402 = !{null, !375, !170, !157}
!403 = !DISubprogram(name: "basic_string", scope: !165, file: !166, line: 867, type: !404, scopeLine: 867, flags: DIFlagPublic | DIFlagPrototyped, spFlags: 0)
!404 = !DISubroutineType(types: !405)
!405 = !{null, !375, !389, !170, !170, !333}
!406 = !DISubprogram(name: "basic_string", scope: !165, file: !166, line: 870, type: !407, scopeLine: 870, flags: DIFlagPublic | DIFlagPrototyped, spFlags: 0)
!407 = !DISubroutineType(types: !408)
!408 = !{null, !375, !389, !170, !333}
!409 = !DISubprogram(name: "~basic_string", scope: !165, file: !166, line: 900, type: !381, scopeLine: 900, flags: DIFlagPublic | DIFlagPrototyped, spFlags: 0)
!410 = !DISubprogram(name: "operator basic_string_view", linkageName: "_ZNKSt3__112basic_stringIcNS_11char_traitsIcEENS_9allocatorIcEEEcvNS_17basic_string_viewIcS2_EEB6v15006Ev", scope: !165, file: !166, line: 903, type: !411, scopeLine: 903, flags: DIFlagPublic | DIFlagPrototyped, spFlags: 0)
!411 = !DISubroutineType(types: !412)
!412 = !{!413, !598}
!413 = !DIDerivedType(tag: DW_TAG_typedef, name: "__self_view", scope: !165, file: !166, line: 659, baseType: !414)
!414 = distinct !DICompositeType(tag: DW_TAG_class_type, name: "basic_string_view<char, std::__1::char_traits<char> >", scope: !17, file: !415, line: 267, size: 128, flags: DIFlagTypePassByValue | DIFlagNonTrivial, elements: !416, templateParams: !546, identifier: "_ZTSNSt3__117basic_string_viewIcNS_11char_traitsIcEEEE")
!415 = !DIFile(filename: "/Library/Developer/CommandLineTools/SDKs/MacOSX.sdk/usr/include/c++/v1/string_view", directory: "")
!416 = !{!417, !420, !424, !425, !429, !434, !438, !441, !444, !450, !451, !452, !453, !459, !460, !461, !462, !465, !466, !467, !470, !474, !475, !478, !479, !482, !485, !486, !489, !493, !496, !499, !502, !505, !508, !511, !514, !517, !520, !523, !526, !527, !528, !529, !530, !531, !532, !533, !534, !535, !536, !537, !538, !539, !540, !541, !542, !543, !544, !545}
!417 = !DIDerivedType(tag: DW_TAG_member, name: "npos", scope: !414, file: !415, line: 282, baseType: !418, flags: DIFlagPublic | DIFlagStaticMember, extraData: i64 -1)
!418 = !DIDerivedType(tag: DW_TAG_const_type, baseType: !419)
!419 = !DIDerivedType(tag: DW_TAG_typedef, name: "size_type", file: !415, line: 280, baseType: !83)
!420 = !DIDerivedType(tag: DW_TAG_member, name: "__data", scope: !414, file: !415, line: 726, baseType: !421, size: 64)
!421 = !DIDerivedType(tag: DW_TAG_pointer_type, baseType: !422, size: 64)
!422 = !DIDerivedType(tag: DW_TAG_const_type, baseType: !423)
!423 = !DIDerivedType(tag: DW_TAG_typedef, name: "value_type", scope: !414, file: !415, line: 271, baseType: !157)
!424 = !DIDerivedType(tag: DW_TAG_member, name: "__size", scope: !414, file: !415, line: 727, baseType: !419, size: 64, offset: 64)
!425 = !DISubprogram(name: "basic_string_view", scope: !414, file: !415, line: 292, type: !426, scopeLine: 292, flags: DIFlagPublic | DIFlagPrototyped, spFlags: 0)
!426 = !DISubroutineType(types: !427)
!427 = !{null, !428}
!428 = !DIDerivedType(tag: DW_TAG_pointer_type, baseType: !414, size: 64, flags: DIFlagArtificial | DIFlagObjectPointer)
!429 = !DISubprogram(name: "basic_string_view", scope: !414, file: !415, line: 295, type: !430, scopeLine: 295, flags: DIFlagPublic | DIFlagPrototyped, spFlags: 0)
!430 = !DISubroutineType(types: !431)
!431 = !{null, !428, !432}
!432 = !DIDerivedType(tag: DW_TAG_reference_type, baseType: !433, size: 64)
!433 = !DIDerivedType(tag: DW_TAG_const_type, baseType: !414)
!434 = !DISubprogram(name: "operator=", linkageName: "_ZNSt3__117basic_string_viewIcNS_11char_traitsIcEEEaSB6v15006ERKS3_", scope: !414, file: !415, line: 298, type: !435, scopeLine: 298, flags: DIFlagPublic | DIFlagPrototyped, spFlags: 0)
!435 = !DISubroutineType(types: !436)
!436 = !{!437, !428, !432}
!437 = !DIDerivedType(tag: DW_TAG_reference_type, baseType: !414, size: 64)
!438 = !DISubprogram(name: "basic_string_view", scope: !414, file: !415, line: 301, type: !439, scopeLine: 301, flags: DIFlagPublic | DIFlagPrototyped, spFlags: 0)
!439 = !DISubroutineType(types: !440)
!440 = !{null, !428, !155, !419}
!441 = !DISubprogram(name: "basic_string_view", scope: !414, file: !415, line: 339, type: !442, scopeLine: 339, flags: DIFlagPublic | DIFlagPrototyped, spFlags: 0)
!442 = !DISubroutineType(types: !443)
!443 = !{null, !428, !155}
!444 = !DISubprogram(name: "begin", linkageName: "_ZNKSt3__117basic_string_viewIcNS_11char_traitsIcEEE5beginB6v15006Ev", scope: !414, file: !415, line: 348, type: !445, scopeLine: 348, flags: DIFlagPublic | DIFlagPrototyped, spFlags: 0)
!445 = !DISubroutineType(types: !446)
!446 = !{!447, !449}
!447 = !DIDerivedType(tag: DW_TAG_typedef, name: "const_iterator", scope: !414, file: !415, line: 276, baseType: !448)
!448 = !DIDerivedType(tag: DW_TAG_typedef, name: "const_pointer", scope: !414, file: !415, line: 273, baseType: !155)
!449 = !DIDerivedType(tag: DW_TAG_pointer_type, baseType: !433, size: 64, flags: DIFlagArtificial | DIFlagObjectPointer)
!450 = !DISubprogram(name: "end", linkageName: "_ZNKSt3__117basic_string_viewIcNS_11char_traitsIcEEE3endB6v15006Ev", scope: !414, file: !415, line: 351, type: !445, scopeLine: 351, flags: DIFlagPublic | DIFlagPrototyped, spFlags: 0)
!451 = !DISubprogram(name: "cbegin", linkageName: "_ZNKSt3__117basic_string_viewIcNS_11char_traitsIcEEE6cbeginB6v15006Ev", scope: !414, file: !415, line: 354, type: !445, scopeLine: 354, flags: DIFlagPublic | DIFlagPrototyped, spFlags: 0)
!452 = !DISubprogram(name: "cend", linkageName: "_ZNKSt3__117basic_string_viewIcNS_11char_traitsIcEEE4cendB6v15006Ev", scope: !414, file: !415, line: 357, type: !445, scopeLine: 357, flags: DIFlagPublic | DIFlagPrototyped, spFlags: 0)
!453 = !DISubprogram(name: "rbegin", linkageName: "_ZNKSt3__117basic_string_viewIcNS_11char_traitsIcEEE6rbeginB6v15006Ev", scope: !414, file: !415, line: 360, type: !454, scopeLine: 360, flags: DIFlagPublic | DIFlagPrototyped, spFlags: 0)
!454 = !DISubroutineType(types: !455)
!455 = !{!456, !449}
!456 = !DIDerivedType(tag: DW_TAG_typedef, name: "const_reverse_iterator", scope: !414, file: !415, line: 278, baseType: !457)
!457 = !DICompositeType(tag: DW_TAG_class_type, name: "reverse_iterator<const char *>", scope: !17, file: !458, line: 43, flags: DIFlagFwdDecl | DIFlagNonTrivial, identifier: "_ZTSNSt3__116reverse_iteratorIPKcEE")
!458 = !DIFile(filename: "/Library/Developer/CommandLineTools/SDKs/MacOSX.sdk/usr/include/c++/v1/__iterator/reverse_iterator.h", directory: "")
!459 = !DISubprogram(name: "rend", linkageName: "_ZNKSt3__117basic_string_viewIcNS_11char_traitsIcEEE4rendB6v15006Ev", scope: !414, file: !415, line: 363, type: !454, scopeLine: 363, flags: DIFlagPublic | DIFlagPrototyped, spFlags: 0)
!460 = !DISubprogram(name: "crbegin", linkageName: "_ZNKSt3__117basic_string_viewIcNS_11char_traitsIcEEE7crbeginB6v15006Ev", scope: !414, file: !415, line: 366, type: !454, scopeLine: 366, flags: DIFlagPublic | DIFlagPrototyped, spFlags: 0)
!461 = !DISubprogram(name: "crend", linkageName: "_ZNKSt3__117basic_string_viewIcNS_11char_traitsIcEEE5crendB6v15006Ev", scope: !414, file: !415, line: 369, type: !454, scopeLine: 369, flags: DIFlagPublic | DIFlagPrototyped, spFlags: 0)
!462 = !DISubprogram(name: "size", linkageName: "_ZNKSt3__117basic_string_viewIcNS_11char_traitsIcEEE4sizeB6v15006Ev", scope: !414, file: !415, line: 373, type: !463, scopeLine: 373, flags: DIFlagPublic | DIFlagPrototyped, spFlags: 0)
!463 = !DISubroutineType(types: !464)
!464 = !{!419, !449}
!465 = !DISubprogram(name: "length", linkageName: "_ZNKSt3__117basic_string_viewIcNS_11char_traitsIcEEE6lengthB6v15006Ev", scope: !414, file: !415, line: 376, type: !463, scopeLine: 376, flags: DIFlagPublic | DIFlagPrototyped, spFlags: 0)
!466 = !DISubprogram(name: "max_size", linkageName: "_ZNKSt3__117basic_string_viewIcNS_11char_traitsIcEEE8max_sizeB6v15006Ev", scope: !414, file: !415, line: 379, type: !463, scopeLine: 379, flags: DIFlagPublic | DIFlagPrototyped, spFlags: 0)
!467 = !DISubprogram(name: "empty", linkageName: "_ZNKSt3__117basic_string_viewIcNS_11char_traitsIcEEE5emptyB6v15006Ev", scope: !414, file: !415, line: 382, type: !468, scopeLine: 382, flags: DIFlagPublic | DIFlagPrototyped, spFlags: 0)
!468 = !DISubroutineType(types: !469)
!469 = !{!192, !449}
!470 = !DISubprogram(name: "operator[]", linkageName: "_ZNKSt3__117basic_string_viewIcNS_11char_traitsIcEEEixB6v15006Em", scope: !414, file: !415, line: 386, type: !471, scopeLine: 386, flags: DIFlagPublic | DIFlagPrototyped, spFlags: 0)
!471 = !DISubroutineType(types: !472)
!472 = !{!473, !449, !419}
!473 = !DIDerivedType(tag: DW_TAG_typedef, name: "const_reference", scope: !414, file: !415, line: 275, baseType: !217)
!474 = !DISubprogram(name: "at", linkageName: "_ZNKSt3__117basic_string_viewIcNS_11char_traitsIcEEE2atB6v15006Em", scope: !414, file: !415, line: 391, type: !471, scopeLine: 391, flags: DIFlagPublic | DIFlagPrototyped, spFlags: 0)
!475 = !DISubprogram(name: "front", linkageName: "_ZNKSt3__117basic_string_viewIcNS_11char_traitsIcEEE5frontB6v15006Ev", scope: !414, file: !415, line: 399, type: !476, scopeLine: 399, flags: DIFlagPublic | DIFlagPrototyped, spFlags: 0)
!476 = !DISubroutineType(types: !477)
!477 = !{!473, !449}
!478 = !DISubprogram(name: "back", linkageName: "_ZNKSt3__117basic_string_viewIcNS_11char_traitsIcEEE4backB6v15006Ev", scope: !414, file: !415, line: 405, type: !476, scopeLine: 405, flags: DIFlagPublic | DIFlagPrototyped, spFlags: 0)
!479 = !DISubprogram(name: "data", linkageName: "_ZNKSt3__117basic_string_viewIcNS_11char_traitsIcEEE4dataB6v15006Ev", scope: !414, file: !415, line: 411, type: !480, scopeLine: 411, flags: DIFlagPublic | DIFlagPrototyped, spFlags: 0)
!480 = !DISubroutineType(types: !481)
!481 = !{!448, !449}
!482 = !DISubprogram(name: "remove_prefix", linkageName: "_ZNSt3__117basic_string_viewIcNS_11char_traitsIcEEE13remove_prefixB6v15006Em", scope: !414, file: !415, line: 415, type: !483, scopeLine: 415, flags: DIFlagPublic | DIFlagPrototyped, spFlags: 0)
!483 = !DISubroutineType(types: !484)
!484 = !{null, !428, !419}
!485 = !DISubprogram(name: "remove_suffix", linkageName: "_ZNSt3__117basic_string_viewIcNS_11char_traitsIcEEE13remove_suffixB6v15006Em", scope: !414, file: !415, line: 423, type: !483, scopeLine: 423, flags: DIFlagPublic | DIFlagPrototyped, spFlags: 0)
!486 = !DISubprogram(name: "swap", linkageName: "_ZNSt3__117basic_string_viewIcNS_11char_traitsIcEEE4swapB6v15006ERS3_", scope: !414, file: !415, line: 430, type: !487, scopeLine: 430, flags: DIFlagPublic | DIFlagPrototyped, spFlags: 0)
!487 = !DISubroutineType(types: !488)
!488 = !{null, !428, !437}
!489 = !DISubprogram(name: "copy", linkageName: "_ZNKSt3__117basic_string_viewIcNS_11char_traitsIcEEE4copyB6v15006EPcmm", scope: !414, file: !415, line: 442, type: !490, scopeLine: 442, flags: DIFlagPublic | DIFlagPrototyped, spFlags: 0)
!490 = !DISubroutineType(types: !491)
!491 = !{!492, !449, !201, !419, !419}
!492 = !DIDerivedType(tag: DW_TAG_typedef, name: "size_type", scope: !414, file: !415, line: 280, baseType: !83)
!493 = !DISubprogram(name: "substr", linkageName: "_ZNKSt3__117basic_string_viewIcNS_11char_traitsIcEEE6substrB6v15006Emm", scope: !414, file: !415, line: 452, type: !494, scopeLine: 452, flags: DIFlagPublic | DIFlagPrototyped, spFlags: 0)
!494 = !DISubroutineType(types: !495)
!495 = !{!414, !449, !419, !419}
!496 = !DISubprogram(name: "compare", linkageName: "_ZNKSt3__117basic_string_viewIcNS_11char_traitsIcEEE7compareES3_", scope: !414, file: !415, line: 459, type: !497, scopeLine: 459, flags: DIFlagPublic | DIFlagPrototyped, spFlags: 0)
!497 = !DISubroutineType(types: !498)
!498 = !{!25, !449, !414}
!499 = !DISubprogram(name: "compare", linkageName: "_ZNKSt3__117basic_string_viewIcNS_11char_traitsIcEEE7compareB6v15006EmmS3_", scope: !414, file: !415, line: 469, type: !500, scopeLine: 469, flags: DIFlagPublic | DIFlagPrototyped, spFlags: 0)
!500 = !DISubroutineType(types: !501)
!501 = !{!25, !449, !419, !419, !414}
!502 = !DISubprogram(name: "compare", linkageName: "_ZNKSt3__117basic_string_viewIcNS_11char_traitsIcEEE7compareB6v15006EmmS3_mm", scope: !414, file: !415, line: 475, type: !503, scopeLine: 475, flags: DIFlagPublic | DIFlagPrototyped, spFlags: 0)
!503 = !DISubroutineType(types: !504)
!504 = !{!25, !449, !419, !419, !414, !419, !419}
!505 = !DISubprogram(name: "compare", linkageName: "_ZNKSt3__117basic_string_viewIcNS_11char_traitsIcEEE7compareB6v15006EPKc", scope: !414, file: !415, line: 482, type: !506, scopeLine: 482, flags: DIFlagPublic | DIFlagPrototyped, spFlags: 0)
!506 = !DISubroutineType(types: !507)
!507 = !{!25, !449, !155}
!508 = !DISubprogram(name: "compare", linkageName: "_ZNKSt3__117basic_string_viewIcNS_11char_traitsIcEEE7compareB6v15006EmmPKc", scope: !414, file: !415, line: 488, type: !509, scopeLine: 488, flags: DIFlagPublic | DIFlagPrototyped, spFlags: 0)
!509 = !DISubroutineType(types: !510)
!510 = !{!25, !449, !419, !419, !155}
!511 = !DISubprogram(name: "compare", linkageName: "_ZNKSt3__117basic_string_viewIcNS_11char_traitsIcEEE7compareB6v15006EmmPKcm", scope: !414, file: !415, line: 494, type: !512, scopeLine: 494, flags: DIFlagPublic | DIFlagPrototyped, spFlags: 0)
!512 = !DISubroutineType(types: !513)
!513 = !{!25, !449, !419, !419, !155, !419}
!514 = !DISubprogram(name: "find", linkageName: "_ZNKSt3__117basic_string_viewIcNS_11char_traitsIcEEE4findB6v15006ES3_m", scope: !414, file: !415, line: 501, type: !515, scopeLine: 501, flags: DIFlagPublic | DIFlagPrototyped, spFlags: 0)
!515 = !DISubroutineType(types: !516)
!516 = !{!492, !449, !414, !419}
!517 = !DISubprogram(name: "find", linkageName: "_ZNKSt3__117basic_string_viewIcNS_11char_traitsIcEEE4findB6v15006Ecm", scope: !414, file: !415, line: 509, type: !518, scopeLine: 509, flags: DIFlagPublic | DIFlagPrototyped, spFlags: 0)
!518 = !DISubroutineType(types: !519)
!519 = !{!492, !449, !157, !419}
!520 = !DISubprogram(name: "find", linkageName: "_ZNKSt3__117basic_string_viewIcNS_11char_traitsIcEEE4findB6v15006EPKcmm", scope: !414, file: !415, line: 516, type: !521, scopeLine: 516, flags: DIFlagPublic | DIFlagPrototyped, spFlags: 0)
!521 = !DISubroutineType(types: !522)
!522 = !{!492, !449, !155, !419, !419}
!523 = !DISubprogram(name: "find", linkageName: "_ZNKSt3__117basic_string_viewIcNS_11char_traitsIcEEE4findB6v15006EPKcm", scope: !414, file: !415, line: 524, type: !524, scopeLine: 524, flags: DIFlagPublic | DIFlagPrototyped, spFlags: 0)
!524 = !DISubroutineType(types: !525)
!525 = !{!492, !449, !155, !419}
!526 = !DISubprogram(name: "rfind", linkageName: "_ZNKSt3__117basic_string_viewIcNS_11char_traitsIcEEE5rfindB6v15006ES3_m", scope: !414, file: !415, line: 533, type: !515, scopeLine: 533, flags: DIFlagPublic | DIFlagPrototyped, spFlags: 0)
!527 = !DISubprogram(name: "rfind", linkageName: "_ZNKSt3__117basic_string_viewIcNS_11char_traitsIcEEE5rfindB6v15006Ecm", scope: !414, file: !415, line: 541, type: !518, scopeLine: 541, flags: DIFlagPublic | DIFlagPrototyped, spFlags: 0)
!528 = !DISubprogram(name: "rfind", linkageName: "_ZNKSt3__117basic_string_viewIcNS_11char_traitsIcEEE5rfindB6v15006EPKcmm", scope: !414, file: !415, line: 548, type: !521, scopeLine: 548, flags: DIFlagPublic | DIFlagPrototyped, spFlags: 0)
!529 = !DISubprogram(name: "rfind", linkageName: "_ZNKSt3__117basic_string_viewIcNS_11char_traitsIcEEE5rfindB6v15006EPKcm", scope: !414, file: !415, line: 556, type: !524, scopeLine: 556, flags: DIFlagPublic | DIFlagPrototyped, spFlags: 0)
!530 = !DISubprogram(name: "find_first_of", linkageName: "_ZNKSt3__117basic_string_viewIcNS_11char_traitsIcEEE13find_first_ofB6v15006ES3_m", scope: !414, file: !415, line: 565, type: !515, scopeLine: 565, flags: DIFlagPublic | DIFlagPrototyped, spFlags: 0)
!531 = !DISubprogram(name: "find_first_of", linkageName: "_ZNKSt3__117basic_string_viewIcNS_11char_traitsIcEEE13find_first_ofB6v15006Ecm", scope: !414, file: !415, line: 573, type: !518, scopeLine: 573, flags: DIFlagPublic | DIFlagPrototyped, spFlags: 0)
!532 = !DISubprogram(name: "find_first_of", linkageName: "_ZNKSt3__117basic_string_viewIcNS_11char_traitsIcEEE13find_first_ofB6v15006EPKcmm", scope: !414, file: !415, line: 577, type: !521, scopeLine: 577, flags: DIFlagPublic | DIFlagPrototyped, spFlags: 0)
!533 = !DISubprogram(name: "find_first_of", linkageName: "_ZNKSt3__117basic_string_viewIcNS_11char_traitsIcEEE13find_first_ofB6v15006EPKcm", scope: !414, file: !415, line: 585, type: !524, scopeLine: 585, flags: DIFlagPublic | DIFlagPrototyped, spFlags: 0)
!534 = !DISubprogram(name: "find_last_of", linkageName: "_ZNKSt3__117basic_string_viewIcNS_11char_traitsIcEEE12find_last_ofB6v15006ES3_m", scope: !414, file: !415, line: 594, type: !515, scopeLine: 594, flags: DIFlagPublic | DIFlagPrototyped, spFlags: 0)
!535 = !DISubprogram(name: "find_last_of", linkageName: "_ZNKSt3__117basic_string_viewIcNS_11char_traitsIcEEE12find_last_ofB6v15006Ecm", scope: !414, file: !415, line: 602, type: !518, scopeLine: 602, flags: DIFlagPublic | DIFlagPrototyped, spFlags: 0)
!536 = !DISubprogram(name: "find_last_of", linkageName: "_ZNKSt3__117basic_string_viewIcNS_11char_traitsIcEEE12find_last_ofB6v15006EPKcmm", scope: !414, file: !415, line: 606, type: !521, scopeLine: 606, flags: DIFlagPublic | DIFlagPrototyped, spFlags: 0)
!537 = !DISubprogram(name: "find_last_of", linkageName: "_ZNKSt3__117basic_string_viewIcNS_11char_traitsIcEEE12find_last_ofB6v15006EPKcm", scope: !414, file: !415, line: 614, type: !524, scopeLine: 614, flags: DIFlagPublic | DIFlagPrototyped, spFlags: 0)
!538 = !DISubprogram(name: "find_first_not_of", linkageName: "_ZNKSt3__117basic_string_viewIcNS_11char_traitsIcEEE17find_first_not_ofB6v15006ES3_m", scope: !414, file: !415, line: 623, type: !515, scopeLine: 623, flags: DIFlagPublic | DIFlagPrototyped, spFlags: 0)
!539 = !DISubprogram(name: "find_first_not_of", linkageName: "_ZNKSt3__117basic_string_viewIcNS_11char_traitsIcEEE17find_first_not_ofB6v15006Ecm", scope: !414, file: !415, line: 631, type: !518, scopeLine: 631, flags: DIFlagPublic | DIFlagPrototyped, spFlags: 0)
!540 = !DISubprogram(name: "find_first_not_of", linkageName: "_ZNKSt3__117basic_string_viewIcNS_11char_traitsIcEEE17find_first_not_ofB6v15006EPKcmm", scope: !414, file: !415, line: 638, type: !521, scopeLine: 638, flags: DIFlagPublic | DIFlagPrototyped, spFlags: 0)
!541 = !DISubprogram(name: "find_first_not_of", linkageName: "_ZNKSt3__117basic_string_viewIcNS_11char_traitsIcEEE17find_first_not_ofB6v15006EPKcm", scope: !414, file: !415, line: 646, type: !524, scopeLine: 646, flags: DIFlagPublic | DIFlagPrototyped, spFlags: 0)
!542 = !DISubprogram(name: "find_last_not_of", linkageName: "_ZNKSt3__117basic_string_viewIcNS_11char_traitsIcEEE16find_last_not_ofB6v15006ES3_m", scope: !414, file: !415, line: 655, type: !515, scopeLine: 655, flags: DIFlagPublic | DIFlagPrototyped, spFlags: 0)
!543 = !DISubprogram(name: "find_last_not_of", linkageName: "_ZNKSt3__117basic_string_viewIcNS_11char_traitsIcEEE16find_last_not_ofB6v15006Ecm", scope: !414, file: !415, line: 663, type: !518, scopeLine: 663, flags: DIFlagPublic | DIFlagPrototyped, spFlags: 0)
!544 = !DISubprogram(name: "find_last_not_of", linkageName: "_ZNKSt3__117basic_string_viewIcNS_11char_traitsIcEEE16find_last_not_ofB6v15006EPKcmm", scope: !414, file: !415, line: 670, type: !521, scopeLine: 670, flags: DIFlagPublic | DIFlagPrototyped, spFlags: 0)
!545 = !DISubprogram(name: "find_last_not_of", linkageName: "_ZNKSt3__117basic_string_viewIcNS_11char_traitsIcEEE16find_last_not_ofB6v15006EPKcm", scope: !414, file: !415, line: 678, type: !524, scopeLine: 678, flags: DIFlagPublic | DIFlagPrototyped, spFlags: 0)
!546 = !{!547, !548}
!547 = !DITemplateTypeParameter(name: "_CharT", type: !157)
!548 = !DITemplateTypeParameter(name: "_Traits", type: !549)
!549 = distinct !DICompositeType(tag: DW_TAG_structure_type, name: "char_traits<char>", scope: !17, file: !550, line: 189, size: 8, flags: DIFlagTypePassByValue, elements: !551, templateParams: !597, identifier: "_ZTSNSt3__111char_traitsIcEE")
!550 = !DIFile(filename: "/Library/Developer/CommandLineTools/SDKs/MacOSX.sdk/usr/include/c++/v1/__string/char_traits.h", directory: "")
!551 = !{!552, !559, !562, !563, !567, !570, !573, !577, !578, !581, !585, !588, !591, !594}
!552 = !DISubprogram(name: "assign", linkageName: "_ZNSt3__111char_traitsIcE6assignERcRKc", scope: !549, file: !550, line: 198, type: !553, scopeLine: 198, flags: DIFlagPrototyped | DIFlagStaticMember, spFlags: 0)
!553 = !DISubroutineType(types: !554)
!554 = !{null, !555, !557}
!555 = !DIDerivedType(tag: DW_TAG_reference_type, baseType: !556, size: 64)
!556 = !DIDerivedType(tag: DW_TAG_typedef, name: "char_type", scope: !549, file: !550, line: 191, baseType: !157)
!557 = !DIDerivedType(tag: DW_TAG_reference_type, baseType: !558, size: 64)
!558 = !DIDerivedType(tag: DW_TAG_const_type, baseType: !556)
!559 = !DISubprogram(name: "eq", linkageName: "_ZNSt3__111char_traitsIcE2eqEcc", scope: !549, file: !550, line: 199, type: !560, scopeLine: 199, flags: DIFlagPrototyped | DIFlagStaticMember, spFlags: 0)
!560 = !DISubroutineType(types: !561)
!561 = !{!192, !556, !556}
!562 = !DISubprogram(name: "lt", linkageName: "_ZNSt3__111char_traitsIcE2ltEcc", scope: !549, file: !550, line: 201, type: !560, scopeLine: 201, flags: DIFlagPrototyped | DIFlagStaticMember, spFlags: 0)
!563 = !DISubprogram(name: "compare", linkageName: "_ZNSt3__111char_traitsIcE7compareEPKcS3_m", scope: !549, file: !550, line: 205, type: !564, scopeLine: 205, flags: DIFlagPrototyped | DIFlagStaticMember, spFlags: 0)
!564 = !DISubroutineType(types: !565)
!565 = !{!25, !566, !566, !83}
!566 = !DIDerivedType(tag: DW_TAG_pointer_type, baseType: !558, size: 64)
!567 = !DISubprogram(name: "length", linkageName: "_ZNSt3__111char_traitsIcE6lengthEPKc", scope: !549, file: !550, line: 207, type: !568, scopeLine: 207, flags: DIFlagPrototyped | DIFlagStaticMember, spFlags: 0)
!568 = !DISubroutineType(types: !569)
!569 = !{!83, !566}
!570 = !DISubprogram(name: "find", linkageName: "_ZNSt3__111char_traitsIcE4findEPKcmRS2_", scope: !549, file: !550, line: 222, type: !571, scopeLine: 222, flags: DIFlagPrototyped | DIFlagStaticMember, spFlags: 0)
!571 = !DISubroutineType(types: !572)
!572 = !{!566, !566, !83, !557}
!573 = !DISubprogram(name: "move", linkageName: "_ZNSt3__111char_traitsIcE4moveEPcPKcm", scope: !549, file: !550, line: 225, type: !574, scopeLine: 225, flags: DIFlagPrototyped | DIFlagStaticMember, spFlags: 0)
!574 = !DISubroutineType(types: !575)
!575 = !{!576, !576, !566, !83}
!576 = !DIDerivedType(tag: DW_TAG_pointer_type, baseType: !556, size: 64)
!577 = !DISubprogram(name: "copy", linkageName: "_ZNSt3__111char_traitsIcE4copyEPcPKcm", scope: !549, file: !550, line: 230, type: !574, scopeLine: 230, flags: DIFlagPrototyped | DIFlagStaticMember, spFlags: 0)
!578 = !DISubprogram(name: "assign", linkageName: "_ZNSt3__111char_traitsIcE6assignEPcmc", scope: !549, file: !550, line: 238, type: !579, scopeLine: 238, flags: DIFlagPrototyped | DIFlagStaticMember, spFlags: 0)
!579 = !DISubroutineType(types: !580)
!580 = !{!576, !576, !83, !556}
!581 = !DISubprogram(name: "not_eof", linkageName: "_ZNSt3__111char_traitsIcE7not_eofEi", scope: !549, file: !550, line: 243, type: !582, scopeLine: 243, flags: DIFlagPrototyped | DIFlagStaticMember, spFlags: 0)
!582 = !DISubroutineType(types: !583)
!583 = !{!584, !584}
!584 = !DIDerivedType(tag: DW_TAG_typedef, name: "int_type", scope: !549, file: !550, line: 192, baseType: !25)
!585 = !DISubprogram(name: "to_char_type", linkageName: "_ZNSt3__111char_traitsIcE12to_char_typeEi", scope: !549, file: !550, line: 245, type: !586, scopeLine: 245, flags: DIFlagPrototyped | DIFlagStaticMember, spFlags: 0)
!586 = !DISubroutineType(types: !587)
!587 = !{!556, !584}
!588 = !DISubprogram(name: "to_int_type", linkageName: "_ZNSt3__111char_traitsIcE11to_int_typeEc", scope: !549, file: !550, line: 247, type: !589, scopeLine: 247, flags: DIFlagPrototyped | DIFlagStaticMember, spFlags: 0)
!589 = !DISubroutineType(types: !590)
!590 = !{!584, !556}
!591 = !DISubprogram(name: "eq_int_type", linkageName: "_ZNSt3__111char_traitsIcE11eq_int_typeEii", scope: !549, file: !550, line: 249, type: !592, scopeLine: 249, flags: DIFlagPrototyped | DIFlagStaticMember, spFlags: 0)
!592 = !DISubroutineType(types: !593)
!593 = !{!192, !584, !584}
!594 = !DISubprogram(name: "eof", linkageName: "_ZNSt3__111char_traitsIcE3eofEv", scope: !549, file: !550, line: 251, type: !595, scopeLine: 251, flags: DIFlagPrototyped | DIFlagStaticMember, spFlags: 0)
!595 = !DISubroutineType(types: !596)
!596 = !{!584}
!597 = !{!547}
!598 = !DIDerivedType(tag: DW_TAG_pointer_type, baseType: !390, size: 64, flags: DIFlagArtificial | DIFlagObjectPointer)
!599 = !DISubprogram(name: "operator=", linkageName: "_ZNSt3__112basic_stringIcNS_11char_traitsIcEENS_9allocatorIcEEEaSERKS5_", scope: !165, file: !166, line: 905, type: !600, scopeLine: 905, flags: DIFlagPublic | DIFlagPrototyped, spFlags: 0)
!600 = !DISubroutineType(types: !601)
!601 = !{!602, !375, !389}
!602 = !DIDerivedType(tag: DW_TAG_reference_type, baseType: !165, size: 64)
!603 = !DISubprogram(name: "operator=", linkageName: "_ZNSt3__112basic_stringIcNS_11char_traitsIcEENS_9allocatorIcEEEaSB6v15006EPKc", scope: !165, file: !166, line: 922, type: !604, scopeLine: 922, flags: DIFlagPublic | DIFlagPrototyped, spFlags: 0)
!604 = !DISubroutineType(types: !605)
!605 = !{!602, !375, !606}
!606 = !DIDerivedType(tag: DW_TAG_pointer_type, baseType: !607, size: 64)
!607 = !DIDerivedType(tag: DW_TAG_const_type, baseType: !266)
!608 = !DISubprogram(name: "operator=", linkageName: "_ZNSt3__112basic_stringIcNS_11char_traitsIcEENS_9allocatorIcEEEaSEc", scope: !165, file: !166, line: 926, type: !609, scopeLine: 926, flags: DIFlagPublic | DIFlagPrototyped, spFlags: 0)
!609 = !DISubroutineType(types: !610)
!610 = !{!602, !375, !266}
!611 = !DISubprogram(name: "begin", linkageName: "_ZNSt3__112basic_stringIcNS_11char_traitsIcEENS_9allocatorIcEEE5beginB6v15006Ev", scope: !165, file: !166, line: 929, type: !612, scopeLine: 929, flags: DIFlagPublic | DIFlagPrototyped, spFlags: 0)
!612 = !DISubroutineType(types: !613)
!613 = !{!614, !375}
!614 = !DIDerivedType(tag: DW_TAG_typedef, name: "iterator", scope: !165, file: !166, line: 679, baseType: !615)
!615 = !DICompositeType(tag: DW_TAG_class_type, name: "__wrap_iter<char *>", scope: !17, file: !616, line: 27, flags: DIFlagFwdDecl | DIFlagNonTrivial, identifier: "_ZTSNSt3__111__wrap_iterIPcEE")
!616 = !DIFile(filename: "/Library/Developer/CommandLineTools/SDKs/MacOSX.sdk/usr/include/c++/v1/__iterator/wrap_iter.h", directory: "")
!617 = !DISubprogram(name: "begin", linkageName: "_ZNKSt3__112basic_stringIcNS_11char_traitsIcEENS_9allocatorIcEEE5beginB6v15006Ev", scope: !165, file: !166, line: 932, type: !618, scopeLine: 932, flags: DIFlagPublic | DIFlagPrototyped, spFlags: 0)
!618 = !DISubroutineType(types: !619)
!619 = !{!620, !598}
!620 = !DIDerivedType(tag: DW_TAG_typedef, name: "const_iterator", scope: !165, file: !166, line: 680, baseType: !621)
!621 = !DICompositeType(tag: DW_TAG_class_type, name: "__wrap_iter<const char *>", scope: !17, file: !616, line: 27, flags: DIFlagFwdDecl | DIFlagNonTrivial, identifier: "_ZTSNSt3__111__wrap_iterIPKcEE")
!622 = !DISubprogram(name: "end", linkageName: "_ZNSt3__112basic_stringIcNS_11char_traitsIcEENS_9allocatorIcEEE3endB6v15006Ev", scope: !165, file: !166, line: 935, type: !612, scopeLine: 935, flags: DIFlagPublic | DIFlagPrototyped, spFlags: 0)
!623 = !DISubprogram(name: "end", linkageName: "_ZNKSt3__112basic_stringIcNS_11char_traitsIcEENS_9allocatorIcEEE3endB6v15006Ev", scope: !165, file: !166, line: 938, type: !618, scopeLine: 938, flags: DIFlagPublic | DIFlagPrototyped, spFlags: 0)
!624 = !DISubprogram(name: "rbegin", linkageName: "_ZNSt3__112basic_stringIcNS_11char_traitsIcEENS_9allocatorIcEEE6rbeginB6v15006Ev", scope: !165, file: !166, line: 942, type: !625, scopeLine: 942, flags: DIFlagPublic | DIFlagPrototyped, spFlags: 0)
!625 = !DISubroutineType(types: !626)
!626 = !{!627, !375}
!627 = !DIDerivedType(tag: DW_TAG_typedef, name: "reverse_iterator", scope: !165, file: !166, line: 681, baseType: !628)
!628 = !DICompositeType(tag: DW_TAG_class_type, name: "reverse_iterator<std::__1::__wrap_iter<char *> >", scope: !17, file: !458, line: 43, flags: DIFlagFwdDecl | DIFlagNonTrivial, identifier: "_ZTSNSt3__116reverse_iteratorINS_11__wrap_iterIPcEEEE")
!629 = !DISubprogram(name: "rbegin", linkageName: "_ZNKSt3__112basic_stringIcNS_11char_traitsIcEENS_9allocatorIcEEE6rbeginB6v15006Ev", scope: !165, file: !166, line: 945, type: !630, scopeLine: 945, flags: DIFlagPublic | DIFlagPrototyped, spFlags: 0)
!630 = !DISubroutineType(types: !631)
!631 = !{!632, !598}
!632 = !DIDerivedType(tag: DW_TAG_typedef, name: "const_reverse_iterator", scope: !165, file: !166, line: 682, baseType: !633)
!633 = !DICompositeType(tag: DW_TAG_class_type, name: "reverse_iterator<std::__1::__wrap_iter<const char *> >", scope: !17, file: !458, line: 43, flags: DIFlagFwdDecl | DIFlagNonTrivial, identifier: "_ZTSNSt3__116reverse_iteratorINS_11__wrap_iterIPKcEEEE")
!634 = !DISubprogram(name: "rend", linkageName: "_ZNSt3__112basic_stringIcNS_11char_traitsIcEENS_9allocatorIcEEE4rendB6v15006Ev", scope: !165, file: !166, line: 948, type: !625, scopeLine: 948, flags: DIFlagPublic | DIFlagPrototyped, spFlags: 0)
!635 = !DISubprogram(name: "rend", linkageName: "_ZNKSt3__112basic_stringIcNS_11char_traitsIcEENS_9allocatorIcEEE4rendB6v15006Ev", scope: !165, file: !166, line: 951, type: !630, scopeLine: 951, flags: DIFlagPublic | DIFlagPrototyped, spFlags: 0)
!636 = !DISubprogram(name: "cbegin", linkageName: "_ZNKSt3__112basic_stringIcNS_11char_traitsIcEENS_9allocatorIcEEE6cbeginB6v15006Ev", scope: !165, file: !166, line: 955, type: !618, scopeLine: 955, flags: DIFlagPublic | DIFlagPrototyped, spFlags: 0)
!637 = !DISubprogram(name: "cend", linkageName: "_ZNKSt3__112basic_stringIcNS_11char_traitsIcEENS_9allocatorIcEEE4cendB6v15006Ev", scope: !165, file: !166, line: 958, type: !618, scopeLine: 958, flags: DIFlagPublic | DIFlagPrototyped, spFlags: 0)
!638 = !DISubprogram(name: "crbegin", linkageName: "_ZNKSt3__112basic_stringIcNS_11char_traitsIcEENS_9allocatorIcEEE7crbeginB6v15006Ev", scope: !165, file: !166, line: 961, type: !630, scopeLine: 961, flags: DIFlagPublic | DIFlagPrototyped, spFlags: 0)
!639 = !DISubprogram(name: "crend", linkageName: "_ZNKSt3__112basic_stringIcNS_11char_traitsIcEENS_9allocatorIcEEE5crendB6v15006Ev", scope: !165, file: !166, line: 964, type: !630, scopeLine: 964, flags: DIFlagPublic | DIFlagPrototyped, spFlags: 0)
!640 = !DISubprogram(name: "size", linkageName: "_ZNKSt3__112basic_stringIcNS_11char_traitsIcEENS_9allocatorIcEEE4sizeB6v15006Ev", scope: !165, file: !166, line: 967, type: !641, scopeLine: 967, flags: DIFlagPublic | DIFlagPrototyped, spFlags: 0)
!641 = !DISubroutineType(types: !642)
!642 = !{!170, !598}
!643 = !DISubprogram(name: "length", linkageName: "_ZNKSt3__112basic_stringIcNS_11char_traitsIcEENS_9allocatorIcEEE6lengthB6v15006Ev", scope: !165, file: !166, line: 969, type: !641, scopeLine: 969, flags: DIFlagPublic | DIFlagPrototyped, spFlags: 0)
!644 = !DISubprogram(name: "max_size", linkageName: "_ZNKSt3__112basic_stringIcNS_11char_traitsIcEENS_9allocatorIcEEE8max_sizeB6v15006Ev", scope: !165, file: !166, line: 970, type: !641, scopeLine: 970, flags: DIFlagPublic | DIFlagPrototyped, spFlags: 0)
!645 = !DISubprogram(name: "capacity", linkageName: "_ZNKSt3__112basic_stringIcNS_11char_traitsIcEENS_9allocatorIcEEE8capacityB6v15006Ev", scope: !165, file: !166, line: 971, type: !641, scopeLine: 971, flags: DIFlagPublic | DIFlagPrototyped, spFlags: 0)
!646 = !DISubprogram(name: "resize", linkageName: "_ZNSt3__112basic_stringIcNS_11char_traitsIcEENS_9allocatorIcEEE6resizeEmc", scope: !165, file: !166, line: 975, type: !647, scopeLine: 975, flags: DIFlagPublic | DIFlagPrototyped, spFlags: 0)
!647 = !DISubroutineType(types: !648)
!648 = !{null, !375, !170, !266}
!649 = !DISubprogram(name: "resize", linkageName: "_ZNSt3__112basic_stringIcNS_11char_traitsIcEENS_9allocatorIcEEE6resizeB6v15006Em", scope: !165, file: !166, line: 976, type: !650, scopeLine: 976, flags: DIFlagPublic | DIFlagPrototyped, spFlags: 0)
!650 = !DISubroutineType(types: !651)
!651 = !{null, !375, !170}
!652 = !DISubprogram(name: "reserve", linkageName: "_ZNSt3__112basic_stringIcNS_11char_traitsIcEENS_9allocatorIcEEE7reserveEm", scope: !165, file: !166, line: 978, type: !650, scopeLine: 978, flags: DIFlagPublic | DIFlagPrototyped, spFlags: 0)
!653 = !DISubprogram(name: "__resize_default_init", linkageName: "_ZNSt3__112basic_stringIcNS_11char_traitsIcEENS_9allocatorIcEEE21__resize_default_initB6v15006Em", scope: !165, file: !166, line: 989, type: !650, scopeLine: 989, flags: DIFlagPublic | DIFlagPrototyped, spFlags: 0)
!654 = !DISubprogram(name: "reserve", linkageName: "_ZNSt3__112basic_stringIcNS_11char_traitsIcEENS_9allocatorIcEEE7reserveB6v15006Ev", scope: !165, file: !166, line: 991, type: !381, scopeLine: 991, flags: DIFlagPublic | DIFlagPrototyped, spFlags: 0)
!655 = !DISubprogram(name: "shrink_to_fit", linkageName: "_ZNSt3__112basic_stringIcNS_11char_traitsIcEENS_9allocatorIcEEE13shrink_to_fitB6v15006Ev", scope: !165, file: !166, line: 992, type: !381, scopeLine: 992, flags: DIFlagPublic | DIFlagPrototyped, spFlags: 0)
!656 = !DISubprogram(name: "clear", linkageName: "_ZNSt3__112basic_stringIcNS_11char_traitsIcEENS_9allocatorIcEEE5clearB6v15006Ev", scope: !165, file: !166, line: 993, type: !381, scopeLine: 993, flags: DIFlagPublic | DIFlagPrototyped, spFlags: 0)
!657 = !DISubprogram(name: "empty", linkageName: "_ZNKSt3__112basic_stringIcNS_11char_traitsIcEENS_9allocatorIcEEE5emptyB6v15006Ev", scope: !165, file: !166, line: 996, type: !658, scopeLine: 996, flags: DIFlagPublic | DIFlagPrototyped, spFlags: 0)
!658 = !DISubroutineType(types: !659)
!659 = !{!192, !598}
!660 = !DISubprogram(name: "operator[]", linkageName: "_ZNKSt3__112basic_stringIcNS_11char_traitsIcEENS_9allocatorIcEEEixB6v15006Em", scope: !165, file: !166, line: 999, type: !661, scopeLine: 999, flags: DIFlagPublic | DIFlagPrototyped, spFlags: 0)
!661 = !DISubroutineType(types: !662)
!662 = !{!663, !598, !170}
!663 = !DIDerivedType(tag: DW_TAG_typedef, name: "const_reference", scope: !165, file: !166, line: 667, baseType: !664)
!664 = !DIDerivedType(tag: DW_TAG_reference_type, baseType: !607, size: 64)
!665 = !DISubprogram(name: "operator[]", linkageName: "_ZNSt3__112basic_stringIcNS_11char_traitsIcEENS_9allocatorIcEEEixB6v15006Em", scope: !165, file: !166, line: 1000, type: !666, scopeLine: 1000, flags: DIFlagPublic | DIFlagPrototyped, spFlags: 0)
!666 = !DISubroutineType(types: !667)
!667 = !{!668, !375, !170}
!668 = !DIDerivedType(tag: DW_TAG_typedef, name: "reference", scope: !165, file: !166, line: 666, baseType: !669)
!669 = !DIDerivedType(tag: DW_TAG_reference_type, baseType: !266, size: 64)
!670 = !DISubprogram(name: "at", linkageName: "_ZNKSt3__112basic_stringIcNS_11char_traitsIcEENS_9allocatorIcEEE2atEm", scope: !165, file: !166, line: 1002, type: !661, scopeLine: 1002, flags: DIFlagPublic | DIFlagPrototyped, spFlags: 0)
!671 = !DISubprogram(name: "at", linkageName: "_ZNSt3__112basic_stringIcNS_11char_traitsIcEENS_9allocatorIcEEE2atEm", scope: !165, file: !166, line: 1003, type: !666, scopeLine: 1003, flags: DIFlagPublic | DIFlagPrototyped, spFlags: 0)
!672 = !DISubprogram(name: "operator+=", linkageName: "_ZNSt3__112basic_stringIcNS_11char_traitsIcEENS_9allocatorIcEEEpLB6v15006ERKS5_", scope: !165, file: !166, line: 1005, type: !600, scopeLine: 1005, flags: DIFlagPublic | DIFlagPrototyped, spFlags: 0)
!673 = !DISubprogram(name: "operator+=", linkageName: "_ZNSt3__112basic_stringIcNS_11char_traitsIcEENS_9allocatorIcEEEpLB6v15006EPKc", scope: !165, file: !166, line: 1021, type: !604, scopeLine: 1021, flags: DIFlagPublic | DIFlagPrototyped, spFlags: 0)
!674 = !DISubprogram(name: "operator+=", linkageName: "_ZNSt3__112basic_stringIcNS_11char_traitsIcEENS_9allocatorIcEEEpLB6v15006Ec", scope: !165, file: !166, line: 1025, type: !609, scopeLine: 1025, flags: DIFlagPublic | DIFlagPrototyped, spFlags: 0)
!675 = !DISubprogram(name: "append", linkageName: "_ZNSt3__112basic_stringIcNS_11char_traitsIcEENS_9allocatorIcEEE6appendB6v15006ERKS5_", scope: !165, file: !166, line: 1036, type: !600, scopeLine: 1036, flags: DIFlagPublic | DIFlagPrototyped, spFlags: 0)
!676 = !DISubprogram(name: "append", linkageName: "_ZNSt3__112basic_stringIcNS_11char_traitsIcEENS_9allocatorIcEEE6appendERKS5_mm", scope: !165, file: !166, line: 1046, type: !677, scopeLine: 1046, flags: DIFlagPublic | DIFlagPrototyped, spFlags: 0)
!677 = !DISubroutineType(types: !678)
!678 = !{!602, !375, !389, !170, !170}
!679 = !DISubprogram(name: "append", linkageName: "_ZNSt3__112basic_stringIcNS_11char_traitsIcEENS_9allocatorIcEEE6appendEPKcm", scope: !165, file: !166, line: 1057, type: !680, scopeLine: 1057, flags: DIFlagPublic | DIFlagPrototyped, spFlags: 0)
!680 = !DISubroutineType(types: !681)
!681 = !{!602, !375, !606, !170}
!682 = !DISubprogram(name: "append", linkageName: "_ZNSt3__112basic_stringIcNS_11char_traitsIcEENS_9allocatorIcEEE6appendEPKc", scope: !165, file: !166, line: 1058, type: !604, scopeLine: 1058, flags: DIFlagPublic | DIFlagPrototyped, spFlags: 0)
!683 = !DISubprogram(name: "append", linkageName: "_ZNSt3__112basic_stringIcNS_11char_traitsIcEENS_9allocatorIcEEE6appendEmc", scope: !165, file: !166, line: 1059, type: !684, scopeLine: 1059, flags: DIFlagPublic | DIFlagPrototyped, spFlags: 0)
!684 = !DISubroutineType(types: !685)
!685 = !{!602, !375, !170, !266}
!686 = !DISubprogram(name: "__append_default_init", linkageName: "_ZNSt3__112basic_stringIcNS_11char_traitsIcEENS_9allocatorIcEEE21__append_default_initB6v15006Em", scope: !165, file: !166, line: 1062, type: !650, scopeLine: 1062, flags: DIFlagPublic | DIFlagPrototyped, spFlags: 0)
!687 = !DISubprogram(name: "push_back", linkageName: "_ZNSt3__112basic_stringIcNS_11char_traitsIcEENS_9allocatorIcEEE9push_backEc", scope: !165, file: !166, line: 1092, type: !688, scopeLine: 1092, flags: DIFlagPublic | DIFlagPrototyped, spFlags: 0)
!688 = !DISubroutineType(types: !689)
!689 = !{null, !375, !266}
!690 = !DISubprogram(name: "pop_back", linkageName: "_ZNSt3__112basic_stringIcNS_11char_traitsIcEENS_9allocatorIcEEE8pop_backB6v15006Ev", scope: !165, file: !166, line: 1093, type: !381, scopeLine: 1093, flags: DIFlagPublic | DIFlagPrototyped, spFlags: 0)
!691 = !DISubprogram(name: "front", linkageName: "_ZNSt3__112basic_stringIcNS_11char_traitsIcEENS_9allocatorIcEEE5frontB6v15006Ev", scope: !165, file: !166, line: 1094, type: !692, scopeLine: 1094, flags: DIFlagPublic | DIFlagPrototyped, spFlags: 0)
!692 = !DISubroutineType(types: !693)
!693 = !{!668, !375}
!694 = !DISubprogram(name: "front", linkageName: "_ZNKSt3__112basic_stringIcNS_11char_traitsIcEENS_9allocatorIcEEE5frontB6v15006Ev", scope: !165, file: !166, line: 1095, type: !695, scopeLine: 1095, flags: DIFlagPublic | DIFlagPrototyped, spFlags: 0)
!695 = !DISubroutineType(types: !696)
!696 = !{!663, !598}
!697 = !DISubprogram(name: "back", linkageName: "_ZNSt3__112basic_stringIcNS_11char_traitsIcEENS_9allocatorIcEEE4backB6v15006Ev", scope: !165, file: !166, line: 1096, type: !692, scopeLine: 1096, flags: DIFlagPublic | DIFlagPrototyped, spFlags: 0)
!698 = !DISubprogram(name: "back", linkageName: "_ZNKSt3__112basic_stringIcNS_11char_traitsIcEENS_9allocatorIcEEE4backB6v15006Ev", scope: !165, file: !166, line: 1097, type: !695, scopeLine: 1097, flags: DIFlagPublic | DIFlagPrototyped, spFlags: 0)
!699 = !DISubprogram(name: "assign", linkageName: "_ZNSt3__112basic_stringIcNS_11char_traitsIcEENS_9allocatorIcEEE6assignB6v15006ERKS5_", scope: !165, file: !166, line: 1108, type: !600, scopeLine: 1108, flags: DIFlagPublic | DIFlagPrototyped, spFlags: 0)
!700 = !DISubprogram(name: "assign", linkageName: "_ZNSt3__112basic_stringIcNS_11char_traitsIcEENS_9allocatorIcEEE6assignERKS5_mm", scope: !165, file: !166, line: 1115, type: !677, scopeLine: 1115, flags: DIFlagPublic | DIFlagPrototyped, spFlags: 0)
!701 = !DISubprogram(name: "assign", linkageName: "_ZNSt3__112basic_stringIcNS_11char_traitsIcEENS_9allocatorIcEEE6assignEPKcm", scope: !165, file: !166, line: 1125, type: !680, scopeLine: 1125, flags: DIFlagPublic | DIFlagPrototyped, spFlags: 0)
!702 = !DISubprogram(name: "assign", linkageName: "_ZNSt3__112basic_stringIcNS_11char_traitsIcEENS_9allocatorIcEEE6assignEPKc", scope: !165, file: !166, line: 1126, type: !604, scopeLine: 1126, flags: DIFlagPublic | DIFlagPrototyped, spFlags: 0)
!703 = !DISubprogram(name: "assign", linkageName: "_ZNSt3__112basic_stringIcNS_11char_traitsIcEENS_9allocatorIcEEE6assignEmc", scope: !165, file: !166, line: 1127, type: !684, scopeLine: 1127, flags: DIFlagPublic | DIFlagPrototyped, spFlags: 0)
!704 = !DISubprogram(name: "insert", linkageName: "_ZNSt3__112basic_stringIcNS_11char_traitsIcEENS_9allocatorIcEEE6insertB6v15006EmRKS5_", scope: !165, file: !166, line: 1150, type: !705, scopeLine: 1150, flags: DIFlagPublic | DIFlagPrototyped, spFlags: 0)
!705 = !DISubroutineType(types: !706)
!706 = !{!602, !375, !170, !389}
!707 = !DISubprogram(name: "insert", linkageName: "_ZNSt3__112basic_stringIcNS_11char_traitsIcEENS_9allocatorIcEEE6insertEmRKS5_mm", scope: !165, file: !166, line: 1171, type: !708, scopeLine: 1171, flags: DIFlagPublic | DIFlagPrototyped, spFlags: 0)
!708 = !DISubroutineType(types: !709)
!709 = !{!602, !375, !170, !389, !170, !170}
!710 = !DISubprogram(name: "insert", linkageName: "_ZNSt3__112basic_stringIcNS_11char_traitsIcEENS_9allocatorIcEEE6insertEmPKcm", scope: !165, file: !166, line: 1172, type: !711, scopeLine: 1172, flags: DIFlagPublic | DIFlagPrototyped, spFlags: 0)
!711 = !DISubroutineType(types: !712)
!712 = !{!602, !375, !170, !606, !170}
!713 = !DISubprogram(name: "insert", linkageName: "_ZNSt3__112basic_stringIcNS_11char_traitsIcEENS_9allocatorIcEEE6insertEmPKc", scope: !165, file: !166, line: 1173, type: !714, scopeLine: 1173, flags: DIFlagPublic | DIFlagPrototyped, spFlags: 0)
!714 = !DISubroutineType(types: !715)
!715 = !{!602, !375, !170, !606}
!716 = !DISubprogram(name: "insert", linkageName: "_ZNSt3__112basic_stringIcNS_11char_traitsIcEENS_9allocatorIcEEE6insertEmmc", scope: !165, file: !166, line: 1174, type: !717, scopeLine: 1174, flags: DIFlagPublic | DIFlagPrototyped, spFlags: 0)
!717 = !DISubroutineType(types: !718)
!718 = !{!602, !375, !170, !170, !266}
!719 = !DISubprogram(name: "insert", linkageName: "_ZNSt3__112basic_stringIcNS_11char_traitsIcEENS_9allocatorIcEEE6insertENS_11__wrap_iterIPKcEEc", scope: !165, file: !166, line: 1175, type: !720, scopeLine: 1175, flags: DIFlagPublic | DIFlagPrototyped, spFlags: 0)
!720 = !DISubroutineType(types: !721)
!721 = !{!614, !375, !620, !266}
!722 = !DISubprogram(name: "insert", linkageName: "_ZNSt3__112basic_stringIcNS_11char_traitsIcEENS_9allocatorIcEEE6insertB6v15006ENS_11__wrap_iterIPKcEEmc", scope: !165, file: !166, line: 1177, type: !723, scopeLine: 1177, flags: DIFlagPublic | DIFlagPrototyped, spFlags: 0)
!723 = !DISubroutineType(types: !724)
!724 = !{!614, !375, !620, !170, !266}
!725 = !DISubprogram(name: "erase", linkageName: "_ZNSt3__112basic_stringIcNS_11char_traitsIcEENS_9allocatorIcEEE5eraseEmm", scope: !165, file: !166, line: 1200, type: !726, scopeLine: 1200, flags: DIFlagPublic | DIFlagPrototyped, spFlags: 0)
!726 = !DISubroutineType(types: !727)
!727 = !{!602, !375, !170, !170}
!728 = !DISubprogram(name: "erase", linkageName: "_ZNSt3__112basic_stringIcNS_11char_traitsIcEENS_9allocatorIcEEE5eraseB6v15006ENS_11__wrap_iterIPKcEE", scope: !165, file: !166, line: 1202, type: !729, scopeLine: 1202, flags: DIFlagPublic | DIFlagPrototyped, spFlags: 0)
!729 = !DISubroutineType(types: !730)
!730 = !{!614, !375, !620}
!731 = !DISubprogram(name: "erase", linkageName: "_ZNSt3__112basic_stringIcNS_11char_traitsIcEENS_9allocatorIcEEE5eraseB6v15006ENS_11__wrap_iterIPKcEES9_", scope: !165, file: !166, line: 1204, type: !732, scopeLine: 1204, flags: DIFlagPublic | DIFlagPrototyped, spFlags: 0)
!732 = !DISubroutineType(types: !733)
!733 = !{!614, !375, !620, !620}
!734 = !DISubprogram(name: "replace", linkageName: "_ZNSt3__112basic_stringIcNS_11char_traitsIcEENS_9allocatorIcEEE7replaceB6v15006EmmRKS5_", scope: !165, file: !166, line: 1207, type: !735, scopeLine: 1207, flags: DIFlagPublic | DIFlagPrototyped, spFlags: 0)
!735 = !DISubroutineType(types: !736)
!736 = !{!602, !375, !170, !170, !389}
!737 = !DISubprogram(name: "replace", linkageName: "_ZNSt3__112basic_stringIcNS_11char_traitsIcEENS_9allocatorIcEEE7replaceEmmRKS5_mm", scope: !165, file: !166, line: 1218, type: !738, scopeLine: 1218, flags: DIFlagPublic | DIFlagPrototyped, spFlags: 0)
!738 = !DISubroutineType(types: !739)
!739 = !{!602, !375, !170, !170, !389, !170, !170}
!740 = !DISubprogram(name: "replace", linkageName: "_ZNSt3__112basic_stringIcNS_11char_traitsIcEENS_9allocatorIcEEE7replaceEmmPKcm", scope: !165, file: !166, line: 1228, type: !741, scopeLine: 1228, flags: DIFlagPublic | DIFlagPrototyped, spFlags: 0)
!741 = !DISubroutineType(types: !742)
!742 = !{!602, !375, !170, !170, !606, !170}
!743 = !DISubprogram(name: "replace", linkageName: "_ZNSt3__112basic_stringIcNS_11char_traitsIcEENS_9allocatorIcEEE7replaceEmmPKc", scope: !165, file: !166, line: 1229, type: !744, scopeLine: 1229, flags: DIFlagPublic | DIFlagPrototyped, spFlags: 0)
!744 = !DISubroutineType(types: !745)
!745 = !{!602, !375, !170, !170, !606}
!746 = !DISubprogram(name: "replace", linkageName: "_ZNSt3__112basic_stringIcNS_11char_traitsIcEENS_9allocatorIcEEE7replaceEmmmc", scope: !165, file: !166, line: 1230, type: !747, scopeLine: 1230, flags: DIFlagPublic | DIFlagPrototyped, spFlags: 0)
!747 = !DISubroutineType(types: !748)
!748 = !{!602, !375, !170, !170, !170, !266}
!749 = !DISubprogram(name: "replace", linkageName: "_ZNSt3__112basic_stringIcNS_11char_traitsIcEENS_9allocatorIcEEE7replaceB6v15006ENS_11__wrap_iterIPKcEES9_RKS5_", scope: !165, file: !166, line: 1232, type: !750, scopeLine: 1232, flags: DIFlagPublic | DIFlagPrototyped, spFlags: 0)
!750 = !DISubroutineType(types: !751)
!751 = !{!602, !375, !620, !620, !389}
!752 = !DISubprogram(name: "replace", linkageName: "_ZNSt3__112basic_stringIcNS_11char_traitsIcEENS_9allocatorIcEEE7replaceB6v15006ENS_11__wrap_iterIPKcEES9_S8_m", scope: !165, file: !166, line: 1244, type: !753, scopeLine: 1244, flags: DIFlagPublic | DIFlagPrototyped, spFlags: 0)
!753 = !DISubroutineType(types: !754)
!754 = !{!602, !375, !620, !620, !606, !170}
!755 = !DISubprogram(name: "replace", linkageName: "_ZNSt3__112basic_stringIcNS_11char_traitsIcEENS_9allocatorIcEEE7replaceB6v15006ENS_11__wrap_iterIPKcEES9_S8_", scope: !165, file: !166, line: 1246, type: !756, scopeLine: 1246, flags: DIFlagPublic | DIFlagPrototyped, spFlags: 0)
!756 = !DISubroutineType(types: !757)
!757 = !{!602, !375, !620, !620, !606}
!758 = !DISubprogram(name: "replace", linkageName: "_ZNSt3__112basic_stringIcNS_11char_traitsIcEENS_9allocatorIcEEE7replaceB6v15006ENS_11__wrap_iterIPKcEES9_mc", scope: !165, file: !166, line: 1248, type: !759, scopeLine: 1248, flags: DIFlagPublic | DIFlagPrototyped, spFlags: 0)
!759 = !DISubroutineType(types: !760)
!760 = !{!602, !375, !620, !620, !170, !266}
!761 = !DISubprogram(name: "copy", linkageName: "_ZNKSt3__112basic_stringIcNS_11char_traitsIcEENS_9allocatorIcEEE4copyEPcmm", scope: !165, file: !166, line: 1263, type: !762, scopeLine: 1263, flags: DIFlagPublic | DIFlagPrototyped, spFlags: 0)
!762 = !DISubroutineType(types: !763)
!763 = !{!170, !598, !764, !170, !170}
!764 = !DIDerivedType(tag: DW_TAG_pointer_type, baseType: !266, size: 64)
!765 = !DISubprogram(name: "substr", linkageName: "_ZNKSt3__112basic_stringIcNS_11char_traitsIcEENS_9allocatorIcEEE6substrB6v15006Emm", scope: !165, file: !166, line: 1265, type: !766, scopeLine: 1265, flags: DIFlagPublic | DIFlagPrototyped, spFlags: 0)
!766 = !DISubroutineType(types: !767)
!767 = !{!165, !598, !170, !170}
!768 = !DISubprogram(name: "swap", linkageName: "_ZNSt3__112basic_stringIcNS_11char_traitsIcEENS_9allocatorIcEEE4swapB6v15006ERS5_", scope: !165, file: !166, line: 1268, type: !769, scopeLine: 1268, flags: DIFlagPublic | DIFlagPrototyped, spFlags: 0)
!769 = !DISubroutineType(types: !770)
!770 = !{null, !375, !602}
!771 = !DISubprogram(name: "c_str", linkageName: "_ZNKSt3__112basic_stringIcNS_11char_traitsIcEENS_9allocatorIcEEE5c_strB6v15006Ev", scope: !165, file: !166, line: 1277, type: !772, scopeLine: 1277, flags: DIFlagPublic | DIFlagPrototyped, spFlags: 0)
!772 = !DISubroutineType(types: !773)
!773 = !{!606, !598}
!774 = !DISubprogram(name: "data", linkageName: "_ZNKSt3__112basic_stringIcNS_11char_traitsIcEENS_9allocatorIcEEE4dataB6v15006Ev", scope: !165, file: !166, line: 1279, type: !772, scopeLine: 1279, flags: DIFlagPublic | DIFlagPrototyped, spFlags: 0)
!775 = !DISubprogram(name: "get_allocator", linkageName: "_ZNKSt3__112basic_stringIcNS_11char_traitsIcEENS_9allocatorIcEEE13get_allocatorB6v15006Ev", scope: !165, file: !166, line: 1286, type: !776, scopeLine: 1286, flags: DIFlagPublic | DIFlagPrototyped, spFlags: 0)
!776 = !DISubroutineType(types: !777)
!777 = !{!379, !598}
!778 = !DISubprogram(name: "find", linkageName: "_ZNKSt3__112basic_stringIcNS_11char_traitsIcEENS_9allocatorIcEEE4findB6v15006ERKS5_m", scope: !165, file: !166, line: 1289, type: !779, scopeLine: 1289, flags: DIFlagPublic | DIFlagPrototyped, spFlags: 0)
!779 = !DISubroutineType(types: !780)
!780 = !{!170, !598, !389, !170}
!781 = !DISubprogram(name: "find", linkageName: "_ZNKSt3__112basic_stringIcNS_11char_traitsIcEENS_9allocatorIcEEE4findEPKcmm", scope: !165, file: !166, line: 1300, type: !782, scopeLine: 1300, flags: DIFlagPublic | DIFlagPrototyped, spFlags: 0)
!782 = !DISubroutineType(types: !783)
!783 = !{!170, !598, !606, !170, !170}
!784 = !DISubprogram(name: "find", linkageName: "_ZNKSt3__112basic_stringIcNS_11char_traitsIcEENS_9allocatorIcEEE4findB6v15006EPKcm", scope: !165, file: !166, line: 1302, type: !785, scopeLine: 1302, flags: DIFlagPublic | DIFlagPrototyped, spFlags: 0)
!785 = !DISubroutineType(types: !786)
!786 = !{!170, !598, !606, !170}
!787 = !DISubprogram(name: "find", linkageName: "_ZNKSt3__112basic_stringIcNS_11char_traitsIcEENS_9allocatorIcEEE4findEcm", scope: !165, file: !166, line: 1303, type: !788, scopeLine: 1303, flags: DIFlagPublic | DIFlagPrototyped, spFlags: 0)
!788 = !DISubroutineType(types: !789)
!789 = !{!170, !598, !266, !170}
!790 = !DISubprogram(name: "rfind", linkageName: "_ZNKSt3__112basic_stringIcNS_11char_traitsIcEENS_9allocatorIcEEE5rfindB6v15006ERKS5_m", scope: !165, file: !166, line: 1306, type: !779, scopeLine: 1306, flags: DIFlagPublic | DIFlagPrototyped, spFlags: 0)
!791 = !DISubprogram(name: "rfind", linkageName: "_ZNKSt3__112basic_stringIcNS_11char_traitsIcEENS_9allocatorIcEEE5rfindEPKcmm", scope: !165, file: !166, line: 1317, type: !782, scopeLine: 1317, flags: DIFlagPublic | DIFlagPrototyped, spFlags: 0)
!792 = !DISubprogram(name: "rfind", linkageName: "_ZNKSt3__112basic_stringIcNS_11char_traitsIcEENS_9allocatorIcEEE5rfindB6v15006EPKcm", scope: !165, file: !166, line: 1319, type: !785, scopeLine: 1319, flags: DIFlagPublic | DIFlagPrototyped, spFlags: 0)
!793 = !DISubprogram(name: "rfind", linkageName: "_ZNKSt3__112basic_stringIcNS_11char_traitsIcEENS_9allocatorIcEEE5rfindEcm", scope: !165, file: !166, line: 1320, type: !788, scopeLine: 1320, flags: DIFlagPublic | DIFlagPrototyped, spFlags: 0)
!794 = !DISubprogram(name: "find_first_of", linkageName: "_ZNKSt3__112basic_stringIcNS_11char_traitsIcEENS_9allocatorIcEEE13find_first_ofB6v15006ERKS5_m", scope: !165, file: !166, line: 1323, type: !779, scopeLine: 1323, flags: DIFlagPublic | DIFlagPrototyped, spFlags: 0)
!795 = !DISubprogram(name: "find_first_of", linkageName: "_ZNKSt3__112basic_stringIcNS_11char_traitsIcEENS_9allocatorIcEEE13find_first_ofEPKcmm", scope: !165, file: !166, line: 1334, type: !782, scopeLine: 1334, flags: DIFlagPublic | DIFlagPrototyped, spFlags: 0)
!796 = !DISubprogram(name: "find_first_of", linkageName: "_ZNKSt3__112basic_stringIcNS_11char_traitsIcEENS_9allocatorIcEEE13find_first_ofB6v15006EPKcm", scope: !165, file: !166, line: 1336, type: !785, scopeLine: 1336, flags: DIFlagPublic | DIFlagPrototyped, spFlags: 0)
!797 = !DISubprogram(name: "find_first_of", linkageName: "_ZNKSt3__112basic_stringIcNS_11char_traitsIcEENS_9allocatorIcEEE13find_first_ofB6v15006Ecm", scope: !165, file: !166, line: 1338, type: !788, scopeLine: 1338, flags: DIFlagPublic | DIFlagPrototyped, spFlags: 0)
!798 = !DISubprogram(name: "find_last_of", linkageName: "_ZNKSt3__112basic_stringIcNS_11char_traitsIcEENS_9allocatorIcEEE12find_last_ofB6v15006ERKS5_m", scope: !165, file: !166, line: 1341, type: !779, scopeLine: 1341, flags: DIFlagPublic | DIFlagPrototyped, spFlags: 0)
!799 = !DISubprogram(name: "find_last_of", linkageName: "_ZNKSt3__112basic_stringIcNS_11char_traitsIcEENS_9allocatorIcEEE12find_last_ofEPKcmm", scope: !165, file: !166, line: 1352, type: !782, scopeLine: 1352, flags: DIFlagPublic | DIFlagPrototyped, spFlags: 0)
!800 = !DISubprogram(name: "find_last_of", linkageName: "_ZNKSt3__112basic_stringIcNS_11char_traitsIcEENS_9allocatorIcEEE12find_last_ofB6v15006EPKcm", scope: !165, file: !166, line: 1354, type: !785, scopeLine: 1354, flags: DIFlagPublic | DIFlagPrototyped, spFlags: 0)
!801 = !DISubprogram(name: "find_last_of", linkageName: "_ZNKSt3__112basic_stringIcNS_11char_traitsIcEENS_9allocatorIcEEE12find_last_ofB6v15006Ecm", scope: !165, file: !166, line: 1356, type: !788, scopeLine: 1356, flags: DIFlagPublic | DIFlagPrototyped, spFlags: 0)
!802 = !DISubprogram(name: "find_first_not_of", linkageName: "_ZNKSt3__112basic_stringIcNS_11char_traitsIcEENS_9allocatorIcEEE17find_first_not_ofB6v15006ERKS5_m", scope: !165, file: !166, line: 1359, type: !779, scopeLine: 1359, flags: DIFlagPublic | DIFlagPrototyped, spFlags: 0)
!803 = !DISubprogram(name: "find_first_not_of", linkageName: "_ZNKSt3__112basic_stringIcNS_11char_traitsIcEENS_9allocatorIcEEE17find_first_not_ofEPKcmm", scope: !165, file: !166, line: 1370, type: !782, scopeLine: 1370, flags: DIFlagPublic | DIFlagPrototyped, spFlags: 0)
!804 = !DISubprogram(name: "find_first_not_of", linkageName: "_ZNKSt3__112basic_stringIcNS_11char_traitsIcEENS_9allocatorIcEEE17find_first_not_ofB6v15006EPKcm", scope: !165, file: !166, line: 1372, type: !785, scopeLine: 1372, flags: DIFlagPublic | DIFlagPrototyped, spFlags: 0)
!805 = !DISubprogram(name: "find_first_not_of", linkageName: "_ZNKSt3__112basic_stringIcNS_11char_traitsIcEENS_9allocatorIcEEE17find_first_not_ofB6v15006Ecm", scope: !165, file: !166, line: 1374, type: !788, scopeLine: 1374, flags: DIFlagPublic | DIFlagPrototyped, spFlags: 0)
!806 = !DISubprogram(name: "find_last_not_of", linkageName: "_ZNKSt3__112basic_stringIcNS_11char_traitsIcEENS_9allocatorIcEEE16find_last_not_ofB6v15006ERKS5_m", scope: !165, file: !166, line: 1377, type: !779, scopeLine: 1377, flags: DIFlagPublic | DIFlagPrototyped, spFlags: 0)
!807 = !DISubprogram(name: "find_last_not_of", linkageName: "_ZNKSt3__112basic_stringIcNS_11char_traitsIcEENS_9allocatorIcEEE16find_last_not_ofEPKcmm", scope: !165, file: !166, line: 1388, type: !782, scopeLine: 1388, flags: DIFlagPublic | DIFlagPrototyped, spFlags: 0)
!808 = !DISubprogram(name: "find_last_not_of", linkageName: "_ZNKSt3__112basic_stringIcNS_11char_traitsIcEENS_9allocatorIcEEE16find_last_not_ofB6v15006EPKcm", scope: !165, file: !166, line: 1390, type: !785, scopeLine: 1390, flags: DIFlagPublic | DIFlagPrototyped, spFlags: 0)
!809 = !DISubprogram(name: "find_last_not_of", linkageName: "_ZNKSt3__112basic_stringIcNS_11char_traitsIcEENS_9allocatorIcEEE16find_last_not_ofB6v15006Ecm", scope: !165, file: !166, line: 1392, type: !788, scopeLine: 1392, flags: DIFlagPublic | DIFlagPrototyped, spFlags: 0)
!810 = !DISubprogram(name: "compare", linkageName: "_ZNKSt3__112basic_stringIcNS_11char_traitsIcEENS_9allocatorIcEEE7compareB6v15006ERKS5_", scope: !165, file: !166, line: 1395, type: !811, scopeLine: 1395, flags: DIFlagPublic | DIFlagPrototyped, spFlags: 0)
!811 = !DISubroutineType(types: !812)
!812 = !{!25, !598, !389}
!813 = !DISubprogram(name: "compare", linkageName: "_ZNKSt3__112basic_stringIcNS_11char_traitsIcEENS_9allocatorIcEEE7compareB6v15006EmmRKS5_", scope: !165, file: !166, line: 1416, type: !814, scopeLine: 1416, flags: DIFlagPublic | DIFlagPrototyped, spFlags: 0)
!814 = !DISubroutineType(types: !815)
!815 = !{!25, !598, !170, !170, !389}
!816 = !DISubprogram(name: "compare", linkageName: "_ZNKSt3__112basic_stringIcNS_11char_traitsIcEENS_9allocatorIcEEE7compareEmmRKS5_mm", scope: !165, file: !166, line: 1418, type: !817, scopeLine: 1418, flags: DIFlagPublic | DIFlagPrototyped, spFlags: 0)
!817 = !DISubroutineType(types: !818)
!818 = !{!25, !598, !170, !170, !389, !170, !170}
!819 = !DISubprogram(name: "compare", linkageName: "_ZNKSt3__112basic_stringIcNS_11char_traitsIcEENS_9allocatorIcEEE7compareEPKc", scope: !165, file: !166, line: 1429, type: !820, scopeLine: 1429, flags: DIFlagPublic | DIFlagPrototyped, spFlags: 0)
!820 = !DISubroutineType(types: !821)
!821 = !{!25, !598, !606}
!822 = !DISubprogram(name: "compare", linkageName: "_ZNKSt3__112basic_stringIcNS_11char_traitsIcEENS_9allocatorIcEEE7compareEmmPKc", scope: !165, file: !166, line: 1430, type: !823, scopeLine: 1430, flags: DIFlagPublic | DIFlagPrototyped, spFlags: 0)
!823 = !DISubroutineType(types: !824)
!824 = !{!25, !598, !170, !170, !606}
!825 = !DISubprogram(name: "compare", linkageName: "_ZNKSt3__112basic_stringIcNS_11char_traitsIcEENS_9allocatorIcEEE7compareEmmPKcm", scope: !165, file: !166, line: 1432, type: !826, scopeLine: 1432, flags: DIFlagPublic | DIFlagPrototyped, spFlags: 0)
!826 = !DISubroutineType(types: !827)
!827 = !{!25, !598, !170, !170, !606, !170}
!828 = !DISubprogram(name: "__invariants", linkageName: "_ZNKSt3__112basic_stringIcNS_11char_traitsIcEENS_9allocatorIcEEE12__invariantsB6v15006Ev", scope: !165, file: !166, line: 1474, type: !658, scopeLine: 1474, flags: DIFlagPublic | DIFlagPrototyped, spFlags: 0)
!829 = !DISubprogram(name: "__clear_and_shrink", linkageName: "_ZNSt3__112basic_stringIcNS_11char_traitsIcEENS_9allocatorIcEEE18__clear_and_shrinkB6v15006Ev", scope: !165, file: !166, line: 1476, type: !381, scopeLine: 1476, flags: DIFlagPublic | DIFlagPrototyped, spFlags: 0)
!830 = !DISubprogram(name: "__shrink_or_extend", linkageName: "_ZNSt3__112basic_stringIcNS_11char_traitsIcEENS_9allocatorIcEEE18__shrink_or_extendB6v15006Em", scope: !165, file: !166, line: 1493, type: !650, scopeLine: 1493, flags: DIFlagPrototyped, spFlags: 0)
!831 = !DISubprogram(name: "__is_long", linkageName: "_ZNKSt3__112basic_stringIcNS_11char_traitsIcEENS_9allocatorIcEEE9__is_longB6v15006Ev", scope: !165, file: !166, line: 1496, type: !658, scopeLine: 1496, flags: DIFlagPrototyped, spFlags: 0)
!832 = !DISubprogram(name: "__begin_lifetime", linkageName: "_ZNSt3__112basic_stringIcNS_11char_traitsIcEENS_9allocatorIcEEE16__begin_lifetimeB6v15006EPcm", scope: !165, file: !166, line: 1502, type: !833, scopeLine: 1502, flags: DIFlagPrototyped | DIFlagStaticMember, spFlags: 0)
!833 = !DISubroutineType(types: !834)
!834 = !{null, !257, !170}
!835 = !DISubprogram(name: "__default_init", linkageName: "_ZNSt3__112basic_stringIcNS_11char_traitsIcEENS_9allocatorIcEEE14__default_initB6v15006Ev", scope: !165, file: !166, line: 1514, type: !381, scopeLine: 1514, flags: DIFlagPrototyped, spFlags: 0)
!836 = !DISubprogram(name: "__deallocate_constexpr", linkageName: "_ZNSt3__112basic_stringIcNS_11char_traitsIcEENS_9allocatorIcEEE22__deallocate_constexprB6v15006Ev", scope: !165, file: !166, line: 1526, type: !381, scopeLine: 1526, flags: DIFlagPrototyped, spFlags: 0)
!837 = !DISubprogram(name: "__fits_in_sso", linkageName: "_ZNSt3__112basic_stringIcNS_11char_traitsIcEENS_9allocatorIcEEE13__fits_in_ssoB6v15006Em", scope: !165, file: !166, line: 1531, type: !838, scopeLine: 1531, flags: DIFlagPrototyped | DIFlagStaticMember, spFlags: 0)
!838 = !DISubroutineType(types: !839)
!839 = !{!192, !170}
!840 = !DISubprogram(name: "__alloc", linkageName: "_ZNSt3__112basic_stringIcNS_11char_traitsIcEENS_9allocatorIcEEE7__allocB6v15006Ev", scope: !165, file: !166, line: 1563, type: !841, scopeLine: 1563, flags: DIFlagPrototyped, spFlags: 0)
!841 = !DISubroutineType(types: !842)
!842 = !{!843, !375}
!843 = !DIDerivedType(tag: DW_TAG_reference_type, baseType: !379, size: 64)
!844 = !DISubprogram(name: "__alloc", linkageName: "_ZNKSt3__112basic_stringIcNS_11char_traitsIcEENS_9allocatorIcEEE7__allocB6v15006Ev", scope: !165, file: !166, line: 1564, type: !845, scopeLine: 1564, flags: DIFlagPrototyped, spFlags: 0)
!845 = !DISubroutineType(types: !846)
!846 = !{!377, !598}
!847 = !DISubprogram(name: "__set_short_size", linkageName: "_ZNSt3__112basic_stringIcNS_11char_traitsIcEENS_9allocatorIcEEE16__set_short_sizeB6v15006Em", scope: !165, file: !166, line: 1567, type: !650, scopeLine: 1567, flags: DIFlagPrototyped, spFlags: 0)
!848 = !DISubprogram(name: "__get_short_size", linkageName: "_ZNKSt3__112basic_stringIcNS_11char_traitsIcEENS_9allocatorIcEEE16__get_short_sizeB6v15006Ev", scope: !165, file: !166, line: 1574, type: !641, scopeLine: 1574, flags: DIFlagPrototyped, spFlags: 0)
!849 = !DISubprogram(name: "__set_long_size", linkageName: "_ZNSt3__112basic_stringIcNS_11char_traitsIcEENS_9allocatorIcEEE15__set_long_sizeB6v15006Em", scope: !165, file: !166, line: 1580, type: !650, scopeLine: 1580, flags: DIFlagPrototyped, spFlags: 0)
!850 = !DISubprogram(name: "__get_long_size", linkageName: "_ZNKSt3__112basic_stringIcNS_11char_traitsIcEENS_9allocatorIcEEE15__get_long_sizeB6v15006Ev", scope: !165, file: !166, line: 1583, type: !641, scopeLine: 1583, flags: DIFlagPrototyped, spFlags: 0)
!851 = !DISubprogram(name: "__set_size", linkageName: "_ZNSt3__112basic_stringIcNS_11char_traitsIcEENS_9allocatorIcEEE10__set_sizeB6v15006Em", scope: !165, file: !166, line: 1586, type: !650, scopeLine: 1586, flags: DIFlagPrototyped, spFlags: 0)
!852 = !DISubprogram(name: "__set_long_cap", linkageName: "_ZNSt3__112basic_stringIcNS_11char_traitsIcEENS_9allocatorIcEEE14__set_long_capB6v15006Em", scope: !165, file: !166, line: 1590, type: !650, scopeLine: 1590, flags: DIFlagPrototyped, spFlags: 0)
!853 = !DISubprogram(name: "__get_long_cap", linkageName: "_ZNKSt3__112basic_stringIcNS_11char_traitsIcEENS_9allocatorIcEEE14__get_long_capB6v15006Ev", scope: !165, file: !166, line: 1596, type: !641, scopeLine: 1596, flags: DIFlagPrototyped, spFlags: 0)
!854 = !DISubprogram(name: "__set_long_pointer", linkageName: "_ZNSt3__112basic_stringIcNS_11char_traitsIcEENS_9allocatorIcEEE18__set_long_pointerB6v15006EPc", scope: !165, file: !166, line: 1601, type: !855, scopeLine: 1601, flags: DIFlagPrototyped, spFlags: 0)
!855 = !DISubroutineType(types: !856)
!856 = !{null, !375, !257}
!857 = !DISubprogram(name: "__get_long_pointer", linkageName: "_ZNSt3__112basic_stringIcNS_11char_traitsIcEENS_9allocatorIcEEE18__get_long_pointerB6v15006Ev", scope: !165, file: !166, line: 1604, type: !858, scopeLine: 1604, flags: DIFlagPrototyped, spFlags: 0)
!858 = !DISubroutineType(types: !859)
!859 = !{!257, !375}
!860 = !DISubprogram(name: "__get_long_pointer", linkageName: "_ZNKSt3__112basic_stringIcNS_11char_traitsIcEENS_9allocatorIcEEE18__get_long_pointerB6v15006Ev", scope: !165, file: !166, line: 1607, type: !861, scopeLine: 1607, flags: DIFlagPrototyped, spFlags: 0)
!861 = !DISubroutineType(types: !862)
!862 = !{!863, !598}
!863 = !DIDerivedType(tag: DW_TAG_typedef, name: "const_pointer", scope: !165, file: !166, line: 669, baseType: !864)
!864 = !DIDerivedType(tag: DW_TAG_typedef, name: "const_pointer", scope: !173, file: !172, line: 234, baseType: !215)
!865 = !DISubprogram(name: "__get_short_pointer", linkageName: "_ZNSt3__112basic_stringIcNS_11char_traitsIcEENS_9allocatorIcEEE19__get_short_pointerB6v15006Ev", scope: !165, file: !166, line: 1610, type: !858, scopeLine: 1610, flags: DIFlagPrototyped, spFlags: 0)
!866 = !DISubprogram(name: "__get_short_pointer", linkageName: "_ZNKSt3__112basic_stringIcNS_11char_traitsIcEENS_9allocatorIcEEE19__get_short_pointerB6v15006Ev", scope: !165, file: !166, line: 1613, type: !861, scopeLine: 1613, flags: DIFlagPrototyped, spFlags: 0)
!867 = !DISubprogram(name: "__get_pointer", linkageName: "_ZNSt3__112basic_stringIcNS_11char_traitsIcEENS_9allocatorIcEEE13__get_pointerB6v15006Ev", scope: !165, file: !166, line: 1616, type: !858, scopeLine: 1616, flags: DIFlagPrototyped, spFlags: 0)
!868 = !DISubprogram(name: "__get_pointer", linkageName: "_ZNKSt3__112basic_stringIcNS_11char_traitsIcEENS_9allocatorIcEEE13__get_pointerB6v15006Ev", scope: !165, file: !166, line: 1619, type: !861, scopeLine: 1619, flags: DIFlagPrototyped, spFlags: 0)
!869 = !DISubprogram(name: "__zero", linkageName: "_ZNSt3__112basic_stringIcNS_11char_traitsIcEENS_9allocatorIcEEE6__zeroB6v15006Ev", scope: !165, file: !166, line: 1623, type: !381, scopeLine: 1623, flags: DIFlagPrototyped, spFlags: 0)
!870 = !DISubprogram(name: "__recommend", linkageName: "_ZNSt3__112basic_stringIcNS_11char_traitsIcEENS_9allocatorIcEEE11__recommendB6v15006Em", scope: !165, file: !166, line: 1633, type: !871, scopeLine: 1633, flags: DIFlagPrototyped | DIFlagStaticMember, spFlags: 0)
!871 = !DISubroutineType(types: !872)
!872 = !{!170, !170}
!873 = !DISubprogram(name: "__init", linkageName: "_ZNSt3__112basic_stringIcNS_11char_traitsIcEENS_9allocatorIcEEE6__initEPKcmm", scope: !165, file: !166, line: 1648, type: !874, scopeLine: 1648, flags: DIFlagPrototyped, spFlags: 0)
!874 = !DISubroutineType(types: !875)
!875 = !{null, !375, !606, !170, !170}
!876 = !DISubprogram(name: "__init", linkageName: "_ZNSt3__112basic_stringIcNS_11char_traitsIcEENS_9allocatorIcEEE6__initEPKcm", scope: !165, file: !166, line: 1650, type: !877, scopeLine: 1650, flags: DIFlagPrototyped, spFlags: 0)
!877 = !DISubroutineType(types: !878)
!878 = !{null, !375, !606, !170}
!879 = !DISubprogram(name: "__init", linkageName: "_ZNSt3__112basic_stringIcNS_11char_traitsIcEENS_9allocatorIcEEE6__initEmc", scope: !165, file: !166, line: 1652, type: !647, scopeLine: 1652, flags: DIFlagPrototyped, spFlags: 0)
!880 = !DISubprogram(name: "__init_copy_ctor_external", linkageName: "_ZNSt3__112basic_stringIcNS_11char_traitsIcEENS_9allocatorIcEEE25__init_copy_ctor_externalEPKcm", scope: !165, file: !166, line: 1662, type: !877, scopeLine: 1662, flags: DIFlagPrototyped, spFlags: 0)
!881 = !DISubprogram(name: "__grow_by", linkageName: "_ZNSt3__112basic_stringIcNS_11char_traitsIcEENS_9allocatorIcEEE9__grow_byEmmmmmm", scope: !165, file: !166, line: 1681, type: !882, scopeLine: 1681, flags: DIFlagPrototyped, spFlags: 0)
!882 = !DISubroutineType(types: !883)
!883 = !{null, !375, !170, !170, !170, !170, !170, !170}
!884 = !DISubprogram(name: "__grow_by_and_replace", linkageName: "_ZNSt3__112basic_stringIcNS_11char_traitsIcEENS_9allocatorIcEEE21__grow_by_and_replaceEmmmmmmPKc", scope: !165, file: !166, line: 1684, type: !885, scopeLine: 1684, flags: DIFlagPrototyped, spFlags: 0)
!885 = !DISubroutineType(types: !886)
!886 = !{null, !375, !170, !170, !170, !170, !170, !170, !606}
!887 = !DISubprogram(name: "__erase_to_end", linkageName: "_ZNSt3__112basic_stringIcNS_11char_traitsIcEENS_9allocatorIcEEE14__erase_to_endB6v15006Em", scope: !165, file: !166, line: 1695, type: !650, scopeLine: 1695, flags: DIFlagPrototyped, spFlags: 0)
!888 = !DISubprogram(name: "__erase_external_with_move", linkageName: "_ZNSt3__112basic_stringIcNS_11char_traitsIcEENS_9allocatorIcEEE26__erase_external_with_moveEmm", scope: !165, file: !166, line: 1699, type: !889, scopeLine: 1699, flags: DIFlagPrototyped, spFlags: 0)
!889 = !DISubroutineType(types: !890)
!890 = !{null, !375, !170, !170}
!891 = !DISubprogram(name: "__copy_assign_alloc", linkageName: "_ZNSt3__112basic_stringIcNS_11char_traitsIcEENS_9allocatorIcEEE19__copy_assign_allocB6v15006ERKS5_", scope: !165, file: !166, line: 1702, type: !387, scopeLine: 1702, flags: DIFlagPrototyped, spFlags: 0)
!892 = !DISubprogram(name: "__copy_assign_alloc", linkageName: "_ZNSt3__112basic_stringIcNS_11char_traitsIcEENS_9allocatorIcEEE19__copy_assign_allocB6v15006ERKS5_NS_17integral_constantIbLb1EEE", scope: !165, file: !166, line: 1707, type: !893, scopeLine: 1707, flags: DIFlagPrototyped, spFlags: 0)
!893 = !DISubroutineType(types: !894)
!894 = !{null, !375, !389, !895}
!895 = !DIDerivedType(tag: DW_TAG_typedef, name: "true_type", scope: !17, file: !896, line: 37, baseType: !897)
!896 = !DIFile(filename: "/Library/Developer/CommandLineTools/SDKs/MacOSX.sdk/usr/include/c++/v1/__type_traits/integral_constant.h", directory: "")
!897 = distinct !DICompositeType(tag: DW_TAG_structure_type, name: "integral_constant<bool, true>", scope: !17, file: !896, line: 21, size: 8, flags: DIFlagTypePassByValue, elements: !898, templateParams: !907, identifier: "_ZTSNSt3__117integral_constantIbLb1EEE")
!898 = !{!899, !901}
!899 = !DIDerivedType(tag: DW_TAG_member, name: "value", scope: !897, file: !896, line: 23, baseType: !900, flags: DIFlagStaticMember, extraData: i1 true)
!900 = !DIDerivedType(tag: DW_TAG_const_type, baseType: !192)
!901 = !DISubprogram(name: "operator bool", linkageName: "_ZNKSt3__117integral_constantIbLb1EEcvbB6v15006Ev", scope: !897, file: !896, line: 27, type: !902, scopeLine: 27, flags: DIFlagPrototyped, spFlags: 0)
!902 = !DISubroutineType(types: !903)
!903 = !{!904, !905}
!904 = !DIDerivedType(tag: DW_TAG_typedef, name: "value_type", scope: !897, file: !896, line: 24, baseType: !192)
!905 = !DIDerivedType(tag: DW_TAG_pointer_type, baseType: !906, size: 64, flags: DIFlagArtificial | DIFlagObjectPointer)
!906 = !DIDerivedType(tag: DW_TAG_const_type, baseType: !897)
!907 = !{!908, !909}
!908 = !DITemplateTypeParameter(name: "_Tp", type: !192)
!909 = !DITemplateValueParameter(name: "__v", type: !192, value: i8 1)
!910 = !DISubprogram(name: "__copy_assign_alloc", linkageName: "_ZNSt3__112basic_stringIcNS_11char_traitsIcEENS_9allocatorIcEEE19__copy_assign_allocB6v15006ERKS5_NS_17integral_constantIbLb0EEE", scope: !165, file: !166, line: 1733, type: !911, scopeLine: 1733, flags: DIFlagPrototyped, spFlags: 0)
!911 = !DISubroutineType(types: !912)
!912 = !{null, !375, !389, !913}
!913 = !DIDerivedType(tag: DW_TAG_typedef, name: "false_type", scope: !17, file: !896, line: 38, baseType: !914)
!914 = distinct !DICompositeType(tag: DW_TAG_structure_type, name: "integral_constant<bool, false>", scope: !17, file: !896, line: 21, size: 8, flags: DIFlagTypePassByValue, elements: !915, templateParams: !923, identifier: "_ZTSNSt3__117integral_constantIbLb0EEE")
!915 = !{!916, !917}
!916 = !DIDerivedType(tag: DW_TAG_member, name: "value", scope: !914, file: !896, line: 23, baseType: !900, flags: DIFlagStaticMember, extraData: i1 false)
!917 = !DISubprogram(name: "operator bool", linkageName: "_ZNKSt3__117integral_constantIbLb0EEcvbB6v15006Ev", scope: !914, file: !896, line: 27, type: !918, scopeLine: 27, flags: DIFlagPrototyped, spFlags: 0)
!918 = !DISubroutineType(types: !919)
!919 = !{!920, !921}
!920 = !DIDerivedType(tag: DW_TAG_typedef, name: "value_type", scope: !914, file: !896, line: 24, baseType: !192)
!921 = !DIDerivedType(tag: DW_TAG_pointer_type, baseType: !922, size: 64, flags: DIFlagArtificial | DIFlagObjectPointer)
!922 = !DIDerivedType(tag: DW_TAG_const_type, baseType: !914)
!923 = !{!908, !924}
!924 = !DITemplateValueParameter(name: "__v", type: !192, value: i8 0)
!925 = !DISubprogram(name: "__move_assign_alloc", linkageName: "_ZNSt3__112basic_stringIcNS_11char_traitsIcEENS_9allocatorIcEEE19__move_assign_allocB6v15006ERS5_", scope: !165, file: !166, line: 1751, type: !769, scopeLine: 1751, flags: DIFlagPrototyped, spFlags: 0)
!926 = !DISubprogram(name: "__move_assign_alloc", linkageName: "_ZNSt3__112basic_stringIcNS_11char_traitsIcEENS_9allocatorIcEEE19__move_assign_allocB6v15006ERS5_NS_17integral_constantIbLb1EEE", scope: !165, file: !166, line: 1759, type: !927, scopeLine: 1759, flags: DIFlagPrototyped, spFlags: 0)
!927 = !DISubroutineType(types: !928)
!928 = !{null, !375, !602, !895}
!929 = !DISubprogram(name: "__move_assign_alloc", linkageName: "_ZNSt3__112basic_stringIcNS_11char_traitsIcEENS_9allocatorIcEEE19__move_assign_allocB6v15006ERS5_NS_17integral_constantIbLb0EEE", scope: !165, file: !166, line: 1766, type: !930, scopeLine: 1766, flags: DIFlagPrototyped, spFlags: 0)
!930 = !DISubroutineType(types: !931)
!931 = !{null, !375, !602, !913}
!932 = !DISubprogram(name: "__assign_external", linkageName: "_ZNSt3__112basic_stringIcNS_11char_traitsIcEENS_9allocatorIcEEE17__assign_externalEPKc", scope: !165, file: !166, line: 1770, type: !604, scopeLine: 1770, flags: DIFlagPrototyped, spFlags: 0)
!933 = !DISubprogram(name: "__assign_external", linkageName: "_ZNSt3__112basic_stringIcNS_11char_traitsIcEENS_9allocatorIcEEE17__assign_externalEPKcm", scope: !165, file: !166, line: 1771, type: !680, scopeLine: 1771, flags: DIFlagPrototyped, spFlags: 0)
!934 = !DISubprogram(name: "__assign_short", linkageName: "_ZNSt3__112basic_stringIcNS_11char_traitsIcEENS_9allocatorIcEEE14__assign_shortEPKcm", scope: !165, file: !166, line: 1774, type: !680, scopeLine: 1774, flags: DIFlagPrototyped, spFlags: 0)
!935 = !DISubprogram(name: "__null_terminate_at", linkageName: "_ZNSt3__112basic_stringIcNS_11char_traitsIcEENS_9allocatorIcEEE19__null_terminate_atB6v15006EPcm", scope: !165, file: !166, line: 1784, type: !936, scopeLine: 1784, flags: DIFlagPrototyped, spFlags: 0)
!936 = !DISubroutineType(types: !937)
!937 = !{!602, !375, !764, !170}
!938 = !DISubprogram(name: "__invalidate_iterators_past", linkageName: "_ZNSt3__112basic_stringIcNS_11char_traitsIcEENS_9allocatorIcEEE27__invalidate_iterators_pastB6v15006Em", scope: !165, file: !166, line: 1791, type: !650, scopeLine: 1791, flags: DIFlagPrototyped, spFlags: 0)
!939 = !DISubprogram(name: "__throw_length_error", linkageName: "_ZNKSt3__112basic_stringIcNS_11char_traitsIcEENS_9allocatorIcEEE20__throw_length_errorB6v15006Ev", scope: !165, file: !166, line: 1804, type: !940, scopeLine: 1804, flags: DIFlagPrototyped | DIFlagNoReturn, spFlags: 0)
!940 = !DISubroutineType(types: !941)
!941 = !{null, !598}
!942 = !DISubprogram(name: "__throw_out_of_range", linkageName: "_ZNKSt3__112basic_stringIcNS_11char_traitsIcEENS_9allocatorIcEEE20__throw_out_of_rangeB6v15006Ev", scope: !165, file: !166, line: 1809, type: !940, scopeLine: 1809, flags: DIFlagPrototyped | DIFlagNoReturn, spFlags: 0)
!943 = !{!547, !548, !944}
!944 = !DITemplateTypeParameter(name: "_Allocator", type: !181)
!945 = !DISubprogram(name: "locale", scope: !127, file: !128, line: 146, type: !946, scopeLine: 146, flags: DIFlagPublic | DIFlagPrototyped, spFlags: 0)
!946 = !DISubroutineType(types: !947)
!947 = !{null, !146, !150, !155, !132}
!948 = !DISubprogram(name: "locale", scope: !127, file: !128, line: 147, type: !949, scopeLine: 147, flags: DIFlagPublic | DIFlagPrototyped, spFlags: 0)
!949 = !DISubroutineType(types: !950)
!950 = !{null, !146, !150, !161, !132}
!951 = !DISubprogram(name: "locale", scope: !127, file: !128, line: 150, type: !952, scopeLine: 150, flags: DIFlagPublic | DIFlagPrototyped, spFlags: 0)
!952 = !DISubroutineType(types: !953)
!953 = !{null, !146, !150, !150, !132}
!954 = !DISubprogram(name: "~locale", scope: !127, file: !128, line: 152, type: !144, scopeLine: 152, flags: DIFlagPublic | DIFlagPrototyped, spFlags: 0)
!955 = !DISubprogram(name: "operator=", linkageName: "_ZNSt3__16localeaSERKS0_", scope: !127, file: !128, line: 154, type: !956, scopeLine: 154, flags: DIFlagPublic | DIFlagPrototyped, spFlags: 0)
!956 = !DISubroutineType(types: !957)
!957 = !{!150, !146, !150}
!958 = !DISubprogram(name: "name", linkageName: "_ZNKSt3__16locale4nameEv", scope: !127, file: !128, line: 161, type: !959, scopeLine: 161, flags: DIFlagPublic | DIFlagPrototyped, spFlags: 0)
!959 = !DISubroutineType(types: !960)
!960 = !{!163, !961}
!961 = !DIDerivedType(tag: DW_TAG_pointer_type, baseType: !151, size: 64, flags: DIFlagArtificial | DIFlagObjectPointer)
!962 = !DISubprogram(name: "operator==", linkageName: "_ZNKSt3__16localeeqERKS0_", scope: !127, file: !128, line: 162, type: !963, scopeLine: 162, flags: DIFlagPublic | DIFlagPrototyped, spFlags: 0)
!963 = !DISubroutineType(types: !964)
!964 = !{!192, !961, !150}
!965 = !DISubprogram(name: "operator!=", linkageName: "_ZNKSt3__16localeneERKS0_", scope: !127, file: !128, line: 163, type: !963, scopeLine: 163, flags: DIFlagPublic | DIFlagPrototyped, spFlags: 0)
!966 = !DISubprogram(name: "global", linkageName: "_ZNSt3__16locale6globalERKS0_", scope: !127, file: !128, line: 170, type: !967, scopeLine: 170, flags: DIFlagPublic | DIFlagPrototyped | DIFlagStaticMember, spFlags: 0)
!967 = !DISubroutineType(types: !968)
!968 = !{!127, !150}
!969 = !DISubprogram(name: "classic", linkageName: "_ZNSt3__16locale7classicEv", scope: !127, file: !128, line: 171, type: !970, scopeLine: 171, flags: DIFlagPublic | DIFlagPrototyped | DIFlagStaticMember, spFlags: 0)
!970 = !DISubroutineType(types: !971)
!971 = !{!150}
!972 = !DISubprogram(name: "__install_ctor", linkageName: "_ZNSt3__16locale14__install_ctorERKS0_PNS0_5facetEl", scope: !127, file: !128, line: 177, type: !973, scopeLine: 177, flags: DIFlagPrototyped, spFlags: 0)
!973 = !DISubroutineType(types: !974)
!974 = !{null, !146, !150, !975, !66}
!975 = !DIDerivedType(tag: DW_TAG_pointer_type, baseType: !976, size: 64)
!976 = distinct !DICompositeType(tag: DW_TAG_class_type, name: "facet", scope: !127, file: !128, line: 186, size: 128, flags: DIFlagTypePassByReference | DIFlagNonTrivial, elements: !977, vtableHolder: !979)
!977 = !{!978, !1009, !1013, !1016}
!978 = !DIDerivedType(tag: DW_TAG_inheritance, scope: !976, baseType: !979, flags: DIFlagPublic, extraData: i32 0)
!979 = distinct !DICompositeType(tag: DW_TAG_class_type, name: "__shared_count", scope: !17, file: !980, line: 147, size: 128, flags: DIFlagTypePassByReference | DIFlagNonTrivial, elements: !981, vtableHolder: !979)
!980 = !DIFile(filename: "/Library/Developer/CommandLineTools/SDKs/MacOSX.sdk/usr/include/c++/v1/__memory/shared_ptr.h", directory: "")
!981 = !{!982, !983, !984, !990, !994, !997, !998, !1001, !1002, !1005}
!982 = !DIDerivedType(tag: DW_TAG_member, name: "_vptr$__shared_count", scope: !980, file: !980, baseType: !21, size: 64, flags: DIFlagArtificial)
!983 = !DIDerivedType(tag: DW_TAG_member, name: "__shared_owners_", scope: !979, file: !980, line: 153, baseType: !66, size: 64, offset: 64, flags: DIFlagProtected)
!984 = !DISubprogram(name: "__shared_count", scope: !979, file: !980, line: 149, type: !985, scopeLine: 149, flags: DIFlagPrototyped, spFlags: 0)
!985 = !DISubroutineType(types: !986)
!986 = !{null, !987, !988}
!987 = !DIDerivedType(tag: DW_TAG_pointer_type, baseType: !979, size: 64, flags: DIFlagArtificial | DIFlagObjectPointer)
!988 = !DIDerivedType(tag: DW_TAG_reference_type, baseType: !989, size: 64)
!989 = !DIDerivedType(tag: DW_TAG_const_type, baseType: !979)
!990 = !DISubprogram(name: "operator=", linkageName: "_ZNSt3__114__shared_countaSERKS0_", scope: !979, file: !980, line: 150, type: !991, scopeLine: 150, flags: DIFlagPrototyped, spFlags: 0)
!991 = !DISubroutineType(types: !992)
!992 = !{!993, !987, !988}
!993 = !DIDerivedType(tag: DW_TAG_reference_type, baseType: !979, size: 64)
!994 = !DISubprogram(name: "~__shared_count", scope: !979, file: !980, line: 154, type: !995, scopeLine: 154, containingType: !979, virtualIndex: 0, flags: DIFlagProtected | DIFlagPrototyped, spFlags: DISPFlagVirtual)
!995 = !DISubroutineType(types: !996)
!996 = !{null, !987}
!997 = !DISubprogram(name: "__on_zero_shared", linkageName: "_ZNSt3__114__shared_count16__on_zero_sharedEv", scope: !979, file: !980, line: 156, type: !995, scopeLine: 156, containingType: !979, virtualIndex: 2, flags: DIFlagPrototyped, spFlags: DISPFlagPureVirtual)
!998 = !DISubprogram(name: "__shared_count", scope: !979, file: !980, line: 160, type: !999, scopeLine: 160, flags: DIFlagPublic | DIFlagExplicit | DIFlagPrototyped, spFlags: 0)
!999 = !DISubroutineType(types: !1000)
!1000 = !{null, !987, !66}
!1001 = !DISubprogram(name: "__add_shared", linkageName: "_ZNSt3__114__shared_count12__add_sharedB6v15006Ev", scope: !979, file: !980, line: 168, type: !995, scopeLine: 168, flags: DIFlagPublic | DIFlagPrototyped, spFlags: 0)
!1002 = !DISubprogram(name: "__release_shared", linkageName: "_ZNSt3__114__shared_count16__release_sharedB6v15006Ev", scope: !979, file: !980, line: 172, type: !1003, scopeLine: 172, flags: DIFlagPublic | DIFlagPrototyped, spFlags: 0)
!1003 = !DISubroutineType(types: !1004)
!1004 = !{!192, !987}
!1005 = !DISubprogram(name: "use_count", linkageName: "_ZNKSt3__114__shared_count9use_countB6v15006Ev", scope: !979, file: !980, line: 181, type: !1006, scopeLine: 181, flags: DIFlagPublic | DIFlagPrototyped, spFlags: 0)
!1006 = !DISubroutineType(types: !1007)
!1007 = !{!66, !1008}
!1008 = !DIDerivedType(tag: DW_TAG_pointer_type, baseType: !989, size: 64, flags: DIFlagArtificial | DIFlagObjectPointer)
!1009 = !DISubprogram(name: "facet", scope: !976, file: !128, line: 191, type: !1010, scopeLine: 191, flags: DIFlagProtected | DIFlagExplicit | DIFlagPrototyped, spFlags: 0)
!1010 = !DISubroutineType(types: !1011)
!1011 = !{null, !1012, !83}
!1012 = !DIDerivedType(tag: DW_TAG_pointer_type, baseType: !976, size: 64, flags: DIFlagArtificial | DIFlagObjectPointer)
!1013 = !DISubprogram(name: "~facet", scope: !976, file: !128, line: 194, type: !1014, scopeLine: 194, containingType: !976, virtualIndex: 0, flags: DIFlagProtected | DIFlagPrototyped, spFlags: DISPFlagVirtual)
!1014 = !DISubroutineType(types: !1015)
!1015 = !{null, !1012}
!1016 = !DISubprogram(name: "__on_zero_shared", linkageName: "_ZNSt3__16locale5facet16__on_zero_sharedEv", scope: !976, file: !128, line: 199, type: !1014, scopeLine: 199, containingType: !976, virtualIndex: 2, flags: DIFlagPrototyped, spFlags: DISPFlagVirtual)
!1017 = !DISubprogram(name: "__global", linkageName: "_ZNSt3__16locale8__globalEv", scope: !127, file: !128, line: 178, type: !1018, scopeLine: 178, flags: DIFlagPrototyped | DIFlagStaticMember, spFlags: 0)
!1018 = !DISubroutineType(types: !1019)
!1019 = !{!1020}
!1020 = !DIDerivedType(tag: DW_TAG_reference_type, baseType: !127, size: 64)
!1021 = !DISubprogram(name: "has_facet", linkageName: "_ZNKSt3__16locale9has_facetERNS0_2idE", scope: !127, file: !128, line: 179, type: !1022, scopeLine: 179, flags: DIFlagPrototyped, spFlags: 0)
!1022 = !DISubroutineType(types: !1023)
!1023 = !{!192, !961, !1024}
!1024 = !DIDerivedType(tag: DW_TAG_reference_type, baseType: !1025, size: 64)
!1025 = distinct !DICompositeType(tag: DW_TAG_class_type, name: "id", scope: !127, file: !128, line: 202, size: 128, flags: DIFlagTypePassByValue | DIFlagNonTrivial, elements: !1026, identifier: "_ZTSNSt3__16locale2idE")
!1026 = !{!1027, !1046, !1049, !1050, !1054, !1059, !1060, !1061}
!1027 = !DIDerivedType(tag: DW_TAG_member, name: "__flag_", scope: !1025, file: !128, line: 204, baseType: !1028, size: 64)
!1028 = distinct !DICompositeType(tag: DW_TAG_structure_type, name: "once_flag", scope: !17, file: !1029, line: 573, size: 64, flags: DIFlagTypePassByValue | DIFlagNonTrivial, elements: !1030, identifier: "_ZTSNSt3__19once_flagE")
!1029 = !DIFile(filename: "/Library/Developer/CommandLineTools/SDKs/MacOSX.sdk/usr/include/c++/v1/mutex", directory: "")
!1030 = !{!1031, !1033, !1037, !1042}
!1031 = !DIDerivedType(tag: DW_TAG_member, name: "__state_", scope: !1028, file: !1029, line: 588, baseType: !1032, size: 64, flags: DIFlagPrivate)
!1032 = !DIDerivedType(tag: DW_TAG_typedef, name: "_State_type", scope: !1028, file: !1029, line: 584, baseType: !87)
!1033 = !DISubprogram(name: "once_flag", scope: !1028, file: !1029, line: 577, type: !1034, scopeLine: 577, flags: DIFlagPrototyped, spFlags: 0)
!1034 = !DISubroutineType(types: !1035)
!1035 = !{null, !1036}
!1036 = !DIDerivedType(tag: DW_TAG_pointer_type, baseType: !1028, size: 64, flags: DIFlagArtificial | DIFlagObjectPointer)
!1037 = !DISubprogram(name: "once_flag", scope: !1028, file: !1029, line: 578, type: !1038, scopeLine: 578, flags: DIFlagPrototyped, spFlags: DISPFlagDeleted)
!1038 = !DISubroutineType(types: !1039)
!1039 = !{null, !1036, !1040}
!1040 = !DIDerivedType(tag: DW_TAG_reference_type, baseType: !1041, size: 64)
!1041 = !DIDerivedType(tag: DW_TAG_const_type, baseType: !1028)
!1042 = !DISubprogram(name: "operator=", linkageName: "_ZNSt3__19once_flagaSERKS0_", scope: !1028, file: !1029, line: 579, type: !1043, scopeLine: 579, flags: DIFlagPrototyped, spFlags: DISPFlagDeleted)
!1043 = !DISubroutineType(types: !1044)
!1044 = !{!1045, !1036, !1040}
!1045 = !DIDerivedType(tag: DW_TAG_reference_type, baseType: !1028, size: 64)
!1046 = !DIDerivedType(tag: DW_TAG_member, name: "__id_", scope: !1025, file: !128, line: 205, baseType: !1047, size: 32, offset: 64)
!1047 = !DIDerivedType(tag: DW_TAG_typedef, name: "int32_t", file: !1048, line: 30, baseType: !25)
!1048 = !DIFile(filename: "/Library/Developer/CommandLineTools/SDKs/MacOSX.sdk/usr/include/sys/_types/_int32_t.h", directory: "")
!1049 = !DIDerivedType(tag: DW_TAG_member, name: "__next_id", scope: !1025, file: !128, line: 207, baseType: !1047, flags: DIFlagStaticMember)
!1050 = !DISubprogram(name: "id", scope: !1025, file: !128, line: 209, type: !1051, scopeLine: 209, flags: DIFlagPublic | DIFlagPrototyped, spFlags: 0)
!1051 = !DISubroutineType(types: !1052)
!1052 = !{null, !1053}
!1053 = !DIDerivedType(tag: DW_TAG_pointer_type, baseType: !1025, size: 64, flags: DIFlagArtificial | DIFlagObjectPointer)
!1054 = !DISubprogram(name: "operator=", linkageName: "_ZNSt3__16locale2idaSERKS1_", scope: !1025, file: !128, line: 210, type: !1055, scopeLine: 210, flags: DIFlagPublic | DIFlagPrototyped, spFlags: DISPFlagDeleted)
!1055 = !DISubroutineType(types: !1056)
!1056 = !{null, !1053, !1057}
!1057 = !DIDerivedType(tag: DW_TAG_reference_type, baseType: !1058, size: 64)
!1058 = !DIDerivedType(tag: DW_TAG_const_type, baseType: !1025)
!1059 = !DISubprogram(name: "id", scope: !1025, file: !128, line: 211, type: !1055, scopeLine: 211, flags: DIFlagPublic | DIFlagPrototyped, spFlags: DISPFlagDeleted)
!1060 = !DISubprogram(name: "__init", linkageName: "_ZNSt3__16locale2id6__initEv", scope: !1025, file: !128, line: 214, type: !1051, scopeLine: 214, flags: DIFlagPrototyped, spFlags: 0)
!1061 = !DISubprogram(name: "__get", linkageName: "_ZNSt3__16locale2id5__getEv", scope: !1025, file: !128, line: 216, type: !1062, scopeLine: 216, flags: DIFlagPublic | DIFlagPrototyped, spFlags: 0)
!1062 = !DISubroutineType(types: !1063)
!1063 = !{!66, !1053}
!1064 = !DISubprogram(name: "use_facet", linkageName: "_ZNKSt3__16locale9use_facetERNS0_2idE", scope: !127, file: !128, line: 180, type: !1065, scopeLine: 180, flags: DIFlagPrototyped, spFlags: 0)
!1065 = !DISubroutineType(types: !1066)
!1066 = !{!1067, !961, !1024}
!1067 = !DIDerivedType(tag: DW_TAG_pointer_type, baseType: !1068, size: 64)
!1068 = !DIDerivedType(tag: DW_TAG_const_type, baseType: !976)
!1069 = !DISubprogram(name: "getloc", linkageName: "_ZNKSt3__18ios_base6getlocEv", scope: !16, file: !15, line: 307, type: !1070, scopeLine: 307, flags: DIFlagPublic | DIFlagPrototyped, spFlags: 0)
!1070 = !DISubroutineType(types: !1071)
!1071 = !{!127, !103}
!1072 = !DISubprogram(name: "xalloc", linkageName: "_ZNSt3__18ios_base6xallocEv", scope: !16, file: !15, line: 310, type: !23, scopeLine: 310, flags: DIFlagPublic | DIFlagPrototyped | DIFlagStaticMember, spFlags: 0)
!1073 = !DISubprogram(name: "iword", linkageName: "_ZNSt3__18ios_base5iwordEi", scope: !16, file: !15, line: 311, type: !1074, scopeLine: 311, flags: DIFlagPublic | DIFlagPrototyped, spFlags: 0)
!1074 = !DISubroutineType(types: !1075)
!1075 = !{!1076, !108, !25}
!1076 = !DIDerivedType(tag: DW_TAG_reference_type, baseType: !66, size: 64)
!1077 = !DISubprogram(name: "pword", linkageName: "_ZNSt3__18ios_base5pwordEi", scope: !16, file: !15, line: 312, type: !1078, scopeLine: 312, flags: DIFlagPublic | DIFlagPrototyped, spFlags: 0)
!1078 = !DISubroutineType(types: !1079)
!1079 = !{!1080, !108, !25}
!1080 = !DIDerivedType(tag: DW_TAG_reference_type, baseType: !71, size: 64)
!1081 = !DISubprogram(name: "~ios_base", scope: !16, file: !15, line: 315, type: !1082, scopeLine: 315, containingType: !16, virtualIndex: 0, flags: DIFlagPublic | DIFlagPrototyped, spFlags: DISPFlagVirtual)
!1082 = !DISubroutineType(types: !1083)
!1083 = !{null, !108}
!1084 = !DISubprogram(name: "register_callback", linkageName: "_ZNSt3__18ios_base17register_callbackEPFvNS0_5eventERS0_iEi", scope: !16, file: !15, line: 320, type: !1085, scopeLine: 320, flags: DIFlagPublic | DIFlagPrototyped, spFlags: 0)
!1085 = !DISubroutineType(types: !1086)
!1086 = !{null, !108, !75, !25}
!1087 = !DISubprogram(name: "ios_base", scope: !16, file: !15, line: 322, type: !1088, scopeLine: 322, flags: DIFlagPublic | DIFlagPrototyped, spFlags: DISPFlagDeleted)
!1088 = !DISubroutineType(types: !1089)
!1089 = !{null, !108, !1090}
!1090 = !DIDerivedType(tag: DW_TAG_reference_type, baseType: !104, size: 64)
!1091 = !DISubprogram(name: "operator=", linkageName: "_ZNSt3__18ios_baseaSERKS0_", scope: !16, file: !15, line: 323, type: !1092, scopeLine: 323, flags: DIFlagPublic | DIFlagPrototyped, spFlags: DISPFlagDeleted)
!1092 = !DISubroutineType(types: !1093)
!1093 = !{!79, !108, !1090}
!1094 = !DISubprogram(name: "sync_with_stdio", linkageName: "_ZNSt3__18ios_base15sync_with_stdioEb", scope: !16, file: !15, line: 325, type: !1095, scopeLine: 325, flags: DIFlagPublic | DIFlagPrototyped | DIFlagStaticMember, spFlags: 0)
!1095 = !DISubroutineType(types: !1096)
!1096 = !{!192, !192}
!1097 = !DISubprogram(name: "rdstate", linkageName: "_ZNKSt3__18ios_base7rdstateB6v15006Ev", scope: !16, file: !15, line: 327, type: !1098, scopeLine: 327, flags: DIFlagPublic | DIFlagPrototyped, spFlags: 0)
!1098 = !DISubroutineType(types: !1099)
!1099 = !{!49, !103}
!1100 = !DISubprogram(name: "clear", linkageName: "_ZNSt3__18ios_base5clearEj", scope: !16, file: !15, line: 328, type: !1101, scopeLine: 328, flags: DIFlagPublic | DIFlagPrototyped, spFlags: 0)
!1101 = !DISubroutineType(types: !1102)
!1102 = !{null, !108, !49}
!1103 = !DISubprogram(name: "setstate", linkageName: "_ZNSt3__18ios_base8setstateB6v15006Ej", scope: !16, file: !15, line: 329, type: !1101, scopeLine: 329, flags: DIFlagPublic | DIFlagPrototyped, spFlags: 0)
!1104 = !DISubprogram(name: "good", linkageName: "_ZNKSt3__18ios_base4goodB6v15006Ev", scope: !16, file: !15, line: 331, type: !1105, scopeLine: 331, flags: DIFlagPublic | DIFlagPrototyped, spFlags: 0)
!1105 = !DISubroutineType(types: !1106)
!1106 = !{!192, !103}
!1107 = !DISubprogram(name: "eof", linkageName: "_ZNKSt3__18ios_base3eofB6v15006Ev", scope: !16, file: !15, line: 332, type: !1105, scopeLine: 332, flags: DIFlagPublic | DIFlagPrototyped, spFlags: 0)
!1108 = !DISubprogram(name: "fail", linkageName: "_ZNKSt3__18ios_base4failB6v15006Ev", scope: !16, file: !15, line: 333, type: !1105, scopeLine: 333, flags: DIFlagPublic | DIFlagPrototyped, spFlags: 0)
!1109 = !DISubprogram(name: "bad", linkageName: "_ZNKSt3__18ios_base3badB6v15006Ev", scope: !16, file: !15, line: 334, type: !1105, scopeLine: 334, flags: DIFlagPublic | DIFlagPrototyped, spFlags: 0)
!1110 = !DISubprogram(name: "exceptions", linkageName: "_ZNKSt3__18ios_base10exceptionsB6v15006Ev", scope: !16, file: !15, line: 336, type: !1098, scopeLine: 336, flags: DIFlagPublic | DIFlagPrototyped, spFlags: 0)
!1111 = !DISubprogram(name: "exceptions", linkageName: "_ZNSt3__18ios_base10exceptionsB6v15006Ej", scope: !16, file: !15, line: 337, type: !1101, scopeLine: 337, flags: DIFlagPublic | DIFlagPrototyped, spFlags: 0)
!1112 = !DISubprogram(name: "__set_badbit_and_consider_rethrow", linkageName: "_ZNSt3__18ios_base33__set_badbit_and_consider_rethrowEv", scope: !16, file: !15, line: 339, type: !1082, scopeLine: 339, flags: DIFlagPublic | DIFlagPrototyped, spFlags: 0)
!1113 = !DISubprogram(name: "__set_failbit_and_consider_rethrow", linkageName: "_ZNSt3__18ios_base34__set_failbit_and_consider_rethrowEv", scope: !16, file: !15, line: 340, type: !1082, scopeLine: 340, flags: DIFlagPublic | DIFlagPrototyped, spFlags: 0)
!1114 = !DISubprogram(name: "__setstate_nothrow", linkageName: "_ZNSt3__18ios_base18__setstate_nothrowB6v15006Ej", scope: !16, file: !15, line: 343, type: !1101, scopeLine: 343, flags: DIFlagPublic | DIFlagPrototyped, spFlags: 0)
!1115 = !DISubprogram(name: "ios_base", scope: !16, file: !15, line: 353, type: !1082, scopeLine: 353, flags: DIFlagProtected | DIFlagPrototyped, spFlags: 0)
!1116 = !DISubprogram(name: "init", linkageName: "_ZNSt3__18ios_base4initEPv", scope: !16, file: !15, line: 356, type: !1117, scopeLine: 356, flags: DIFlagProtected | DIFlagPrototyped, spFlags: 0)
!1117 = !DISubroutineType(types: !1118)
!1118 = !{null, !108, !71}
!1119 = !DISubprogram(name: "rdbuf", linkageName: "_ZNKSt3__18ios_base5rdbufB6v15006Ev", scope: !16, file: !15, line: 357, type: !1120, scopeLine: 357, flags: DIFlagProtected | DIFlagPrototyped, spFlags: 0)
!1120 = !DISubroutineType(types: !1121)
!1121 = !{!71, !103}
!1122 = !DISubprogram(name: "rdbuf", linkageName: "_ZNSt3__18ios_base5rdbufB6v15006EPv", scope: !16, file: !15, line: 360, type: !1117, scopeLine: 360, flags: DIFlagProtected | DIFlagPrototyped, spFlags: 0)
!1123 = !DISubprogram(name: "__call_callbacks", linkageName: "_ZNSt3__18ios_base16__call_callbacksENS0_5eventE", scope: !16, file: !15, line: 366, type: !1124, scopeLine: 366, flags: DIFlagProtected | DIFlagPrototyped, spFlags: 0)
!1124 = !DISubroutineType(types: !1125)
!1125 = !{null, !108, !14}
!1126 = !DISubprogram(name: "copyfmt", linkageName: "_ZNSt3__18ios_base7copyfmtERKS0_", scope: !16, file: !15, line: 367, type: !1088, scopeLine: 367, flags: DIFlagProtected | DIFlagPrototyped, spFlags: 0)
!1127 = !DISubprogram(name: "move", linkageName: "_ZNSt3__18ios_base4moveERS0_", scope: !16, file: !15, line: 368, type: !1128, scopeLine: 368, flags: DIFlagProtected | DIFlagPrototyped, spFlags: 0)
!1128 = !DISubroutineType(types: !1129)
!1129 = !{null, !108, !79}
!1130 = !DISubprogram(name: "swap", linkageName: "_ZNSt3__18ios_base4swapERS0_", scope: !16, file: !15, line: 369, type: !1128, scopeLine: 369, flags: DIFlagProtected | DIFlagPrototyped, spFlags: 0)
!1131 = !DISubprogram(name: "set_rdbuf", linkageName: "_ZNSt3__18ios_base9set_rdbufB6v15006EPv", scope: !16, file: !15, line: 372, type: !1117, scopeLine: 372, flags: DIFlagProtected | DIFlagPrototyped, spFlags: 0)
!1132 = !{!1133, !1134, !1135}
!1133 = !DIEnumerator(name: "erase_event", value: 0, isUnsigned: true)
!1134 = !DIEnumerator(name: "imbue_event", value: 1, isUnsigned: true)
!1135 = !DIEnumerator(name: "copyfmt_event", value: 2, isUnsigned: true)
!1136 = !DICompositeType(tag: DW_TAG_enumeration_type, name: "seekdir", scope: !16, file: !15, line: 280, baseType: !29, size: 32, elements: !1137, identifier: "_ZTSNSt3__18ios_base7seekdirE")
!1137 = !{!1138, !1139, !1140}
!1138 = !DIEnumerator(name: "beg", value: 0, isUnsigned: true)
!1139 = !DIEnumerator(name: "cur", value: 1, isUnsigned: true)
!1140 = !DIEnumerator(name: "end", value: 2, isUnsigned: true)
!1141 = !{!1142, !1184, !584, !16}
!1142 = !DIDerivedType(tag: DW_TAG_typedef, name: "_Ip", scope: !1144, file: !1143, line: 762, baseType: !1463)
!1143 = !DIFile(filename: "/Library/Developer/CommandLineTools/SDKs/MacOSX.sdk/usr/include/c++/v1/ostream", directory: "")
!1144 = distinct !DISubprogram(name: "__put_character_sequence<char, std::__1::char_traits<char> >", linkageName: "_ZNSt3__124__put_character_sequenceIcNS_11char_traitsIcEEEERNS_13basic_ostreamIT_T0_EES7_PKS4_m", scope: !17, file: !1143, line: 752, type: !1145, scopeLine: 754, flags: DIFlagPrototyped, spFlags: DISPFlagDefinition, unit: !11, templateParams: !546, retainedNodes: !288)
!1145 = !DISubroutineType(types: !1146)
!1146 = !{!1147, !1147, !155, !83}
!1147 = !DIDerivedType(tag: DW_TAG_reference_type, baseType: !1148, size: 64)
!1148 = distinct !DICompositeType(tag: DW_TAG_class_type, name: "basic_ostream<char, std::__1::char_traits<char> >", scope: !17, file: !1143, line: 1185, size: 1280, flags: DIFlagTypePassByReference | DIFlagNonTrivial, elements: !1149, vtableHolder: !1148, templateParams: !546)
!1149 = !{!1150, !1347, !1348, !1352, !1355, !1359, !1362, !1365, !1370, !1373, !1379, !1385, !1391, !1394, !1398, !1402, !1405, !1408, !1411, !1414, !1417, !1421, !1425, !1429, !1433, !1436, !1439, !1443, !1448, !1451, !1455, !1458, !1462}
!1150 = !DIDerivedType(tag: DW_TAG_inheritance, scope: !1148, baseType: !1151, offset: 24, flags: DIFlagPublic | DIFlagVirtual, extraData: i32 0)
!1151 = distinct !DICompositeType(tag: DW_TAG_class_type, name: "basic_ios<char, std::__1::char_traits<char> >", scope: !17, file: !1152, line: 494, size: 1216, flags: DIFlagTypePassByReference | DIFlagNonTrivial, elements: !1153, vtableHolder: !16, templateParams: !546)
!1152 = !DIFile(filename: "/Library/Developer/CommandLineTools/SDKs/MacOSX.sdk/usr/include/c++/v1/streambuf", directory: "")
!1153 = !{!1154, !1155, !1157, !1159, !1164, !1167, !1170, !1174, !1175, !1176, !1177, !1178, !1179, !1180, !1181, !1300, !1303, !1306, !1309, !1312, !1315, !1320, !1324, !1327, !1330, !1333, !1336, !1337, !1338, !1341, !1345, !1346}
!1154 = !DIDerivedType(tag: DW_TAG_inheritance, scope: !1151, baseType: !16, flags: DIFlagPublic, extraData: i32 0)
!1155 = !DIDerivedType(tag: DW_TAG_member, name: "__tie_", scope: !1151, file: !15, line: 688, baseType: !1156, size: 64, offset: 1088)
!1156 = !DIDerivedType(tag: DW_TAG_pointer_type, baseType: !1148, size: 64)
!1157 = !DIDerivedType(tag: DW_TAG_member, name: "__fill_", scope: !1151, file: !15, line: 689, baseType: !1158, size: 32, offset: 1152)
!1158 = !DIDerivedType(tag: DW_TAG_typedef, name: "int_type", scope: !1151, file: !15, line: 612, baseType: !584)
!1159 = !DISubprogram(name: "operator void *", linkageName: "_ZNKSt3__19basic_iosIcNS_11char_traitsIcEEEcvPvB6v15006Ev", scope: !1151, file: !15, line: 623, type: !1160, scopeLine: 623, flags: DIFlagPublic | DIFlagPrototyped, spFlags: 0)
!1160 = !DISubroutineType(types: !1161)
!1161 = !{!71, !1162}
!1162 = !DIDerivedType(tag: DW_TAG_pointer_type, baseType: !1163, size: 64, flags: DIFlagArtificial | DIFlagObjectPointer)
!1163 = !DIDerivedType(tag: DW_TAG_const_type, baseType: !1151)
!1164 = !DISubprogram(name: "operator!", linkageName: "_ZNKSt3__19basic_iosIcNS_11char_traitsIcEEEntB6v15006Ev", scope: !1151, file: !15, line: 629, type: !1165, scopeLine: 629, flags: DIFlagPublic | DIFlagPrototyped, spFlags: 0)
!1165 = !DISubroutineType(types: !1166)
!1166 = !{!192, !1162}
!1167 = !DISubprogram(name: "rdstate", linkageName: "_ZNKSt3__19basic_iosIcNS_11char_traitsIcEEE7rdstateB6v15006Ev", scope: !1151, file: !15, line: 630, type: !1168, scopeLine: 630, flags: DIFlagPublic | DIFlagPrototyped, spFlags: 0)
!1168 = !DISubroutineType(types: !1169)
!1169 = !{!49, !1162}
!1170 = !DISubprogram(name: "clear", linkageName: "_ZNSt3__19basic_iosIcNS_11char_traitsIcEEE5clearB6v15006Ej", scope: !1151, file: !15, line: 631, type: !1171, scopeLine: 631, flags: DIFlagPublic | DIFlagPrototyped, spFlags: 0)
!1171 = !DISubroutineType(types: !1172)
!1172 = !{null, !1173, !49}
!1173 = !DIDerivedType(tag: DW_TAG_pointer_type, baseType: !1151, size: 64, flags: DIFlagArtificial | DIFlagObjectPointer)
!1174 = !DISubprogram(name: "setstate", linkageName: "_ZNSt3__19basic_iosIcNS_11char_traitsIcEEE8setstateB6v15006Ej", scope: !1151, file: !15, line: 632, type: !1171, scopeLine: 632, flags: DIFlagPublic | DIFlagPrototyped, spFlags: 0)
!1175 = !DISubprogram(name: "good", linkageName: "_ZNKSt3__19basic_iosIcNS_11char_traitsIcEEE4goodB6v15006Ev", scope: !1151, file: !15, line: 633, type: !1165, scopeLine: 633, flags: DIFlagPublic | DIFlagPrototyped, spFlags: 0)
!1176 = !DISubprogram(name: "eof", linkageName: "_ZNKSt3__19basic_iosIcNS_11char_traitsIcEEE3eofB6v15006Ev", scope: !1151, file: !15, line: 634, type: !1165, scopeLine: 634, flags: DIFlagPublic | DIFlagPrototyped, spFlags: 0)
!1177 = !DISubprogram(name: "fail", linkageName: "_ZNKSt3__19basic_iosIcNS_11char_traitsIcEEE4failB6v15006Ev", scope: !1151, file: !15, line: 635, type: !1165, scopeLine: 635, flags: DIFlagPublic | DIFlagPrototyped, spFlags: 0)
!1178 = !DISubprogram(name: "bad", linkageName: "_ZNKSt3__19basic_iosIcNS_11char_traitsIcEEE3badB6v15006Ev", scope: !1151, file: !15, line: 636, type: !1165, scopeLine: 636, flags: DIFlagPublic | DIFlagPrototyped, spFlags: 0)
!1179 = !DISubprogram(name: "exceptions", linkageName: "_ZNKSt3__19basic_iosIcNS_11char_traitsIcEEE10exceptionsB6v15006Ev", scope: !1151, file: !15, line: 638, type: !1168, scopeLine: 638, flags: DIFlagPublic | DIFlagPrototyped, spFlags: 0)
!1180 = !DISubprogram(name: "exceptions", linkageName: "_ZNSt3__19basic_iosIcNS_11char_traitsIcEEE10exceptionsB6v15006Ej", scope: !1151, file: !15, line: 639, type: !1171, scopeLine: 639, flags: DIFlagPublic | DIFlagPrototyped, spFlags: 0)
!1181 = !DISubprogram(name: "basic_ios", scope: !1151, file: !15, line: 643, type: !1182, scopeLine: 643, flags: DIFlagPublic | DIFlagExplicit | DIFlagPrototyped, spFlags: 0)
!1182 = !DISubroutineType(types: !1183)
!1183 = !{null, !1173, !1184}
!1184 = !DIDerivedType(tag: DW_TAG_pointer_type, baseType: !1185, size: 64)
!1185 = distinct !DICompositeType(tag: DW_TAG_class_type, name: "basic_streambuf<char, std::__1::char_traits<char> >", scope: !17, file: !1152, line: 491, size: 512, flags: DIFlagTypePassByReference | DIFlagNonTrivial, elements: !1186, vtableHolder: !1185, templateParams: !546)
!1186 = !{!1187, !1188, !1189, !1192, !1193, !1194, !1195, !1196, !1197, !1201, !1204, !1209, !1212, !1223, !1226, !1229, !1232, !1236, !1237, !1238, !1241, !1244, !1245, !1246, !1251, !1252, !1256, !1260, !1263, !1266, !1267, !1268, !1271, !1274, !1275, !1276, !1277, !1278, !1281, !1284, !1287, !1288, !1289, !1290, !1291, !1292, !1293, !1294, !1295, !1298, !1299}
!1187 = !DIDerivedType(tag: DW_TAG_member, name: "_vptr$basic_streambuf", scope: !1152, file: !1152, baseType: !21, size: 64, flags: DIFlagArtificial)
!1188 = !DIDerivedType(tag: DW_TAG_member, name: "__loc_", scope: !1185, file: !1152, line: 298, baseType: !127, size: 64, offset: 64)
!1189 = !DIDerivedType(tag: DW_TAG_member, name: "__binp_", scope: !1185, file: !1152, line: 299, baseType: !1190, size: 64, offset: 128)
!1190 = !DIDerivedType(tag: DW_TAG_pointer_type, baseType: !1191, size: 64)
!1191 = !DIDerivedType(tag: DW_TAG_typedef, name: "char_type", scope: !1185, file: !1152, line: 131, baseType: !157)
!1192 = !DIDerivedType(tag: DW_TAG_member, name: "__ninp_", scope: !1185, file: !1152, line: 300, baseType: !1190, size: 64, offset: 192)
!1193 = !DIDerivedType(tag: DW_TAG_member, name: "__einp_", scope: !1185, file: !1152, line: 301, baseType: !1190, size: 64, offset: 256)
!1194 = !DIDerivedType(tag: DW_TAG_member, name: "__bout_", scope: !1185, file: !1152, line: 302, baseType: !1190, size: 64, offset: 320)
!1195 = !DIDerivedType(tag: DW_TAG_member, name: "__nout_", scope: !1185, file: !1152, line: 303, baseType: !1190, size: 64, offset: 384)
!1196 = !DIDerivedType(tag: DW_TAG_member, name: "__eout_", scope: !1185, file: !1152, line: 304, baseType: !1190, size: 64, offset: 448)
!1197 = !DISubprogram(name: "~basic_streambuf", scope: !1185, file: !1152, line: 140, type: !1198, scopeLine: 140, containingType: !1185, virtualIndex: 0, flags: DIFlagPublic | DIFlagPrototyped, spFlags: DISPFlagVirtual)
!1198 = !DISubroutineType(types: !1199)
!1199 = !{null, !1200}
!1200 = !DIDerivedType(tag: DW_TAG_pointer_type, baseType: !1185, size: 64, flags: DIFlagArtificial | DIFlagObjectPointer)
!1201 = !DISubprogram(name: "pubimbue", linkageName: "_ZNSt3__115basic_streambufIcNS_11char_traitsIcEEE8pubimbueB6v15006ERKNS_6localeE", scope: !1185, file: !1152, line: 144, type: !1202, scopeLine: 144, flags: DIFlagPublic | DIFlagPrototyped, spFlags: 0)
!1202 = !DISubroutineType(types: !1203)
!1203 = !{!127, !1200, !150}
!1204 = !DISubprogram(name: "getloc", linkageName: "_ZNKSt3__115basic_streambufIcNS_11char_traitsIcEEE6getlocB6v15006Ev", scope: !1185, file: !1152, line: 152, type: !1205, scopeLine: 152, flags: DIFlagPublic | DIFlagPrototyped, spFlags: 0)
!1205 = !DISubroutineType(types: !1206)
!1206 = !{!127, !1207}
!1207 = !DIDerivedType(tag: DW_TAG_pointer_type, baseType: !1208, size: 64, flags: DIFlagArtificial | DIFlagObjectPointer)
!1208 = !DIDerivedType(tag: DW_TAG_const_type, baseType: !1185)
!1209 = !DISubprogram(name: "pubsetbuf", linkageName: "_ZNSt3__115basic_streambufIcNS_11char_traitsIcEEE9pubsetbufB6v15006EPcl", scope: !1185, file: !1152, line: 156, type: !1210, scopeLine: 156, flags: DIFlagPublic | DIFlagPrototyped, spFlags: 0)
!1210 = !DISubroutineType(types: !1211)
!1211 = !{!1184, !1200, !1190, !63}
!1212 = !DISubprogram(name: "pubseekoff", linkageName: "_ZNSt3__115basic_streambufIcNS_11char_traitsIcEEE10pubseekoffB6v15006ExNS_8ios_base7seekdirEj", scope: !1185, file: !1152, line: 160, type: !1213, scopeLine: 160, flags: DIFlagPublic | DIFlagPrototyped, spFlags: 0)
!1213 = !DISubroutineType(types: !1214)
!1214 = !{!1215, !1200, !1219, !1136, !55}
!1215 = !DIDerivedType(tag: DW_TAG_typedef, name: "pos_type", scope: !1185, file: !1152, line: 134, baseType: !1216)
!1216 = !DIDerivedType(tag: DW_TAG_typedef, name: "pos_type", scope: !549, file: !550, line: 194, baseType: !1217)
!1217 = !DIDerivedType(tag: DW_TAG_typedef, name: "streampos", scope: !17, file: !164, line: 230, baseType: !1218)
!1218 = !DICompositeType(tag: DW_TAG_class_type, name: "fpos<__mbstate_t>", scope: !17, file: !164, line: 229, flags: DIFlagFwdDecl | DIFlagNonTrivial, identifier: "_ZTSNSt3__14fposI11__mbstate_tEE")
!1219 = !DIDerivedType(tag: DW_TAG_typedef, name: "off_type", scope: !1185, file: !1152, line: 135, baseType: !1220)
!1220 = !DIDerivedType(tag: DW_TAG_typedef, name: "off_type", scope: !549, file: !550, line: 193, baseType: !1221)
!1221 = !DIDerivedType(tag: DW_TAG_typedef, name: "streamoff", scope: !17, file: !164, line: 242, baseType: !1222)
!1222 = !DIBasicType(name: "long long", size: 64, encoding: DW_ATE_signed)
!1223 = !DISubprogram(name: "pubseekpos", linkageName: "_ZNSt3__115basic_streambufIcNS_11char_traitsIcEEE10pubseekposB6v15006ENS_4fposI11__mbstate_tEEj", scope: !1185, file: !1152, line: 165, type: !1224, scopeLine: 165, flags: DIFlagPublic | DIFlagPrototyped, spFlags: 0)
!1224 = !DISubroutineType(types: !1225)
!1225 = !{!1215, !1200, !1215, !55}
!1226 = !DISubprogram(name: "pubsync", linkageName: "_ZNSt3__115basic_streambufIcNS_11char_traitsIcEEE7pubsyncB6v15006Ev", scope: !1185, file: !1152, line: 170, type: !1227, scopeLine: 170, flags: DIFlagPublic | DIFlagPrototyped, spFlags: 0)
!1227 = !DISubroutineType(types: !1228)
!1228 = !{!25, !1200}
!1229 = !DISubprogram(name: "in_avail", linkageName: "_ZNSt3__115basic_streambufIcNS_11char_traitsIcEEE8in_availB6v15006Ev", scope: !1185, file: !1152, line: 175, type: !1230, scopeLine: 175, flags: DIFlagPublic | DIFlagPrototyped, spFlags: 0)
!1230 = !DISubroutineType(types: !1231)
!1231 = !{!63, !1200}
!1232 = !DISubprogram(name: "snextc", linkageName: "_ZNSt3__115basic_streambufIcNS_11char_traitsIcEEE6snextcB6v15006Ev", scope: !1185, file: !1152, line: 182, type: !1233, scopeLine: 182, flags: DIFlagPublic | DIFlagPrototyped, spFlags: 0)
!1233 = !DISubroutineType(types: !1234)
!1234 = !{!1235, !1200}
!1235 = !DIDerivedType(tag: DW_TAG_typedef, name: "int_type", scope: !1185, file: !1152, line: 133, baseType: !584)
!1236 = !DISubprogram(name: "sbumpc", linkageName: "_ZNSt3__115basic_streambufIcNS_11char_traitsIcEEE6sbumpcB6v15006Ev", scope: !1185, file: !1152, line: 189, type: !1233, scopeLine: 189, flags: DIFlagPublic | DIFlagPrototyped, spFlags: 0)
!1237 = !DISubprogram(name: "sgetc", linkageName: "_ZNSt3__115basic_streambufIcNS_11char_traitsIcEEE5sgetcB6v15006Ev", scope: !1185, file: !1152, line: 196, type: !1233, scopeLine: 196, flags: DIFlagPublic | DIFlagPrototyped, spFlags: 0)
!1238 = !DISubprogram(name: "sgetn", linkageName: "_ZNSt3__115basic_streambufIcNS_11char_traitsIcEEE5sgetnB6v15006EPcl", scope: !1185, file: !1152, line: 203, type: !1239, scopeLine: 203, flags: DIFlagPublic | DIFlagPrototyped, spFlags: 0)
!1239 = !DISubroutineType(types: !1240)
!1240 = !{!63, !1200, !1190, !63}
!1241 = !DISubprogram(name: "sputbackc", linkageName: "_ZNSt3__115basic_streambufIcNS_11char_traitsIcEEE9sputbackcB6v15006Ec", scope: !1185, file: !1152, line: 208, type: !1242, scopeLine: 208, flags: DIFlagPublic | DIFlagPrototyped, spFlags: 0)
!1242 = !DISubroutineType(types: !1243)
!1243 = !{!1235, !1200, !1191}
!1244 = !DISubprogram(name: "sungetc", linkageName: "_ZNSt3__115basic_streambufIcNS_11char_traitsIcEEE7sungetcB6v15006Ev", scope: !1185, file: !1152, line: 215, type: !1233, scopeLine: 215, flags: DIFlagPublic | DIFlagPrototyped, spFlags: 0)
!1245 = !DISubprogram(name: "sputc", linkageName: "_ZNSt3__115basic_streambufIcNS_11char_traitsIcEEE5sputcB6v15006Ec", scope: !1185, file: !1152, line: 223, type: !1242, scopeLine: 223, flags: DIFlagPublic | DIFlagPrototyped, spFlags: 0)
!1246 = !DISubprogram(name: "sputn", linkageName: "_ZNSt3__115basic_streambufIcNS_11char_traitsIcEEE5sputnB6v15006EPKcl", scope: !1185, file: !1152, line: 231, type: !1247, scopeLine: 231, flags: DIFlagPublic | DIFlagPrototyped, spFlags: 0)
!1247 = !DISubroutineType(types: !1248)
!1248 = !{!63, !1200, !1249, !63}
!1249 = !DIDerivedType(tag: DW_TAG_pointer_type, baseType: !1250, size: 64)
!1250 = !DIDerivedType(tag: DW_TAG_const_type, baseType: !1191)
!1251 = !DISubprogram(name: "basic_streambuf", scope: !1185, file: !1152, line: 235, type: !1198, scopeLine: 235, flags: DIFlagProtected | DIFlagPrototyped, spFlags: 0)
!1252 = !DISubprogram(name: "basic_streambuf", scope: !1185, file: !1152, line: 236, type: !1253, scopeLine: 236, flags: DIFlagProtected | DIFlagPrototyped, spFlags: 0)
!1253 = !DISubroutineType(types: !1254)
!1254 = !{null, !1200, !1255}
!1255 = !DIDerivedType(tag: DW_TAG_reference_type, baseType: !1208, size: 64)
